LX51 LINKER/LOCATER V4.47a                                                              12/31/2014  11:09:05  PAGE 1


LX51 LINKER/LOCATER V4.47a, INVOKED BY:
C:\KEIL\C51\BIN\LX51.EXE main.obj, LED.obj, AD3421.obj, EEPROM.obj, DAC6571_mV.obj, DAC6571_mA.obj, TYPE_SLOPE.obj, MCP7
>> 9411.obj TO TC2 REMOVEUNUSED CLASSES (XDATA (X:0X0-X:0X3FF), HDATA (X:0X0-X:0X3FF), ECODE (C:0X0-C:0XFFFF), HCONST (C
>> :0X0-C:0XFFFF))


CPU MODE:     8051 MODE
MEMORY MODEL: SMALL WITH FLOATING POINT ARITHMETIC


INPUT MODULES INCLUDED:
  main.obj (MAIN)
         COMMENT TYPE 0: C51 V9.02
  LED.obj (LED)
         COMMENT TYPE 0: C51 V9.02
  AD3421.obj (AD3421)
         COMMENT TYPE 0: C51 V9.02
  EEPROM.obj (EEPROM)
         COMMENT TYPE 0: C51 V9.02
  DAC6571_mV.obj (DAC6571_MV)
         COMMENT TYPE 0: C51 V9.02
  DAC6571_mA.obj (DAC6571_MA)
         COMMENT TYPE 0: C51 V9.02
  TYPE_SLOPE.obj (TYPE_SLOPE)
         COMMENT TYPE 0: C51 V9.02
  MCP79411.obj (MCP79411)
         COMMENT TYPE 0: C51 V9.02
  C:\KEIL\C51\LIB\C51FPS.LIB (?C?FPADD)
         COMMENT TYPE 1: A51 / ASM51 Assembler
  C:\KEIL\C51\LIB\C51FPS.LIB (?C?FPDIV)
         COMMENT TYPE 1: A51 / ASM51 Assembler
  C:\KEIL\C51\LIB\C51FPS.LIB (?C?FCAST)
         COMMENT TYPE 1: A51 / ASM51 Assembler
  C:\KEIL\C51\LIB\C51FPS.LIB (?C?CASTF)
         COMMENT TYPE 1: A51 / ASM51 Assembler
  C:\KEIL\C51\LIB\C51FPS.LIB (?C?FPGETOPN)
         COMMENT TYPE 1: A51 / ASM51 Assembler
  C:\KEIL\C51\LIB\C51S.LIB (?C_STARTUP)
         COMMENT TYPE 1: A51 / ASM51 Assembler
  C:\KEIL\C51\LIB\C51S.LIB (?C?IMUL)
         COMMENT TYPE 1: A51 / ASM51 Assembler
  C:\KEIL\C51\LIB\C51S.LIB (?C?UIDIV)
         COMMENT TYPE 1: A51 / ASM51 Assembler
  C:\KEIL\C51\LIB\C51S.LIB (?C?SLDIV)
         COMMENT TYPE 1: A51 / ASM51 Assembler
  C:\KEIL\C51\LIB\C51S.LIB (?C?LNEG)
         COMMENT TYPE 1: A51 / ASM51 Assembler
  C:\KEIL\C51\LIB\C51S.LIB (?C?SLCMP)
         COMMENT TYPE 1: A51 / ASM51 Assembler
  C:\KEIL\C51\LIB\C51S.LIB (?C_INIT)
         COMMENT TYPE 1: A51 / ASM51 Assembler
  C:\KEIL\C51\LIB\C51S.LIB (?C?ULDIV)
         COMMENT TYPE 1: A51 / ASM51 Assembler


ACTIVE MEMORY CLASSES OF MODULE:  TC2 (MAIN)

BASE        START       END         USED      MEMORY CLASS
==========================================================
X:000000H   X:000000H   X:0003FFH   000052H   XDATA
X:000000H   X:000000H   X:0003FFH             HDATA
C:000000H   C:000000H   C:00FFFFH             ECODE
B00:0000H   C:000000H   C:00FFFFH             HCONST
C:000000H   C:000000H   C:00FFFFH   005761H   CODE
I:000000H   I:000000H   I:00007FH   00006BH   DATA
I:000020H.0 I:000020H.0 I:00002FH.7 000000H.3 BIT
LX51 LINKER/LOCATER V4.47a                                                            12/31/2014  11:09:05  PAGE 2


I:000000H   I:000000H   I:0000FFH   000023H   IDATA
C:000000H   C:000000H   C:00FFFFH   000033H   CONST


MEMORY MAP OF MODULE:  TC2 (MAIN)


START     STOP      LENGTH    ALIGN  RELOC    MEMORY CLASS   SEGMENT NAME
=========================================================================

* * * * * * * * * * *   D A T A   M E M O R Y   * * * * * * * * * * * * *
000000H   000007H   000008H   ---    AT..     DATA           "REG BANK 0"
000008H   00000AH   000003H   BYTE   UNIT     DATA           ?DT?TYPE_SLOPE
00000BH   00000BH   000001H   BYTE   UNIT     DATA           ?DT?AD3421
00000CH   00000CH   000001H   BYTE   UNIT     DATA           ?DT?EEPROM
00000DH   00000DH   000001H   BYTE   UNIT     DATA           ?DT?DAC6571_MV
00000EH   00000EH   000001H   BYTE   UNIT     DATA           ?DT?DAC6571_MA
00000FH   00000FH   000001H   BYTE   UNIT     DATA           ?DT?MCP79411
000010H   000012H   000003H   BYTE   UNIT     IDATA          _IDATA_GROUP_
000013H.0 00001FH.7 00000DH.0 ---    ---      **GAP**
000020H.0 000020H.2 000000H.3 BIT    UNIT     BIT            ?BI?MAIN
000020H.3 000020H   000000H.5 ---    ---      **GAP**
000021H   00005BH   00003BH   BYTE   UNIT     DATA           ?DT?MAIN
00005CH   00007BH   000020H   BYTE   UNIT     DATA           _DATA_GROUP_
00007CH   00009AH   00001FH   BYTE   UNIT     IDATA          ?ID?MAIN
00009BH   00009BH   000001H   BYTE   UNIT     IDATA          ?STACK

* * * * * * * * * * *   C O D E   M E M O R Y   * * * * * * * * * * * * *
000000H   000002H   000003H   ---    OFFS..   CODE           ?CO??C_STARTUP?0
000003H   000005H   000003H   BYTE   OFFS..   CODE           ?MAIN?00003
000006H   000006H   000001H   BYTE   UNIT     CODE           ?PR?EX_INT0?MAIN
000007H   00000AH   000004H   ---    ---      **GAP**
00000BH   00000DH   000003H   BYTE   OFFS..   CODE           ?MAIN?0000B
00000EH   00001AH   00000DH   BYTE   UNIT     CODE           ?PR?RTC_RESTART0?MCP79411
00001BH   00001DH   000003H   BYTE   OFFS..   CODE           ?MAIN?0001B
00001EH   000022H   000005H   ---    ---      **GAP**
000023H   000025H   000003H   BYTE   OFFS..   CODE           ?MAIN?00023
000026H   000AC0H   000A9BH   BYTE   UNIT     CODE           ?PR?DO_SETUP_TYPE?MAIN
000AC1H   001311H   000851H   BYTE   UNIT     CODE           ?PR?_GET_E_SLOPE?TYPE_SLOPE
001312H   001ADAH   0007C9H   BYTE   UNIT     CODE           ?PR?_GET_K_SLOPE?TYPE_SLOPE
001ADBH   00226AH   000790H   BYTE   UNIT     CODE           ?PR?_LED_DISP?LED
00226BH   00294FH   0006E5H   BYTE   UNIT     CODE           ?PR?_SETUP_LED_DISP?LED
002950H   002EBFH   000570H   BYTE   UNIT     CODE           ?PR?_GET_T_SLOPE?TYPE_SLOPE
002EC0H   00335CH   00049DH   BYTE   UNIT     CODE           ?PR?_GET_RTD_SLOPE?TYPE_SLOPE
00335DH   0037F7H   00049BH   BYTE   UNIT     CODE           ?PR?_GET_J_SLOPE?TYPE_SLOPE
0037F8H   003BA7H   0003B0H   BYTE   UNIT     CODE           ?C?LIB_CODE
003BA8H   003EF0H   000349H   BYTE   UNIT     CODE           ?PR?_GET_R_SLOPE?TYPE_SLOPE
003EF1H   004236H   000346H   BYTE   UNIT     CODE           ?PR?_GET_S_SLOPE?TYPE_SLOPE
004237H   004485H   00024FH   BYTE   UNIT     CODE           ?PR?MAIN?MAIN
004486H   004657H   0001D2H   BYTE   UNIT     CODE           ?PR?DO_TC_TYPE?MAIN
004658H   0047BDH   000166H   BYTE   UNIT     CODE           ?PR?DO_MV_TYPE?MAIN
0047BEH   004923H   000166H   BYTE   UNIT     CODE           ?PR?DO_MA_TYPE?MAIN
004924H   004A85H   000162H   BYTE   UNIT     CODE           ?PR?DO_RTD_TYPE?MAIN
004A86H   004B5EH   0000D9H   BYTE   UNIT     CODE           ?PR?DO_RESET_TYPE?MAIN
004B5FH   004C34H   0000D6H   BYTE   UNIT     CODE           ?PR?EEPROM_WRITEDEFAULT?MAIN
004C35H   004CFBH   0000C7H   BYTE   UNIT     CODE           ?PR?_LED_DATA_WRITE?LED
004CFCH   004DB4H   0000B9H   BYTE   UNIT     CODE           ?PR?_TEMP_F_TO_C?MAIN
004DB5H   004E6AH   0000B6H   BYTE   UNIT     CODE           ?C_INITSEG
004E6BH   004F16H   0000ACH   BYTE   UNIT     CODE           ?PR?READ_AD3421_VALUE?MAIN
004F17H   004FA2H   00008CH   BYTE   UNIT     CODE           ?C_C51STARTUP
004FA3H   005022H   000080H   BYTE   UNIT     CODE           ?PR?CHECK_PCB?MAIN
005023H   005093H   000071H   BYTE   UNIT     CODE           ?PR?RTC_READ_SET?MAIN
005094H   005101H   00006EH   BYTE   UNIT     CODE           ?PR?GET_KEY?MAIN
005102H   00515EH   00005DH   BYTE   UNIT     CODE           ?PR?TIME1?MAIN
00515FH   0051B3H   000055H   BYTE   UNIT     CODE           ?PR?RTC_ON?MAIN
LX51 LINKER/LOCATER V4.47a                                                            12/31/2014  11:09:05  PAGE 3


0051B4H   0051F7H   000044H   BYTE   UNIT     CODE           ?C?LDIV
0051F8H   00523AH   000043H   BYTE   UNIT     CODE           ?PR?_AD3421_WRITE_BYTE?AD3421
00523BH   00527BH   000041H   BYTE   UNIT     CODE           ?PR?_AD3421_READ_BYTE?AD3421
00527CH   0052B7H   00003CH   BYTE   UNIT     CODE           ?PR?_EEPROM_WRITE_BYTE0?EEPROM
0052B8H   0052F3H   00003CH   BYTE   UNIT     CODE           ?PR?EEPROM_READ_BYTE0?EEPROM
0052F4H   00532FH   00003CH   BYTE   UNIT     CODE           ?PR?_DAC6571MV_WRITE_BYTE?DAC6571_MV
005330H   00536BH   00003CH   BYTE   UNIT     CODE           ?PR?_DAC6571MA_WRITE_BYTE?DAC6571_MA
00536CH   0053A7H   00003CH   BYTE   UNIT     CODE           ?PR?RTC_READ_BYTE0?MCP79411
0053A8H   0053DDH   000036H   BYTE   UNIT     CODE           ?PR?_RTC_WRITE_BYTE0?MCP79411
0053DEH   00540FH   000032H   BYTE   UNIT     CODE           ?PR?_SET_MA?DAC6571_MA
005410H   00543BH   00002CH   BYTE   UNIT     CODE           ?PR?TIME0?MAIN
00543CH   005464H   000029H   BYTE   UNIT     CODE           ?PR?LED_INIT?LED
005465H   00548CH   000028H   BYTE   UNIT     CODE           ?PR?_AD3421_READ_COM?AD3421
00548DH   0054B4H   000028H   BYTE   UNIT     CODE           ?PR?_SET_MV?DAC6571_MV
0054B5H   0054D6H   000022H   BYTE   UNIT     CODE           ?PR?PORT_INIT?MAIN
0054D7H   0054F8H   000022H   BYTE   UNIT     CODE           ?PR?_EEPROM_READ_BYTE?EEPROM
0054F9H   00551AH   000022H   BYTE   UNIT     CODE           ?PR?_RTC_READ_BYTE?MCP79411
00551BH   005538H   00001EH   BYTE   UNIT     CODE           ?PR?EEPROM_INIT?EEPROM
005539H   005556H   00001EH   BYTE   UNIT     CODE           ?PR?_EEPROM_WRITE_BYTE?EEPROM
005557H   005574H   00001EH   BYTE   UNIT     CODE           ?PR?_RTC_WRITE_BYTE?MCP79411
005575H   005590H   00001CH   BYTE   UNIT     CODE           ?PR?AD3421_INIT?AD3421
005591H   0055ACH   00001CH   BYTE   UNIT     CODE           ?PR?_EEPROM_READ_WORD?EEPROM
0055ADH   0055C7H   00001BH   BYTE   UNIT     CODE           ?PR?_DELAY?MAIN
0055C8H   0055E1H   00001AH   BYTE   UNIT     CODE           ?PR?INITUART?MAIN
0055E2H   0055FBH   00001AH   BYTE   UNIT     CODE           ?PR?LED_FILL?LED
0055FCH   005613H   000018H   BYTE   UNIT     CODE           ?PR?GET_AD3421_VALUE?AD3421
005614H   00562AH   000017H   BYTE   UNIT     CODE           ?PR?_EEPROM_DELAY?EEPROM
00562BH   00563EH   000014H   BYTE   UNIT     CODE           ?PR?EEPROM_RESTART0?EEPROM
00563FH   005650H   000012H   BYTE   UNIT     CODE           ?PR?_BUZZER?MAIN
005651H   005662H   000012H   BYTE   UNIT     CODE           ?PR?AD3421_START?AD3421
005663H   005674H   000012H   BYTE   UNIT     CODE           ?PR?DAC6571MV_START?DAC6571_MV
005675H   005686H   000012H   BYTE   UNIT     CODE           ?PR?DAC6571MA_START?DAC6571_MA
005687H   005697H   000011H   BYTE   UNIT     CODE           ?PR?_EEPROM_WRITE_WORD?EEPROM
005698H   0056A8H   000011H   BYTE   UNIT     CODE           ?PR?_RTC_DELAY?MCP79411
0056A9H   0056B8H   000010H   BYTE   UNIT     CODE           ?PR?T0_INIT?MAIN
0056B9H   0056C8H   000010H   BYTE   UNIT     CODE           ?PR?T1_INIT?MAIN
0056C9H   0056D8H   000010H   BYTE   UNIT     CODE           ?PR?SERIAL?MAIN
0056D9H   0056E7H   00000FH   BYTE   UNIT     CODE           ?PR?EEPROM_START0?EEPROM
0056E8H   0056F6H   00000FH   BYTE   UNIT     CODE           ?PR?EEPROM_STOP0?EEPROM
0056F7H   005705H   00000FH   BYTE   UNIT     CODE           ?PR?RTC_START0?MCP79411
005706H   005713H   00000EH   BYTE   UNIT     CODE           ?PR?RTC_BITDLY?MCP79411
005714H   00571EH   00000BH   BYTE   UNIT     CODE           ?PR?_AD3421_WRITE_COM?AD3421
00571FH   005728H   00000AH   BYTE   UNIT     CODE           ?PR?AD3421_STOP?AD3421
005729H   005732H   00000AH   BYTE   UNIT     CODE           ?PR?DAC6571MV_STOP?DAC6571_MV
005733H   00573CH   00000AH   BYTE   UNIT     CODE           ?PR?DAC6571MA_STOP?DAC6571_MA
00573DH   005746H   00000AH   BYTE   UNIT     CODE           ?PR?RTC_STOP0?MCP79411
005747H   00574DH   000007H   BYTE   UNIT     CODE           ?PR?_BITDLY?LED
00574EH   005754H   000007H   BYTE   UNIT     CODE           ?PR?AD_BITDLY?AD3421
005755H   00575BH   000007H   BYTE   UNIT     CODE           ?PR?EEPROM_BITDLY?EEPROM
00575CH   005762H   000007H   BYTE   UNIT     CODE           ?PR?_MVBITDLY?DAC6571_MV
005763H   005769H   000007H   BYTE   UNIT     CODE           ?PR?_MABITDLY?DAC6571_MA
00576AH   00579CH   000033H   BYTE   UNIT     CONST          ?CO?LED

* * * * * * * * * * *  X D A T A   M E M O R Y  * * * * * * * * * * * * *
000000H   000051H   000052H   BYTE   UNIT     XDATA          ?XD?TYPE_SLOPE

* * * * * * * * *   R E M O V E D     S E G M E N T S   * * * * * * * *
   *DEL*:           000010H   BYTE   UNIT     CODE           ?PR?T2_INIT?MAIN
   *DEL*:           00000BH   BYTE   UNIT     CODE           ?PR?INT0_INIT?MAIN
   *DEL*:           000001H   BYTE   UNIT     CODE           ?PR?VOLT_CTRL?MAIN
   *DEL*:           00003EH   BYTE   UNIT     CODE           ?PR?RTC_WRITE_SET?MAIN
   *DEL*:           00004FH   BYTE   UNIT     CODE           ?PR?_DAY_LED_DISP?LED
   *DEL*:           000003H   BYTE   UNIT     DATA           ?DT?_DAY_LED_DISP?LED
   *DEL*:           000008H   BYTE   UNIT     CODE           ?PR?LED_CLS?LED
   *DEL*:           000026H   BYTE   UNIT     CODE           ?PR?DAC6571MV_INIT?DAC6571_MV
LX51 LINKER/LOCATER V4.47a                                                            12/31/2014  11:09:05  PAGE 4


   *DEL*:           00000BH   BYTE   UNIT     CODE           ?PR?_MV_DELAY?DAC6571_MV
   *DEL*:           000026H   BYTE   UNIT     CODE           ?PR?DAC6571MA_INIT?DAC6571_MA
   *DEL*:           00000BH   BYTE   UNIT     CODE           ?PR?_MA_DELAY?DAC6571_MA
   *DEL*:           00001EH   BYTE   UNIT     CODE           ?PR?RTC_INIT?MCP79411



OVERLAY MAP OF MODULE:   TC2 (MAIN)


FUNCTION/MODULE                        BIT_GROUP   DATA_GROUP   IDATA_GROUP
--> CALLED FUNCTION/MODULE            START  STOP  START  STOP  START  STOP
===========================================================================
EX_INT0/MAIN                          ----- -----  ----- -----  ----- -----

*** NEW ROOT ************************

TIME0/MAIN                            ----- -----  005CH 005DH  ----- -----

*** NEW ROOT ************************

TIME1/MAIN                            ----- -----  ----- -----  ----- -----

*** NEW ROOT ************************

SERIAL/MAIN                           ----- -----  ----- -----  ----- -----

*** NEW ROOT ************************

?C_C51STARTUP                         ----- -----  ----- -----  ----- -----
  +--> MAIN/MAIN
  +--> ?C_INITSEG

MAIN/MAIN                             ----- -----  ----- -----  ----- -----
  +--> PORT_INIT/MAIN
  +--> EEPROM_INIT/EEPROM
  +--> LED_INIT/LED
  +--> T0_INIT/MAIN
  +--> T1_INIT/MAIN
  +--> AD3421_INIT/AD3421
  +--> INITUART/MAIN
  +--> _SET_MA/DAC6571_MA
  +--> LED_FILL/LED
  +--> _SET_MV/DAC6571_MV
  +--> _BUZZER/MAIN
  +--> _EEPROM_READ_BYTE/EEPROM
  +--> _EEPROM_WRITE_BYTE/EEPROM
  +--> RTC_ON/MAIN
  +--> EEPROM_WRITEDEFAULT/MAIN
  +--> _EEPROM_READ_WORD/EEPROM
  +--> CHECK_PCB/MAIN
  +--> DO_TC_TYPE/MAIN
  +--> DO_RTD_TYPE/MAIN
  +--> DO_MV_TYPE/MAIN
  +--> DO_MA_TYPE/MAIN
  +--> DO_SETUP_TYPE/MAIN
  +--> DO_RESET_TYPE/MAIN

PORT_INIT/MAIN                        ----- -----  ----- -----  ----- -----

EEPROM_INIT/EEPROM                    ----- -----  ----- -----  ----- -----
  +--> EEPROM_BITDLY/EEPROM

EEPROM_BITDLY/EEPROM                  ----- -----  ----- -----  ----- -----

LX51 LINKER/LOCATER V4.47a                                                            12/31/2014  11:09:05  PAGE 5


LED_INIT/LED                          ----- -----  ----- -----  ----- -----
  +--> _BITDLY/LED

_BITDLY/LED                           ----- -----  ----- -----  ----- -----

T0_INIT/MAIN                          ----- -----  ----- -----  ----- -----

T1_INIT/MAIN                          ----- -----  ----- -----  ----- -----

AD3421_INIT/AD3421                    ----- -----  ----- -----  ----- -----
  +--> AD_BITDLY/AD3421

AD_BITDLY/AD3421                      ----- -----  ----- -----  ----- -----

INITUART/MAIN                         ----- -----  ----- -----  ----- -----

_SET_MA/DAC6571_MA                    ----- -----  ----- -----  ----- -----
  +--> DAC6571MA_START/DAC6571_MA
  +--> _DAC6571MA_WRITE_BYTE/DAC6571_MA
  +--> DAC6571MA_STOP/DAC6571_MA

DAC6571MA_START/DAC6571_MA            ----- -----  ----- -----  ----- -----
  +--> _MABITDLY/DAC6571_MA

_MABITDLY/DAC6571_MA                  ----- -----  ----- -----  ----- -----

_DAC6571MA_WRITE_BYTE/DAC6571_MA      ----- -----  ----- -----  0010H 0010H
  +--> _MABITDLY/DAC6571_MA

DAC6571MA_STOP/DAC6571_MA             ----- -----  ----- -----  ----- -----
  +--> _MABITDLY/DAC6571_MA

LED_FILL/LED                          ----- -----  005EH 005FH  ----- -----
  +--> ?CO?LED
  +--> _LED_DATA_WRITE/LED

?CO?LED                               ----- -----  ----- -----  ----- -----

_LED_DATA_WRITE/LED                   ----- -----  0075H 007BH  ----- -----
  +--> _BITDLY/LED

_SET_MV/DAC6571_MV                    ----- -----  ----- -----  ----- -----
  +--> DAC6571MV_START/DAC6571_MV
  +--> _DAC6571MV_WRITE_BYTE/DAC6571_MV
  +--> DAC6571MV_STOP/DAC6571_MV

DAC6571MV_START/DAC6571_MV            ----- -----  ----- -----  ----- -----
  +--> _MVBITDLY/DAC6571_MV

_MVBITDLY/DAC6571_MV                  ----- -----  ----- -----  ----- -----

_DAC6571MV_WRITE_BYTE/DAC6571_MV      ----- -----  ----- -----  0010H 0010H
  +--> _MVBITDLY/DAC6571_MV

DAC6571MV_STOP/DAC6571_MV             ----- -----  ----- -----  ----- -----
  +--> _MVBITDLY/DAC6571_MV

_BUZZER/MAIN                          ----- -----  ----- -----  ----- -----

_EEPROM_READ_BYTE/EEPROM              ----- -----  ----- -----  ----- -----
  +--> EEPROM_START0/EEPROM
  +--> _EEPROM_WRITE_BYTE0/EEPROM
  +--> EEPROM_RESTART0/EEPROM
  +--> EEPROM_READ_BYTE0/EEPROM
  +--> EEPROM_STOP0/EEPROM
LX51 LINKER/LOCATER V4.47a                                                            12/31/2014  11:09:05  PAGE 6



EEPROM_START0/EEPROM                  ----- -----  ----- -----  ----- -----
  +--> EEPROM_BITDLY/EEPROM

_EEPROM_WRITE_BYTE0/EEPROM            ----- -----  ----- -----  0010H 0010H
  +--> EEPROM_BITDLY/EEPROM

EEPROM_RESTART0/EEPROM                ----- -----  ----- -----  ----- -----
  +--> EEPROM_BITDLY/EEPROM

EEPROM_READ_BYTE0/EEPROM              ----- -----  ----- -----  0010H 0011H
  +--> EEPROM_BITDLY/EEPROM

EEPROM_STOP0/EEPROM                   ----- -----  ----- -----  ----- -----
  +--> EEPROM_BITDLY/EEPROM

_EEPROM_WRITE_BYTE/EEPROM             ----- -----  ----- -----  ----- -----
  +--> EEPROM_START0/EEPROM
  +--> _EEPROM_WRITE_BYTE0/EEPROM
  +--> EEPROM_STOP0/EEPROM
  +--> _EEPROM_DELAY/EEPROM

_EEPROM_DELAY/EEPROM                  ----- -----  ----- -----  ----- -----

RTC_ON/MAIN                           ----- -----  ----- -----  ----- -----
  +--> _RTC_READ_BYTE/MCP79411
  +--> _RTC_WRITE_BYTE/MCP79411

_RTC_READ_BYTE/MCP79411               ----- -----  ----- -----  ----- -----
  +--> RTC_START0/MCP79411
  +--> _RTC_WRITE_BYTE0/MCP79411
  +--> RTC_RESTART0/MCP79411
  +--> RTC_READ_BYTE0/MCP79411
  +--> RTC_STOP0/MCP79411

RTC_START0/MCP79411                   ----- -----  ----- -----  ----- -----
  +--> RTC_BITDLY/MCP79411

RTC_BITDLY/MCP79411                   ----- -----  ----- -----  ----- -----

_RTC_WRITE_BYTE0/MCP79411             ----- -----  ----- -----  0010H 0010H
  +--> RTC_BITDLY/MCP79411

RTC_RESTART0/MCP79411                 ----- -----  ----- -----  ----- -----
  +--> RTC_BITDLY/MCP79411

RTC_READ_BYTE0/MCP79411               ----- -----  ----- -----  0010H 0011H
  +--> RTC_BITDLY/MCP79411

RTC_STOP0/MCP79411                    ----- -----  ----- -----  ----- -----
  +--> RTC_BITDLY/MCP79411

_RTC_WRITE_BYTE/MCP79411              ----- -----  ----- -----  ----- -----
  +--> RTC_START0/MCP79411
  +--> _RTC_WRITE_BYTE0/MCP79411
  +--> RTC_STOP0/MCP79411
  +--> _RTC_DELAY/MCP79411

_RTC_DELAY/MCP79411                   ----- -----  ----- -----  ----- -----

EEPROM_WRITEDEFAULT/MAIN              ----- -----  ----- -----  ----- -----
  +--> CHECK_PCB/MAIN
  +--> _EEPROM_WRITE_BYTE/EEPROM
  +--> _EEPROM_WRITE_WORD/EEPROM
  +--> RTC_ON/MAIN
LX51 LINKER/LOCATER V4.47a                                                            12/31/2014  11:09:05  PAGE 7



CHECK_PCB/MAIN                        ----- -----  ----- -----  ----- -----

_EEPROM_WRITE_WORD/EEPROM             ----- -----  ----- -----  ----- -----
  +--> _EEPROM_WRITE_BYTE/EEPROM

_EEPROM_READ_WORD/EEPROM              ----- -----  ----- -----  ----- -----
  +--> _EEPROM_READ_BYTE/EEPROM

DO_TC_TYPE/MAIN                       ----- -----  005EH 0061H  ----- -----
  +--> GET_KEY/MAIN
  +--> READ_AD3421_VALUE/MAIN
  +--> _GET_K_SLOPE/TYPE_SLOPE
  +--> _GET_J_SLOPE/TYPE_SLOPE
  +--> _GET_T_SLOPE/TYPE_SLOPE
  +--> _GET_E_SLOPE/TYPE_SLOPE
  +--> _GET_R_SLOPE/TYPE_SLOPE
  +--> _GET_S_SLOPE/TYPE_SLOPE
  +--> _TEMP_F_TO_C/MAIN
  +--> RTC_READ_SET/MAIN
  +--> _LED_DISP/LED
  +--> _SET_MV/DAC6571_MV
  +--> _SET_MA/DAC6571_MA

GET_KEY/MAIN                          ----- -----  ----- -----  ----- -----

READ_AD3421_VALUE/MAIN                ----- -----  0069H 006AH  ----- -----
  +--> GET_AD3421_VALUE/AD3421

GET_AD3421_VALUE/AD3421               ----- -----  ----- -----  0010H 0010H
  +--> AD3421_INIT/AD3421
  +--> _AD3421_WRITE_COM/AD3421
  +--> _AD3421_READ_COM/AD3421

_AD3421_WRITE_COM/AD3421              ----- -----  ----- -----  ----- -----
  +--> _AD3421_WRITE_BYTE/AD3421
  +--> AD3421_STOP/AD3421

_AD3421_WRITE_BYTE/AD3421             ----- -----  ----- -----  0011H 0011H
  +--> AD3421_START/AD3421
  +--> AD_BITDLY/AD3421

AD3421_START/AD3421                   ----- -----  ----- -----  ----- -----
  +--> AD_BITDLY/AD3421

AD3421_STOP/AD3421                    ----- -----  ----- -----  ----- -----
  +--> AD_BITDLY/AD3421

_AD3421_READ_COM/AD3421               ----- -----  ----- -----  ----- -----
  +--> _AD3421_WRITE_BYTE/AD3421
  +--> _AD3421_READ_BYTE/AD3421
  +--> AD3421_STOP/AD3421

_AD3421_READ_BYTE/AD3421              ----- -----  ----- -----  0011H 0012H
  +--> AD_BITDLY/AD3421

_GET_K_SLOPE/TYPE_SLOPE               ----- -----  0062H 0065H  ----- -----

_GET_J_SLOPE/TYPE_SLOPE               ----- -----  0062H 0065H  ----- -----

_GET_T_SLOPE/TYPE_SLOPE               ----- -----  0062H 0067H  ----- -----

_GET_E_SLOPE/TYPE_SLOPE               ----- -----  0062H 0065H  ----- -----

_GET_R_SLOPE/TYPE_SLOPE               ----- -----  0062H 0065H  ----- -----
LX51 LINKER/LOCATER V4.47a                                                            12/31/2014  11:09:05  PAGE 8



_GET_S_SLOPE/TYPE_SLOPE               ----- -----  0062H 0065H  ----- -----

_TEMP_F_TO_C/MAIN                     ----- -----  0062H 0065H  ----- -----

RTC_READ_SET/MAIN                     ----- -----  ----- -----  ----- -----
  +--> _RTC_READ_BYTE/MCP79411
  +--> _EEPROM_WRITE_BYTE/EEPROM

_LED_DISP/LED                         ----- -----  0062H 0069H  ----- -----
  +--> ?CO?LED
  +--> _LED_DATA_WRITE/LED

DO_RTD_TYPE/MAIN                      ----- -----  005EH 005FH  ----- -----
  +--> GET_KEY/MAIN
  +--> READ_AD3421_VALUE/MAIN
  +--> _GET_RTD_SLOPE/TYPE_SLOPE
  +--> _TEMP_F_TO_C/MAIN
  +--> _LED_DISP/LED
  +--> _SET_MV/DAC6571_MV
  +--> _SET_MA/DAC6571_MA
  +--> RTC_READ_SET/MAIN

_GET_RTD_SLOPE/TYPE_SLOPE             ----- -----  0060H 0065H  ----- -----

DO_MV_TYPE/MAIN                       ----- -----  005EH 005FH  ----- -----
  +--> GET_KEY/MAIN
  +--> READ_AD3421_VALUE/MAIN
  +--> _LED_DISP/LED
  +--> _SET_MV/DAC6571_MV
  +--> _SET_MA/DAC6571_MA
  +--> RTC_READ_SET/MAIN

DO_MA_TYPE/MAIN                       ----- -----  005EH 005FH  ----- -----
  +--> GET_KEY/MAIN
  +--> READ_AD3421_VALUE/MAIN
  +--> _LED_DISP/LED
  +--> _SET_MV/DAC6571_MV
  +--> _SET_MA/DAC6571_MA
  +--> RTC_READ_SET/MAIN

DO_SETUP_TYPE/MAIN                    ----- -----  005EH 0068H  ----- -----
  +--> _SETUP_LED_DISP/LED
  +--> GET_KEY/MAIN
  +--> _EEPROM_WRITE_BYTE/EEPROM
  +--> _DELAY/MAIN
  +--> READ_AD3421_VALUE/MAIN
  +--> _EEPROM_WRITE_WORD/EEPROM
  +--> _RTC_WRITE_BYTE/MCP79411
  +--> CHECK_PCB/MAIN

_SETUP_LED_DISP/LED                   ----- -----  0069H 0074H  ----- -----
  +--> ?CO?LED
  +--> _LED_DATA_WRITE/LED

_DELAY/MAIN                           ----- -----  ----- -----  ----- -----

DO_RESET_TYPE/MAIN                    ----- -----  ----- -----  ----- -----
  +--> EEPROM_WRITEDEFAULT/MAIN
  +--> LED_FILL/LED
  +--> _EEPROM_READ_BYTE/EEPROM
  +--> _EEPROM_READ_WORD/EEPROM

?C_INITSEG                            ----- -----  ----- -----  ----- -----

LX51 LINKER/LOCATER V4.47a                                                            12/31/2014  11:09:05  PAGE 9




PUBLIC SYMBOLS OF MODULE:  TC2 (MAIN)


      VALUE       CLASS    TYPE      PUBLIC SYMBOL NAME
      =================================================
      00000075H   DATA     BYTE      ?_LED_DATA_Write?BYTE
      010039CEH   CODE     ---       ?C?CASTF
      00000000H   NUMBER   ---       ?C?CODESEG
      0100399AH   CODE     ---       ?C?FCASTC
      01003995H   CODE     ---       ?C?FCASTI
      01003990H   CODE     ---       ?C?FCASTL
      010037FFH   CODE     ---       ?C?FPADD
      010038F3H   CODE     ---       ?C?FPDIV
      01003A05H   CODE     ---       ?C?FPGETOPN2
      01003A3AH   CODE     ---       ?C?FPNANRESULT
      01003A44H   CODE     ---       ?C?FPOVERFLOW
      01003A1CH   CODE     ---       ?C?FPRESULT
      01003A30H   CODE     ---       ?C?FPRESULT2
      010037FBH   CODE     ---       ?C?FPSUB
      01003A41H   CODE     ---       ?C?FPUNDERFLOW
      01003A4FH   CODE     ---       ?C?IMUL
      01003AB6H   CODE     ---       ?C?LNEG
      01003AC4H   CODE     ---       ?C?SLCMP
      010051B4H   CODE     ---       ?C?SLDIV
      01003A61H   CODE     ---       ?C?UIDIV
      01003B16H   CODE     ---       ?C?ULDIV
      00000000H   NUMBER   ---       ?C?XDATASEG
      01004F5EH   CODE     ---       ?C_START
      01000000H   CODE     ---       ?C_STARTUP
      0100523BH   CODE     ---       _AD3421_read_byte
      01005465H   CODE     ---       _AD3421_read_com
      010051FFH   CODE     ---       _AD3421_write_byte
      01005714H   CODE     ---       _AD3421_write_com
      01005747H   CODE     ---       _BitDly
      0100563FH   CODE     ---       _Buzzer
      01005330H   CODE     ---       _DAC6571mA_write_byte
      010052F4H   CODE     ---       _DAC6571mV_write_byte
*DEL*:00000000H   CODE     ---       _DAY_LED_Disp
      010055B1H   CODE     ---       _delay
      01005614H   CODE     ---       _EEPROM_Delay
      010054D7H   CODE     ---       _EEPROM_read_byte
      01005591H   CODE     ---       _EEPROM_read_word
      01005539H   CODE     ---       _EEPROM_write_byte
      0100527CH   CODE     ---       _EEPROM_write_byte0
      01005687H   CODE     ---       _EEPROM_write_word
      01000AC1H   CODE     ---       _Get_E_Slope
      0100335DH   CODE     ---       _Get_J_Slope
      01001312H   CODE     ---       _Get_K_Slope
      01003BA8H   CODE     ---       _Get_R_Slope
      01002EC0H   CODE     ---       _Get_RTD_Slope
      01003EF1H   CODE     ---       _Get_S_Slope
      01002950H   CODE     ---       _Get_T_Slope
      01004C35H   CODE     ---       _LED_DATA_Write
      01001ADBH   CODE     ---       _LED_Disp
      0000000EH   DATA     BYTE      _mA_ack
*DEL*:00000000H   CODE     ---       _mA_Delay
      01005763H   CODE     ---       _mABitDly
      0000000DH   DATA     BYTE      _mV_ack
*DEL*:00000000H   CODE     ---       _mV_Delay
      0100575CH   CODE     ---       _mVBitDly
      01005698H   CODE     ---       _RTC_Delay
      010054F9H   CODE     ---       _RTC_read_byte
      01005557H   CODE     ---       _RTC_write_byte
LX51 LINKER/LOCATER V4.47a                                                            12/31/2014  11:09:05  PAGE 10


      010053A8H   CODE     ---       _RTC_write_byte0
      010053DEH   CODE     ---       _Set_mA
      0100548DH   CODE     ---       _Set_mV
      0100226BH   CODE     ---       _SETUP_LED_Disp
      01004CFCH   CODE     ---       _TEMP_F_TO_C
*SFR* 000000D0H.6 DATA     BIT       AC
*SFR* 000000E0H   DATA     BYTE      ACC
      01005575H   CODE     ---       AD3421_Init
      01005651H   CODE     ---       AD3421_start
      0100571FH   CODE     ---       AD3421_stop
      0000000BH   DATA     BYTE      ad_ack
      0100574EH   CODE     ---       AD_BitDly
      0000002BH   DATA     BYTE      AD_Hi
      00000031H   DATA     BYTE      AD_Lo
      00000021H   DATA     BYTE      AD_Mid
*SFR* 000000A0H.1 DATA     BIT       AD_SCL
*SFR* 000000A0H   DATA     BIT       AD_SDA
      00000053H   DATA     BYTE      AD_Status
*SFR* 000000C6H   DATA     BYTE      ADCH
*SFR* 000000BEH   DATA     BYTE      ADCL
*SFR* 000000C5H   DATA     BYTE      ADCON
*SFR* 000000C5H   DATA     BYTE      ADCTL
*SFR* 000000C6H   DATA     BYTE      ADCV
*SFR* 000000BEH   DATA     BYTE      ADCVL
      00000022H   DATA     BYTE      ADD_COD
*SFR* 00000090H   DATA     BIT       AIN0
*SFR* 00000090H.1 DATA     BIT       AIN1
*SFR* 00000090H.2 DATA     BIT       AIN2
*SFR* 00000090H.3 DATA     BIT       AIN3
*SFR* 00000090H.4 DATA     BIT       AIN4
*SFR* 00000090H.5 DATA     BIT       AIN5
*SFR* 00000090H.6 DATA     BIT       AIN6
*SFR* 00000090H.7 DATA     BIT       AIN7
      00000046H   DATA     WORD      alarm_Hi_set
      00000048H   DATA     WORD      alarm_Low_set
*SFR* 000000E8H.6 DATA     BIT       ALE
*SFR* 000000A0H.2 DATA     BIT       ALL_SDA
*SFR* 000000ADH   DATA     BYTE      AUXIE
*SFR* 000000AEH   DATA     BYTE      AUXIP
*SFR* 000000AFH   DATA     BYTE      AUXIPH
*SFR* 0000008EH   DATA     BYTE      AUXR
*SFR* 0000008EH   DATA     BYTE      AUXR0
*SFR* 000000A2H   DATA     BYTE      AUXR1
*SFR* 000000A6H   DATA     BYTE      AUXR2
      00000008H   DATA     BYTE      AV_COD
*SFR* 000000F0H   DATA     BYTE      B
*SFR* 000000B0H.4 DATA     BIT       BEEP
*SFR* 000000B0H.4 DATA     BIT       BEEP_OUT
      00000054H   DATA     BYTE      C_F_Type
*SFR* 000000C8H.1 DATA     BIT       C_T2
      00000032H   DATA     BYTE      CAIT
*SFR* 000000FAH   DATA     BYTE      CCAP0H
*SFR* 000000EAH   DATA     BYTE      CCAP0L
*SFR* 000000FBH   DATA     BYTE      CCAP1H
*SFR* 000000EBH   DATA     BYTE      CCAP1L
*SFR* 000000FCH   DATA     BYTE      CCAP2H
*SFR* 000000ECH   DATA     BYTE      CCAP2L
*SFR* 000000FDH   DATA     BYTE      CCAP3H
*SFR* 000000EDH   DATA     BYTE      CCAP3L
*SFR* 000000FEH   DATA     BYTE      CCAP4H
*SFR* 000000EEH   DATA     BYTE      CCAP4L
*SFR* 000000FFH   DATA     BYTE      CCAP5H
*SFR* 000000EFH   DATA     BYTE      CCAP5L
*SFR* 000000DAH   DATA     BYTE      CCAPM0
*SFR* 000000DBH   DATA     BYTE      CCAPM1
LX51 LINKER/LOCATER V4.47a                                                            12/31/2014  11:09:05  PAGE 11


*SFR* 000000DCH   DATA     BYTE      CCAPM2
*SFR* 000000DDH   DATA     BYTE      CCAPM3
*SFR* 000000DEH   DATA     BYTE      CCAPM4
*SFR* 000000DFH   DATA     BYTE      CCAPM5
*SFR* 000000D8H   DATA     BIT       CCF0
*SFR* 000000D8H.1 DATA     BIT       CCF1
*SFR* 000000D8H.2 DATA     BIT       CCF2
*SFR* 000000D8H.3 DATA     BIT       CCF3
*SFR* 000000D8H.4 DATA     BIT       CCF4
*SFR* 000000D8H.5 DATA     BIT       CCF5
*SFR* 000000D8H   DATA     BYTE      CCON
*SFR* 00000090H.2 DATA     BIT       CEX0
*SFR* 00000090H.3 DATA     BIT       CEX1
*SFR* 00000090H.4 DATA     BIT       CEX2
*SFR* 00000090H.5 DATA     BIT       CEX3
*SFR* 00000090H.6 DATA     BIT       CEX4
*SFR* 00000090H.7 DATA     BIT       CEX5
*SFR* 000000D8H.7 DATA     BIT       CF
*SFR* 000000F9H   DATA     BYTE      CH
      01004FA3H   CODE     ---       Check_PCB
*SFR* 000000C8H   DATA     BIT       CKO
*SFR* 000000E9H   DATA     BYTE      CL
*SFR* 000000D9H   DATA     BYTE      CMOD
*SFR* 000000C8H   DATA     BIT       CP_RL2
*SFR* 000000D8H.6 DATA     BIT       CR
*SFR* 000000D0H.7 DATA     BIT       CY
*DEL*:00000000H   CODE     ---       DAC6571mA_Init
      01005675H   CODE     ---       DAC6571mA_start
      01005733H   CODE     ---       DAC6571mA_stop
*DEL*:00000000H   CODE     ---       DAC6571mV_Init
      01005663H   CODE     ---       DAC6571mV_start
      01005729H   CODE     ---       DAC6571mV_stop
      00000087H   IDATA    ---       Data_Value
      00000035H   DATA     WORD      Disp_year
      010047BEH   CODE     ---       DO_mA_TYPE
      01004658H   CODE     ---       DO_mV_TYPE
      01004A86H   CODE     ---       DO_RESET_TYPE
      01004924H   CODE     ---       DO_RTD_TYPE
      01000026H   CODE     ---       DO_SETUP_TYPE
      01004486H   CODE     ---       DO_TC_TYPE
*SFR* 00000080H.7 DATA     BIT       DOWN_KEY
*SFR* 00000083H   DATA     BYTE      DPH
*SFR* 00000082H   DATA     BYTE      DPL
      02000000H   XDATA    ---       E_Slope
*SFR* 000000A8H.7 DATA     BIT       EA
*SFR* 00000090H.1 DATA     BIT       ECI
      0000003FH   DATA     BYTE      eep_count
*SFR* 000000A0H.3 DATA     BIT       EEP_SCL
      0000000CH   DATA     BYTE      EEPROM_ack
      01005755H   CODE     ---       EEPROM_BitDly
      0100551BH   CODE     ---       EEPROM_Init
      010052B8H   CODE     ---       EEPROM_read_byte0
      0100562BH   CODE     ---       EEPROM_restart0
*SFR* 000000A0H.3 DATA     BIT       EEPROM_SCL
*SFR* 000000A0H.2 DATA     BIT       EEPROM_SDA
      010056D9H   CODE     ---       EEPROM_start0
      010056E8H   CODE     ---       EEPROM_stop0
      01004B5FH   CODE     ---       EEPROM_WriteDefault
*SFR* 000000ADH   DATA     BYTE      EIE1
*SFR* 000000AFH   DATA     BYTE      EIP1H
*SFR* 000000AEH   DATA     BYTE      EIP1L
*SFR* 000000A8H.4 DATA     BIT       ES
*SFR* 000000A8H.4 DATA     BIT       ES0
*SFR* 000000A8H.1 DATA     BIT       ET0
*SFR* 000000A8H.3 DATA     BIT       ET1
LX51 LINKER/LOCATER V4.47a                                                            12/31/2014  11:09:05  PAGE 12


*SFR* 000000A8H.5 DATA     BIT       ET2
*SFR* 00000097H   DATA     BYTE      EVRCR
*SFR* 000000A8H   DATA     BIT       EX0
*SFR* 000000A8H.2 DATA     BIT       EX1
*SFR* 000000C0H.2 DATA     BIT       EX2
*SFR* 000000C0H.6 DATA     BIT       EX3
      01000006H   CODE     ---       ex_int0
*SFR* 000000C8H.3 DATA     BIT       EXEN2
*SFR* 000000C8H.6 DATA     BIT       EXF2
*SFR* 000000D0H.5 DATA     BIT       F0
*SFR* 000000D0H.1 DATA     BIT       F1
      00000020H.0 BIT      BIT       f_half_sec
*SFR* 00000098H.7 DATA     BIT       FE
      0000002AH   DATA     BYTE      Func_Type
*SFR* 000000B0H.2 DATA     BIT       FUNCTION_KEY
      010055FCH   CODE     ---       Get_AD3421_Value
      01005094H   CODE     ---       Get_Key
*SFR* 000000A8H.6 DATA     BIT       GF4
*SFR* 000000A8H   DATA     BYTE      IE
*SFR* 00000088H.1 DATA     BIT       IE0
*SFR* 00000088H.3 DATA     BIT       IE1
*SFR* 000000C0H.1 DATA     BIT       IE2
*SFR* 000000C0H.5 DATA     BIT       IE3
*SFR* 000000E3H   DATA     BYTE      IFADRH
*SFR* 000000E4H   DATA     BYTE      IFADRL
*SFR* 000000E2H   DATA     BYTE      IFD
*SFR* 000000E5H   DATA     BYTE      IFMT
      010055C8H   CODE     ---       InitUart
*SFR* 000000B0H.2 DATA     BIT       INT0
*DEL*:00000000H   CODE     ---       INT0_Init
*SFR* 000000B0H.3 DATA     BIT       INT1
*SFR* 000000E8H.3 DATA     BIT       INT2
*SFR* 000000E8H.2 DATA     BIT       INT3
*SFR* 000000B8H   DATA     BYTE      IP
*SFR* 000000B7H   DATA     BYTE      IP0H
*SFR* 000000B8H   DATA     BYTE      IP0L
*SFR* 000000B7H   DATA     BYTE      IPH
*SFR* 000000E7H   DATA     BYTE      ISPCR
*SFR* 00000088H   DATA     BIT       IT0
*SFR* 00000088H.2 DATA     BIT       IT1
*SFR* 000000C0H   DATA     BIT       IT2
*SFR* 000000C0H.3 DATA     BIT       IT2H
*SFR* 000000C0H.4 DATA     BIT       IT3
*SFR* 000000C0H.7 DATA     BIT       IT3H
      0200000CH   XDATA    ---       J_Slope
      02000015H   XDATA    ---       K_Slope
*SFR* 000000D6H   DATA     BYTE      KBCON
*SFR* 000000A0H   DATA     BIT       KBI0
*SFR* 000000A0H.1 DATA     BIT       KBI1
*SFR* 000000A0H.2 DATA     BIT       KBI2
*SFR* 000000A0H.3 DATA     BIT       KBI3
*SFR* 000000A0H.4 DATA     BIT       KBI4
*SFR* 000000A0H.5 DATA     BIT       KBI5
*SFR* 000000A0H.6 DATA     BIT       KBI6
*SFR* 000000A0H.7 DATA     BIT       KBI7
*SFR* 000000D7H   DATA     BYTE      KBMASK
*SFR* 000000D5H   DATA     BYTE      KBPATN
      00000041H   DATA     BYTE      key
      00000025H   DATA     BYTE      Key_backup
      0000004CH   DATA     BYTE      key_bak
*SFR* 00000090H.1 DATA     BIT       LED1_LE
*SFR* 00000090H.2 DATA     BIT       LED1_SCL
*SFR* 00000090H   DATA     BIT       LED1_SDA
*SFR* 00000090H.5 DATA     BIT       LED2_LE
*SFR* 00000090H.4 DATA     BIT       LED2_SCL
LX51 LINKER/LOCATER V4.47a                                                            12/31/2014  11:09:05  PAGE 13


*SFR* 00000090H.3 DATA     BIT       LED2_SDA
*DEL*:00000000H   CODE     ---       LED_Cls
      010055E2H   CODE     ---       LED_Fill
      0100543CH   CODE     ---       LED_Init
*SFR* 00000080H.3 DATA     BIT       mA_C
*SFR* 00000080H.5 DATA     BIT       mA_OUT
*SFR* 000000A0H.4 DATA     BIT       mA_SCL
*SFR* 000000A0H.2 DATA     BIT       mA_SDA
      00000028H   DATA     WORD      mA_Span_offset
      00000023H   DATA     WORD      mA_Span_Value
      0000002FH   DATA     WORD      mA_Zero_offset
      01004237H   CODE     ---       main
      00000039H   DATA     BYTE      MAIN_SW
*SFR* 00000080H.2 DATA     BIT       mV_C
*SFR* 00000080H.4 DATA     BIT       mV_OUT
*SFR* 000000A0H.4 DATA     BIT       mV_SCL
*SFR* 000000A0H.2 DATA     BIT       mV_SDA
      00000033H   DATA     WORD      mV_Span_offset
      0000002CH   DATA     WORD      mV_Span_Value
      0000003AH   DATA     WORD      mV_Zero_offset
      0000004FH   DATA     BYTE      n_code
      00000045H   DATA     BYTE      NG_COD
      0000000AH   DATA     BYTE      ng_flog
*SFR* 00000090H.7 DATA     BIT       none2
*SFR* 000000A0H.5 DATA     BIT       NONE3
*SFR* 000000A0H.6 DATA     BIT       NONE_4
*SFR* 000000A0H.7 DATA     BIT       NONE_5
*SFR* 000000B0H.6 DATA     BIT       NONE_6
*SFR* 000000B0H.7 DATA     BIT       NONE_7
      00000009H   DATA     BYTE      NP_COD
*SFR* 000000B0H.3 DATA     BIT       OFFSET_KEY
*SFR* 000000A0H.4 DATA     BIT       OUT_SCL
*SFR* 000000D0H.2 DATA     BIT       OV
      00000058H   DATA     BYTE      OVER_COD
*SFR* 000000D0H   DATA     BIT       P
*SFR* 00000080H   DATA     BYTE      P0
*SFR* 00000080H   DATA     BIT       P00
*SFR* 00000080H.1 DATA     BIT       P01
*SFR* 00000080H.2 DATA     BIT       P02
*SFR* 00000080H.3 DATA     BIT       P03
*SFR* 00000080H.4 DATA     BIT       P04
*SFR* 00000080H.5 DATA     BIT       P05
*SFR* 00000080H.6 DATA     BIT       P06
*SFR* 00000080H.7 DATA     BIT       P07
*SFR* 00000093H   DATA     BYTE      P0M0
*SFR* 00000094H   DATA     BYTE      P0M1
*SFR* 00000090H   DATA     BYTE      P1
*SFR* 00000090H   DATA     BIT       P10
*SFR* 00000090H.1 DATA     BIT       P11
*SFR* 00000090H.2 DATA     BIT       P12
*SFR* 00000090H.3 DATA     BIT       P13
*SFR* 00000090H.4 DATA     BIT       P14
*SFR* 00000090H.5 DATA     BIT       P15
*SFR* 00000090H.6 DATA     BIT       P16
*SFR* 00000090H.7 DATA     BIT       P17
*SFR* 00000091H   DATA     BYTE      P1M0
*SFR* 00000092H   DATA     BYTE      P1M1
*SFR* 000000A0H   DATA     BYTE      P2
*SFR* 000000A0H   DATA     BIT       P20
*SFR* 000000A0H.1 DATA     BIT       P21
*SFR* 000000A0H.2 DATA     BIT       P22
*SFR* 000000A0H.3 DATA     BIT       P23
*SFR* 000000A0H.4 DATA     BIT       P24
*SFR* 000000A0H.5 DATA     BIT       P25
*SFR* 000000A0H.6 DATA     BIT       P26
LX51 LINKER/LOCATER V4.47a                                                            12/31/2014  11:09:05  PAGE 14


*SFR* 000000A0H.7 DATA     BIT       P27
*SFR* 00000095H   DATA     BYTE      P2M0
*SFR* 00000096H   DATA     BYTE      P2M1
*SFR* 000000B0H   DATA     BYTE      P3
*SFR* 000000B0H   DATA     BIT       P30
*SFR* 000000B0H.1 DATA     BIT       P31
*SFR* 000000B0H.2 DATA     BIT       P32
*SFR* 000000B0H.3 DATA     BIT       P33
*SFR* 000000B0H.4 DATA     BIT       P34
*SFR* 000000B0H.5 DATA     BIT       P35
*SFR* 000000B0H.6 DATA     BIT       P36
*SFR* 000000B0H.7 DATA     BIT       P37
*SFR* 000000B1H   DATA     BYTE      P3M0
*SFR* 000000B2H   DATA     BYTE      P3M1
*SFR* 000000E8H   DATA     BYTE      P4
*SFR* 000000E8H   DATA     BIT       P40
*SFR* 000000E8H.1 DATA     BIT       P41
*SFR* 000000E8H.2 DATA     BIT       P42
*SFR* 000000E8H.3 DATA     BIT       P43
*SFR* 000000E8H.4 DATA     BIT       P44
*SFR* 000000E8H.5 DATA     BIT       P45
*SFR* 000000E8H.6 DATA     BIT       P46
*SFR* 000000E8H.7 DATA     BIT       P47
*SFR* 000000B3H   DATA     BYTE      P4M0
*SFR* 000000B4H   DATA     BYTE      P4M1
*SFR* 000000F8H   DATA     BYTE      P5
*SFR* 000000F8H   DATA     BIT       P50
*SFR* 000000F8H.1 DATA     BIT       P51
*SFR* 000000F8H.2 DATA     BIT       P52
*SFR* 000000F8H.3 DATA     BIT       P53
*SFR* 000000B5H   DATA     BYTE      P5M0
*SFR* 000000B6H   DATA     BYTE      P5M1
*SFR* 000000C8H   DATA     BYTE      P6
*SFR* 000000C8H   DATA     BIT       P60
*SFR* 000000C8H.1 DATA     BIT       P61
*SFR* 000000F2H   DATA     BYTE      PCAPWM0
*SFR* 000000F3H   DATA     BYTE      PCAPWM1
*SFR* 000000F4H   DATA     BYTE      PCAPWM2
*SFR* 000000F5H   DATA     BYTE      PCAPWM3
*SFR* 000000F6H   DATA     BYTE      PCAPWM4
*SFR* 000000F7H   DATA     BYTE      PCAPWM5
      00000040H   DATA     BYTE      PCB_SETUP
*SFR* 00000087H   DATA     BYTE      PCON
*SFR* 00000087H   DATA     BYTE      PCON0
*SFR* 00000097H   DATA     BYTE      PCON1
*SFR* 000000C7H   DATA     BYTE      PCON2
      01005786H   CONST    ---       Point_tab_LED
      010054B5H   CODE     ---       PORT_Init
*SFR* 000000B8H.4 DATA     BIT       PS
*SFR* 000000B8H.4 DATA     BIT       PSL
*SFR* 000000D0H   DATA     BYTE      PSW
*SFR* 000000B8H.1 DATA     BIT       PT0
*SFR* 000000B8H.1 DATA     BIT       PT0L
*SFR* 000000B8H.3 DATA     BIT       PT1
*SFR* 000000B8H.3 DATA     BIT       PT1L
*SFR* 000000B8H.5 DATA     BIT       PT2
*SFR* 000000B8H.5 DATA     BIT       PT2L
*SFR* 000000B8H   DATA     BIT       PX0
*SFR* 000000B8H   DATA     BIT       PX0L
*SFR* 000000B8H.2 DATA     BIT       PX1
*SFR* 000000B8H.2 DATA     BIT       PX1L
*SFR* 000000C0H.3 DATA     BIT       PX2
*SFR* 000000B8H.6 DATA     BIT       PX2L
*SFR* 000000C0H.7 DATA     BIT       PX3
*SFR* 000000B8H.7 DATA     BIT       PX3L
LX51 LINKER/LOCATER V4.47a                                                            12/31/2014  11:09:05  PAGE 15


*SFR* 000000B0H.5 DATA     BIT       R485_DE_RE
*SFR* 000000B0H   DATA     BIT       R485_RX
*SFR* 000000B0H.1 DATA     BIT       R485_TX
      02000020H   XDATA    ---       R_Slope
*SFR* 00000098H.2 DATA     BIT       RB8
*SFR* 00000098H.2 DATA     BIT       RB80
*SFR* 00000098H.2 DATA     BIT       RB81
*SFR* 000000CBH   DATA     BYTE      RCAP2H
*SFR* 000000CAH   DATA     BYTE      RCAP2L
*SFR* 000000C8H.5 DATA     BIT       RCLK
*SFR* 000000B0H.7 DATA     BIT       RD
      01004E6BH   CODE     ---       Read_AD3421_Value
      0000003EH   DATA     BYTE      ReceiveDate
      00000020H.2 BIT      BIT       ReceiveFlag
*SFR* 00000098H.4 DATA     BIT       REN
*SFR* 00000098H.4 DATA     BIT       REN0
*SFR* 00000098H.4 DATA     BIT       REN1
*SFR* 00000098H   DATA     BIT       RI
*SFR* 00000098H   DATA     BIT       RI0
*SFR* 00000098H   DATA     BIT       RI1
*SFR* 000000D0H.3 DATA     BIT       RS0
*SFR* 000000D0H.4 DATA     BIT       RS1
      0000000FH   DATA     BYTE      RTC_ack
      0100570DH   CODE     ---       RTC_BitDly
*DEL*:00000000H   CODE     ---       RTC_Init
      0100515FH   CODE     ---       RTC_ON
      0100536CH   CODE     ---       RTC_read_byte0
      01005023H   CODE     ---       RTC_READ_SET
      0100000EH   CODE     ---       RTC_restart0
*SFR* 00000090H.6 DATA     BIT       RTC_SCL
*SFR* 000000A0H.2 DATA     BIT       RTC_SDA
      010056F7H   CODE     ---       RTC_start0
      0100573DH   CODE     ---       RTC_stop0
*DEL*:00000000H   CODE     ---       RTC_WRITE_SET
*SFR* 00000080H.1 DATA     BIT       RTD_C
      0200004AH   XDATA    ---       RTD_Slope
      00000043H   DATA     WORD      RTD_Span_offset
      0000003CH   DATA     WORD      RTD_Span_Value
      0000004AH   DATA     WORD      RTD_Zero_offset
*SFR* 000000B0H   DATA     BIT       RXD
*SFR* 0000009AH   DATA     BYTE      S1BRT
*SFR* 0000009AH   DATA     BYTE      S2BUF
*SFR* 00000090H.2 DATA     BIT       S2RXD
*SFR* 00000090H.3 DATA     BIT       S2TXD
      02000030H   XDATA    ---       S_Slope
*SFR* 000000A9H   DATA     BYTE      SADDR
*SFR* 000000B9H   DATA     BYTE      SADEN
*SFR* 00000099H   DATA     BYTE      SBUF
*SFR* 00000099H   DATA     BYTE      SBUF0
*SFR* 00000099H   DATA     BYTE      SBUF1
*SFR* 0000009AH   DATA     BYTE      SCFG
*SFR* 000000E6H   DATA     BYTE      SCMD
*SFR* 00000098H   DATA     BYTE      SCON
*SFR* 00000098H   DATA     BYTE      SCON0
*SFR* 00000098H   DATA     BYTE      SCON1
      010056C9H   CODE     ---       serial
*SFR* 000000ACH   DATA     BYTE      SFRPI
*SFR* 00000098H.7 DATA     BIT       SM0
*SFR* 00000098H.7 DATA     BIT       SM00
*SFR* 00000098H.7 DATA     BIT       SM01
*SFR* 00000098H.6 DATA     BIT       SM1
*SFR* 00000098H.6 DATA     BIT       SM10
*SFR* 00000098H.6 DATA     BIT       SM11
*SFR* 00000098H.5 DATA     BIT       SM2
*SFR* 00000098H.5 DATA     BIT       SM20
LX51 LINKER/LOCATER V4.47a                                                            12/31/2014  11:09:05  PAGE 16


*SFR* 00000098H.5 DATA     BIT       SM21
      0000007CH   IDATA    ---       Soft_Timer
      00000038H   DATA     BYTE      Soft_Timer_Enable
*SFR* 00000081H   DATA     BYTE      SP
*SFR* 00000085H   DATA     BYTE      SPCON
*SFR* 00000085H   DATA     BYTE      SPCTL
*SFR* 00000086H   DATA     BYTE      SPDAT
*SFR* 00000090H.7 DATA     BIT       SPI_CLK
*SFR* 00000090H.6 DATA     BIT       SPI_MISO
*SFR* 00000090H.5 DATA     BIT       SPI_MOSI
*SFR* 00000090H.4 DATA     BIT       SPI_SS
*SFR* 00000085H   DATA     BYTE      SPICON
*SFR* 00000085H   DATA     BYTE      SPICTL
*SFR* 00000086H   DATA     BYTE      SPIDAT
*SFR* 00000084H   DATA     BYTE      SPISTAT
*SFR* 00000084H   DATA     BYTE      SPSTAT
*SFR* 0000008FH   DATA     BYTE      STRETCH
*SFR* 000000B0H.4 DATA     BIT       T0
      00000084H   IDATA    BYTE      T0_cnt
      010056A9H   CODE     ---       T0_Init
*SFR* 000000B0H.4 DATA     BIT       T0CKO
*SFR* 000000B0H.5 DATA     BIT       T1
      00000085H   IDATA    BYTE      T1_cnt
      010056B9H   CODE     ---       T1_Init
*SFR* 000000B0H.5 DATA     BIT       T1CKO
*SFR* 00000090H   DATA     BIT       T2
      00000086H   IDATA    BYTE      T2_cnt
*DEL*:00000000H   CODE     ---       T2_Init
*SFR* 000000C8H   DATA     BYTE      T2CON
*SFR* 00000090H.1 DATA     BIT       T2EX
*SFR* 000000C9H   DATA     BYTE      T2MOD
      02000040H   XDATA    ---       T_Slope
      0100576AH   CONST    ---       tab_LED
*SFR* 00000098H.3 DATA     BIT       TB8
*SFR* 00000098H.3 DATA     BIT       TB80
*SFR* 00000098H.3 DATA     BIT       TB81
*SFR* 00000080H   DATA     BIT       TC_C
      00000059H   DATA     WORD      TC_Span_offset
      00000051H   DATA     WORD      TC_Span_Value
      0000002EH   DATA     BYTE      TC_Type
      00000026H   DATA     WORD      TC_Zero_offset
*SFR* 000000C8H.4 DATA     BIT       TCLK
*SFR* 00000088H   DATA     BYTE      TCON
*SFR* 00000088H.5 DATA     BIT       TF0
*SFR* 00000088H.7 DATA     BIT       TF1
*SFR* 000000C8H.7 DATA     BIT       TF2
*SFR* 0000008CH   DATA     BYTE      TH0
*SFR* 0000008DH   DATA     BYTE      TH1
*SFR* 000000CDH   DATA     BYTE      TH2
*SFR* 00000098H.1 DATA     BIT       TI
*SFR* 00000098H.1 DATA     BIT       TI0
*SFR* 00000098H.1 DATA     BIT       TI1
      01005410H   CODE     ---       time0
      01005102H   CODE     ---       time1
*SFR* 0000008AH   DATA     BYTE      TL0
*SFR* 0000008BH   DATA     BYTE      TL1
*SFR* 000000CCH   DATA     BYTE      TL2
*SFR* 00000089H   DATA     BYTE      TMOD
*SFR* 00000088H.4 DATA     BIT       TR0
*SFR* 00000088H.6 DATA     BIT       TR1
*SFR* 000000C8H.2 DATA     BIT       TR2
      00000020H.1 BIT      BIT       tran
*SFR* 00000097H   DATA     BYTE      TSTWD
*SFR* 000000B0H.1 DATA     BIT       TXD
*SFR* 00000080H.6 DATA     BIT       UP_KEY
LX51 LINKER/LOCATER V4.47a                                                            12/31/2014  11:09:05  PAGE 17


      00000055H   DATA     BYTE      use_day
      00000042H   DATA     BYTE      use_flag
      00000056H   DATA     BYTE      use_hour
      00000057H   DATA     BYTE      use_min
      0000005BH   DATA     BYTE      use_mon
      00000050H   DATA     BYTE      use_sec
      0000004DH   DATA     BYTE      use_week
      0000004EH   DATA     BYTE      use_year
*SFR* 000000A0H.1 DATA     BIT       Value_SCL
*SFR* 000000A0H   DATA     BIT       Value_SDA
*DEL*:00000000H   CODE     ---       Volt_Ctrl
*SFR* 000000E1H   DATA     BYTE      WDTCR
      00000037H   DATA     BYTE      Work_Type
*SFR* 000000B0H.6 DATA     BIT       WR
*SFR* 000000C0H   DATA     BYTE      XICON
*SFR* 000000C8H.1 DATA     BIT       XIN
*SFR* 000000C8H   DATA     BIT       XOUT



SYMBOL TABLE OF MODULE:  TC2 (MAIN)

      VALUE       REP       CLASS    TYPE      SYMBOL NAME
      ====================================================
      ---         MODULE    ---      ---       MAIN
      0000005BH   PUBLIC    DATA     BYTE      use_mon
      00000059H   PUBLIC    DATA     WORD      TC_Span_offset
      00000058H   PUBLIC    DATA     BYTE      OVER_COD
      00000057H   PUBLIC    DATA     BYTE      use_min
      00000056H   PUBLIC    DATA     BYTE      use_hour
      00000055H   PUBLIC    DATA     BYTE      use_day
      00000054H   PUBLIC    DATA     BYTE      C_F_Type
      00000053H   PUBLIC    DATA     BYTE      AD_Status
      00000051H   PUBLIC    DATA     WORD      TC_Span_Value
      00000050H   PUBLIC    DATA     BYTE      use_sec
      0000004FH   PUBLIC    DATA     BYTE      n_code
      0000004EH   PUBLIC    DATA     BYTE      use_year
      0000004DH   PUBLIC    DATA     BYTE      use_week
      00000087H   PUBLIC    IDATA    ---       Data_Value
      0000004CH   PUBLIC    DATA     BYTE      key_bak
      0000004AH   PUBLIC    DATA     WORD      RTD_Zero_offset
      00000048H   PUBLIC    DATA     WORD      alarm_Low_set
      00000046H   PUBLIC    DATA     WORD      alarm_Hi_set
      00000045H   PUBLIC    DATA     BYTE      NG_COD
      00000043H   PUBLIC    DATA     WORD      RTD_Span_offset
      00000042H   PUBLIC    DATA     BYTE      use_flag
      00000041H   PUBLIC    DATA     BYTE      key
      00000040H   PUBLIC    DATA     BYTE      PCB_SETUP
      0000003FH   PUBLIC    DATA     BYTE      eep_count
      0000003EH   PUBLIC    DATA     BYTE      ReceiveDate
      00000020H.2 PUBLIC    BIT      BIT       ReceiveFlag
      0000003CH   PUBLIC    DATA     WORD      RTD_Span_Value
      00000020H.1 PUBLIC    BIT      BIT       tran
      0000003AH   PUBLIC    DATA     WORD      mV_Zero_offset
      00000039H   PUBLIC    DATA     BYTE      MAIN_SW
      00000038H   PUBLIC    DATA     BYTE      Soft_Timer_Enable
      00000086H   PUBLIC    IDATA    BYTE      T2_cnt
      00000085H   PUBLIC    IDATA    BYTE      T1_cnt
      00000084H   PUBLIC    IDATA    BYTE      T0_cnt
      00000037H   PUBLIC    DATA     BYTE      Work_Type
      00000035H   PUBLIC    DATA     WORD      Disp_year
      00000033H   PUBLIC    DATA     WORD      mV_Span_offset
      00000032H   PUBLIC    DATA     BYTE      CAIT
      00000031H   PUBLIC    DATA     BYTE      AD_Lo
      0000002FH   PUBLIC    DATA     WORD      mA_Zero_offset
LX51 LINKER/LOCATER V4.47a                                                            12/31/2014  11:09:05  PAGE 18


      0000002EH   PUBLIC    DATA     BYTE      TC_Type
      0000002CH   PUBLIC    DATA     WORD      mV_Span_Value
      0000002BH   PUBLIC    DATA     BYTE      AD_Hi
      0000002AH   PUBLIC    DATA     BYTE      Func_Type
      00000028H   PUBLIC    DATA     WORD      mA_Span_offset
      00000026H   PUBLIC    DATA     WORD      TC_Zero_offset
      00000025H   PUBLIC    DATA     BYTE      Key_backup
      00000023H   PUBLIC    DATA     WORD      mA_Span_Value
      0000007CH   PUBLIC    IDATA    ---       Soft_Timer
      00000022H   PUBLIC    DATA     BYTE      ADD_COD
      00000021H   PUBLIC    DATA     BYTE      AD_Mid
      00000020H.0 PUBLIC    BIT      BIT       f_half_sec
      01004237H   PUBLIC    CODE     ---       main
      01004A86H   PUBLIC    CODE     ---       DO_RESET_TYPE
      01004B5FH   PUBLIC    CODE     ---       EEPROM_WriteDefault
      01005023H   PUBLIC    CODE     ---       RTC_READ_SET
      0100515FH   PUBLIC    CODE     ---       RTC_ON
      01000026H   PUBLIC    CODE     ---       DO_SETUP_TYPE
      01004E6BH   PUBLIC    CODE     ---       Read_AD3421_Value
      010047BEH   PUBLIC    CODE     ---       DO_mA_TYPE
      01004658H   PUBLIC    CODE     ---       DO_mV_TYPE
      01004924H   PUBLIC    CODE     ---       DO_RTD_TYPE
      01004486H   PUBLIC    CODE     ---       DO_TC_TYPE
      01005094H   PUBLIC    CODE     ---       Get_Key
      01004CFCH   PUBLIC    CODE     ---       _TEMP_F_TO_C
      01004FA3H   PUBLIC    CODE     ---       Check_PCB
      0100563FH   PUBLIC    CODE     ---       _Buzzer
      010055B1H   PUBLIC    CODE     ---       _delay
      010056C9H   PUBLIC    CODE     ---       serial
      010055C8H   PUBLIC    CODE     ---       InitUart
      010056B9H   PUBLIC    CODE     ---       T1_Init
      010056A9H   PUBLIC    CODE     ---       T0_Init
      01005102H   PUBLIC    CODE     ---       time1
      01005410H   PUBLIC    CODE     ---       time0
      01000006H   PUBLIC    CODE     ---       ex_int0
      010054B5H   PUBLIC    CODE     ---       PORT_Init
      000000B0H   SFRSYM    DATA     BIT       R485_RX
      000000D8H.2 SFRSYM    DATA     BIT       CCF2
      00000098H.3 SFRSYM    DATA     BIT       TB80
      000000F6H   SFRSYM    DATA     BYTE      PCAPWM4
      00000091H   SFRSYM    DATA     BYTE      P1M0
      00000094H   SFRSYM    DATA     BYTE      P0M1
      000000D8H.3 SFRSYM    DATA     BIT       CCF3
      00000098H.3 SFRSYM    DATA     BIT       TB81
      000000F7H   SFRSYM    DATA     BYTE      PCAPWM5
      00000095H   SFRSYM    DATA     BYTE      P2M0
      00000092H   SFRSYM    DATA     BYTE      P1M1
      00000080H   SFRSYM    DATA     BYTE      P0
      000000B0H.1 SFRSYM    DATA     BIT       R485_TX
      000000D8H.4 SFRSYM    DATA     BIT       CCF4
      00000098H.7 SFRSYM    DATA     BIT       SM00
      000000B1H   SFRSYM    DATA     BYTE      P3M0
      00000096H   SFRSYM    DATA     BYTE      P2M1
      00000090H   SFRSYM    DATA     BYTE      P1
      000000D8H.5 SFRSYM    DATA     BIT       CCF5
      00000098H.7 SFRSYM    DATA     BIT       SM01
      00000098H.6 SFRSYM    DATA     BIT       SM10
      000000B3H   SFRSYM    DATA     BYTE      P4M0
      000000B2H   SFRSYM    DATA     BYTE      P3M1
      000000A0H   SFRSYM    DATA     BYTE      P2
      00000098H.6 SFRSYM    DATA     BIT       SM11
      00000098H.5 SFRSYM    DATA     BIT       SM20
      000000E7H   SFRSYM    DATA     BYTE      ISPCR
      000000B5H   SFRSYM    DATA     BYTE      P5M0
      000000B4H   SFRSYM    DATA     BYTE      P4M1
LX51 LINKER/LOCATER V4.47a                                                            12/31/2014  11:09:05  PAGE 19


      000000B0H   SFRSYM    DATA     BYTE      P3
      000000C0H   SFRSYM    DATA     BYTE      XICON
      000000A0H.2 SFRSYM    DATA     BIT       EEPROM_SDA
      00000080H.7 SFRSYM    DATA     BIT       DOWN_KEY
      000000B0H.4 SFRSYM    DATA     BIT       T0
      00000098H.5 SFRSYM    DATA     BIT       SM21
      000000D0H.6 SFRSYM    DATA     BIT       AC
      00000097H   SFRSYM    DATA     BYTE      EVRCR
      000000B6H   SFRSYM    DATA     BYTE      P5M1
      000000E8H   SFRSYM    DATA     BYTE      P4
      000000B0H.5 SFRSYM    DATA     BIT       T1
      00000085H   SFRSYM    DATA     BYTE      SPCON
      000000F8H   SFRSYM    DATA     BYTE      P5
      000000ADH   SFRSYM    DATA     BYTE      EIE1
      00000090H   SFRSYM    DATA     BIT       T2
      000000A8H.7 SFRSYM    DATA     BIT       EA
      000000ACH   SFRSYM    DATA     BYTE      SFRPI
      000000E1H   SFRSYM    DATA     BYTE      WDTCR
      000000C8H   SFRSYM    DATA     BYTE      P6
      000000A0H.4 SFRSYM    DATA     BIT       mV_SCL
      000000A0H   SFRSYM    DATA     BIT       KBI0
      00000090H.5 SFRSYM    DATA     BIT       SPI_MOSI
      00000090H.6 SFRSYM    DATA     BIT       SPI_MISO
      00000080H.5 SFRSYM    DATA     BIT       mA_OUT
      000000A0H.1 SFRSYM    DATA     BIT       KBI1
      00000085H   SFRSYM    DATA     BYTE      SPCTL
      000000A0H.2 SFRSYM    DATA     BIT       KBI2
      00000090H   SFRSYM    DATA     BIT       AIN0
      000000D8H.7 SFRSYM    DATA     BIT       CF
      000000AEH   SFRSYM    DATA     BYTE      AUXIP
      000000A0H.3 SFRSYM    DATA     BIT       KBI3
      00000090H.1 SFRSYM    DATA     BIT       AIN1
      000000A0H.4 SFRSYM    DATA     BIT       KBI4
      00000090H.2 SFRSYM    DATA     BIT       AIN2
      00000098H.7 SFRSYM    DATA     BIT       FE
      000000F9H   SFRSYM    DATA     BYTE      CH
      000000A0H.5 SFRSYM    DATA     BIT       KBI5
      00000090H.3 SFRSYM    DATA     BIT       AIN3
      000000A0H.6 SFRSYM    DATA     BIT       KBI6
      00000090H.4 SFRSYM    DATA     BIT       AIN4
      000000A0H.3 SFRSYM    DATA     BIT       EEPROM_SCL
      00000080H.1 SFRSYM    DATA     BIT       RTD_C
      000000A0H.7 SFRSYM    DATA     BIT       KBI7
      00000090H.5 SFRSYM    DATA     BIT       AIN5
      000000A8H   SFRSYM    DATA     BYTE      IE
      00000090H.6 SFRSYM    DATA     BIT       AIN6
      000000E9H   SFRSYM    DATA     BYTE      CL
      00000090H.7 SFRSYM    DATA     BIT       AIN7
      00000090H.2 SFRSYM    DATA     BIT       CEX0
      000000FAH   SFRSYM    DATA     BYTE      CCAP0H
      000000C6H   SFRSYM    DATA     BYTE      ADCH
      00000090H.3 SFRSYM    DATA     BIT       CEX1
      000000FBH   SFRSYM    DATA     BYTE      CCAP1H
      000000B7H   SFRSYM    DATA     BYTE      IP0H
      000000A0H.2 SFRSYM    DATA     BIT       ALL_SDA
      00000090H.4 SFRSYM    DATA     BIT       CEX2
      000000FCH   SFRSYM    DATA     BYTE      CCAP2H
      000000B0H.3 SFRSYM    DATA     BIT       OFFSET_KEY
      00000090H.5 SFRSYM    DATA     BIT       CEX3
      000000FDH   SFRSYM    DATA     BYTE      CCAP3H
      00000090H.6 SFRSYM    DATA     BIT       CEX4
      000000D8H.6 SFRSYM    DATA     BIT       CR
      000000FEH   SFRSYM    DATA     BYTE      CCAP4H
      000000EAH   SFRSYM    DATA     BYTE      CCAP0L
      000000BEH   SFRSYM    DATA     BYTE      ADCL
LX51 LINKER/LOCATER V4.47a                                                            12/31/2014  11:09:05  PAGE 20


      000000B0H.7 SFRSYM    DATA     BIT       RD
      00000090H.7 SFRSYM    DATA     BIT       CEX5
      000000C8H.6 SFRSYM    DATA     BIT       EXF2
      00000098H.4 SFRSYM    DATA     BIT       REN0
      000000FFH   SFRSYM    DATA     BYTE      CCAP5H
      000000EBH   SFRSYM    DATA     BYTE      CCAP1L
      000000DAH   SFRSYM    DATA     BYTE      CCAPM0
      000000B8H   SFRSYM    DATA     BYTE      IP0L
      00000098H.4 SFRSYM    DATA     BIT       REN1
      000000ECH   SFRSYM    DATA     BYTE      CCAP2L
      000000DBH   SFRSYM    DATA     BYTE      CCAPM1
      000000C0H.3 SFRSYM    DATA     BIT       IT2H
      000000A8H.4 SFRSYM    DATA     BIT       ES
      00000097H   SFRSYM    DATA     BYTE      TSTWD
      000000EDH   SFRSYM    DATA     BYTE      CCAP3L
      000000DCH   SFRSYM    DATA     BYTE      CCAPM2
      000000C0H.7 SFRSYM    DATA     BIT       IT3H
      000000EEH   SFRSYM    DATA     BYTE      CCAP4L
      000000DDH   SFRSYM    DATA     BYTE      CCAPM3
      000000B8H   SFRSYM    DATA     BYTE      IP
      000000EFH   SFRSYM    DATA     BYTE      CCAP5L
      000000DEH   SFRSYM    DATA     BYTE      CCAPM4
      00000098H   SFRSYM    DATA     BIT       RI
      000000DFH   SFRSYM    DATA     BYTE      CCAPM5
      000000B0H.2 SFRSYM    DATA     BIT       INT0
      000000D0H.7 SFRSYM    DATA     BIT       CY
      000000B0H.4 SFRSYM    DATA     BIT       BEEP
      00000080H.4 SFRSYM    DATA     BIT       mV_OUT
      000000B0H.3 SFRSYM    DATA     BIT       INT1
      00000098H.1 SFRSYM    DATA     BIT       TI
      000000A0H.3 SFRSYM    DATA     BIT       EEP_SCL
      000000E8H.3 SFRSYM    DATA     BIT       INT2
      000000E8H.2 SFRSYM    DATA     BIT       INT3
      000000C6H   SFRSYM    DATA     BYTE      ADCV
      0000008FH   SFRSYM    DATA     BYTE      STRETCH
      000000B8H.1 SFRSYM    DATA     BIT       PT0L
      000000B8H.3 SFRSYM    DATA     BIT       PT1L
      000000CBH   SFRSYM    DATA     BYTE      RCAP2H
      000000A0H.2 SFRSYM    DATA     BIT       RTC_SDA
      000000B8H.4 SFRSYM    DATA     BIT       PS
      000000B8H.5 SFRSYM    DATA     BIT       PT2L
      00000081H   SFRSYM    DATA     BYTE      SP
      00000090H.1 SFRSYM    DATA     BIT       T2EX
      000000D9H   SFRSYM    DATA     BYTE      CMOD
      000000D8H   SFRSYM    DATA     BYTE      CCON
      0000009AH   SFRSYM    DATA     BYTE      SCFG
      000000B8H   SFRSYM    DATA     BIT       PX0L
      000000D0H.2 SFRSYM    DATA     BIT       OV
      000000B8H.2 SFRSYM    DATA     BIT       PX1L
      000000CAH   SFRSYM    DATA     BYTE      RCAP2L
      000000B8H.6 SFRSYM    DATA     BIT       PX2L
      00000090H.7 SFRSYM    DATA     BIT       SPI_CLK
      000000B8H.7 SFRSYM    DATA     BIT       PX3L
      000000E6H   SFRSYM    DATA     BYTE      SCMD
      000000B0H.6 SFRSYM    DATA     BIT       WR
      000000C8H.1 SFRSYM    DATA     BIT       C_T2
      00000084H   SFRSYM    DATA     BYTE      SPISTAT
      00000090H.6 SFRSYM    DATA     BIT       RTC_SCL
      000000C8H.5 SFRSYM    DATA     BIT       RCLK
      000000C8H.4 SFRSYM    DATA     BIT       TCLK
      00000080H   SFRSYM    DATA     BIT       P00
      000000E3H   SFRSYM    DATA     BYTE      IFADRH
      00000090H   SFRSYM    DATA     BIT       P10
      00000080H.1 SFRSYM    DATA     BIT       P01
      000000E5H   SFRSYM    DATA     BYTE      IFMT
LX51 LINKER/LOCATER V4.47a                                                            12/31/2014  11:09:05  PAGE 21


      00000087H   SFRSYM    DATA     BYTE      PCON
      00000099H   SFRSYM    DATA     BYTE      SBUF
      000000A0H   SFRSYM    DATA     BIT       P20
      00000090H.1 SFRSYM    DATA     BIT       P11
      00000080H.2 SFRSYM    DATA     BIT       P02
      000000B0H   SFRSYM    DATA     BIT       P30
      000000A0H.1 SFRSYM    DATA     BIT       P21
      00000090H.2 SFRSYM    DATA     BIT       P12
      00000080H.3 SFRSYM    DATA     BIT       P03
      000000B0H.2 SFRSYM    DATA     BIT       FUNCTION_KEY
      000000E8H   SFRSYM    DATA     BIT       P40
      000000B0H.1 SFRSYM    DATA     BIT       P31
      000000A0H.2 SFRSYM    DATA     BIT       P22
      00000090H.3 SFRSYM    DATA     BIT       P13
      00000080H.4 SFRSYM    DATA     BIT       P04
      000000E4H   SFRSYM    DATA     BYTE      IFADRL
      00000098H   SFRSYM    DATA     BYTE      SCON
      000000F8H   SFRSYM    DATA     BIT       P50
      000000E8H.1 SFRSYM    DATA     BIT       P41
      000000B0H.2 SFRSYM    DATA     BIT       P32
      000000A0H.3 SFRSYM    DATA     BIT       P23
      00000090H.4 SFRSYM    DATA     BIT       P14
      00000080H.5 SFRSYM    DATA     BIT       P05
      00000089H   SFRSYM    DATA     BYTE      TMOD
      00000088H   SFRSYM    DATA     BYTE      TCON
      000000C8H   SFRSYM    DATA     BIT       P60
      000000F8H.1 SFRSYM    DATA     BIT       P51
      000000E8H.2 SFRSYM    DATA     BIT       P42
      000000B0H.3 SFRSYM    DATA     BIT       P33
      000000A0H.4 SFRSYM    DATA     BIT       P24
      00000090H.5 SFRSYM    DATA     BIT       P15
      00000080H.6 SFRSYM    DATA     BIT       P06
      000000C8H.1 SFRSYM    DATA     BIT       P61
      000000F8H.2 SFRSYM    DATA     BIT       P52
      000000E8H.3 SFRSYM    DATA     BIT       P43
      000000B0H.4 SFRSYM    DATA     BIT       P34
      000000A0H.5 SFRSYM    DATA     BIT       P25
      00000090H.6 SFRSYM    DATA     BIT       P16
      00000080H.7 SFRSYM    DATA     BIT       P07
      000000F8H.3 SFRSYM    DATA     BIT       P53
      000000E8H.4 SFRSYM    DATA     BIT       P44
      000000B0H.5 SFRSYM    DATA     BIT       P35
      000000A0H.6 SFRSYM    DATA     BIT       P26
      00000090H.7 SFRSYM    DATA     BIT       P17
      000000A0H   SFRSYM    DATA     BIT       Value_SDA
      000000E8H.5 SFRSYM    DATA     BIT       P45
      000000B0H.6 SFRSYM    DATA     BIT       P36
      000000A0H.7 SFRSYM    DATA     BIT       P27
      00000080H   SFRSYM    DATA     BIT       TC_C
      000000E8H.6 SFRSYM    DATA     BIT       P46
      000000B0H.7 SFRSYM    DATA     BIT       P37
      000000E8H.7 SFRSYM    DATA     BIT       P47
      000000D7H   SFRSYM    DATA     BYTE      KBMASK
      000000A0H.4 SFRSYM    DATA     BIT       OUT_SCL
      000000A0H   SFRSYM    DATA     BIT       AD_SDA
      00000088H.1 SFRSYM    DATA     BIT       IE0
      00000088H.3 SFRSYM    DATA     BIT       IE1
      00000090H   SFRSYM    DATA     BIT       LED1_SDA
      000000C0H.1 SFRSYM    DATA     BIT       IE2
      00000090H.3 SFRSYM    DATA     BIT       LED2_SDA
      000000C0H.5 SFRSYM    DATA     BIT       IE3
      000000A8H.6 SFRSYM    DATA     BIT       GF4
      0000008EH   SFRSYM    DATA     BYTE      AUXR
      000000F0H   SFRSYM    DATA     BYTE      B
      000000D5H   SFRSYM    DATA     BYTE      KBPATN
LX51 LINKER/LOCATER V4.47a                                                            12/31/2014  11:09:05  PAGE 22


      000000A0H.1 SFRSYM    DATA     BIT       Value_SCL
      000000C8H   SFRSYM    DATA     BIT       CP_RL2
      000000A0H.6 SFRSYM    DATA     BIT       NONE_4
      000000A0H.7 SFRSYM    DATA     BIT       NONE_5
      000000B0H.6 SFRSYM    DATA     BIT       NONE_6
      00000086H   SFRSYM    DATA     BYTE      SPIDAT
      000000E0H   SFRSYM    DATA     BYTE      ACC
      000000B0H.7 SFRSYM    DATA     BIT       NONE_7
      000000A0H.1 SFRSYM    DATA     BIT       AD_SCL
      000000A8H.4 SFRSYM    DATA     BIT       ES0
      000000A8H.1 SFRSYM    DATA     BIT       ET0
      00000090H.2 SFRSYM    DATA     BIT       LED1_SCL
      00000088H.5 SFRSYM    DATA     BIT       TF0
      000000A8H.3 SFRSYM    DATA     BIT       ET1
      00000090H.4 SFRSYM    DATA     BIT       LED2_SCL
      00000088H.7 SFRSYM    DATA     BIT       TF1
      00000098H   SFRSYM    DATA     BIT       RI0
      000000A8H.5 SFRSYM    DATA     BIT       ET2
      000000C8H.7 SFRSYM    DATA     BIT       TF2
      00000098H   SFRSYM    DATA     BIT       RI1
      00000098H.2 SFRSYM    DATA     BIT       RB8
      0000008CH   SFRSYM    DATA     BYTE      TH0
      00000088H   SFRSYM    DATA     BIT       IT0
      00000098H.1 SFRSYM    DATA     BIT       TI0
      000000A8H   SFRSYM    DATA     BIT       EX0
      0000008DH   SFRSYM    DATA     BYTE      TH1
      00000088H.2 SFRSYM    DATA     BIT       IT1
      00000098H.1 SFRSYM    DATA     BIT       TI1
      00000098H.3 SFRSYM    DATA     BIT       TB8
      000000A8H.2 SFRSYM    DATA     BIT       EX1
      00000085H   SFRSYM    DATA     BYTE      SPICON
      000000CDH   SFRSYM    DATA     BYTE      TH2
      000000C0H   SFRSYM    DATA     BIT       IT2
      000000C0H.2 SFRSYM    DATA     BIT       EX2
      000000D0H   SFRSYM    DATA     BIT       P
      000000C0H.4 SFRSYM    DATA     BIT       IT3
      000000C0H.6 SFRSYM    DATA     BIT       EX3
      00000098H.7 SFRSYM    DATA     BIT       SM0
      0000008AH   SFRSYM    DATA     BYTE      TL0
      00000080H.3 SFRSYM    DATA     BIT       mA_C
      000000C8H   SFRSYM    DATA     BIT       XOUT
      00000090H.1 SFRSYM    DATA     BIT       ECI
      00000098H.6 SFRSYM    DATA     BIT       SM1
      00000085H   SFRSYM    DATA     BYTE      SPICTL
      0000008BH   SFRSYM    DATA     BYTE      TL1
      000000AFH   SFRSYM    DATA     BYTE      AUXIPH
      000000E8H.6 SFRSYM    DATA     BIT       ALE
      00000098H.5 SFRSYM    DATA     BIT       SM2
      000000CCH   SFRSYM    DATA     BYTE      TL2
      000000E2H   SFRSYM    DATA     BYTE      IFD
      000000B8H.1 SFRSYM    DATA     BIT       PT0
      000000B0H.5 SFRSYM    DATA     BIT       R485_DE_RE
      000000B8H.3 SFRSYM    DATA     BIT       PT1
      000000D0H.3 SFRSYM    DATA     BIT       RS0
      00000088H.4 SFRSYM    DATA     BIT       TR0
      000000B8H.5 SFRSYM    DATA     BIT       PT2
      000000D0H.4 SFRSYM    DATA     BIT       RS1
      00000088H.6 SFRSYM    DATA     BIT       TR1
      000000C8H.2 SFRSYM    DATA     BIT       TR2
      000000B8H   SFRSYM    DATA     BIT       PX0
      000000AFH   SFRSYM    DATA     BYTE      EIP1H
      000000B8H.2 SFRSYM    DATA     BIT       PX1
      000000C0H.3 SFRSYM    DATA     BIT       PX2
      000000C0H.7 SFRSYM    DATA     BIT       PX3
      000000AEH   SFRSYM    DATA     BYTE      EIP1L
LX51 LINKER/LOCATER V4.47a                                                            12/31/2014  11:09:05  PAGE 23


      00000083H   SFRSYM    DATA     BYTE      DPH
      000000C8H   SFRSYM    DATA     BIT       CKO
      00000082H   SFRSYM    DATA     BYTE      DPL
      00000087H   SFRSYM    DATA     BYTE      PCON0
      00000084H   SFRSYM    DATA     BYTE      SPSTAT
      00000099H   SFRSYM    DATA     BYTE      SBUF0
      000000B7H   SFRSYM    DATA     BYTE      IPH
      000000B0H.4 SFRSYM    DATA     BIT       T0CKO
      00000097H   SFRSYM    DATA     BYTE      PCON1
      00000099H   SFRSYM    DATA     BYTE      SBUF1
      000000B0H.5 SFRSYM    DATA     BIT       T1CKO
      000000C8H.3 SFRSYM    DATA     BIT       EXEN2
      000000C7H   SFRSYM    DATA     BYTE      PCON2
      0000009AH   SFRSYM    DATA     BYTE      S2BUF
      000000A0H.5 SFRSYM    DATA     BIT       NONE3
      00000090H.7 SFRSYM    DATA     BIT       none2
      00000098H   SFRSYM    DATA     BYTE      SCON0
      00000098H.4 SFRSYM    DATA     BIT       REN
      00000098H   SFRSYM    DATA     BYTE      SCON1
      00000080H.2 SFRSYM    DATA     BIT       mV_C
      000000C5H   SFRSYM    DATA     BYTE      ADCON
      000000A0H.2 SFRSYM    DATA     BIT       mA_SDA
      000000C9H   SFRSYM    DATA     BYTE      T2MOD
      000000C8H   SFRSYM    DATA     BYTE      T2CON
      000000C5H   SFRSYM    DATA     BYTE      ADCTL
      000000BEH   SFRSYM    DATA     BYTE      ADCVL
      000000B9H   SFRSYM    DATA     BYTE      SADEN
      0000009AH   SFRSYM    DATA     BYTE      S1BRT
      000000B0H   SFRSYM    DATA     BIT       RXD
      000000D6H   SFRSYM    DATA     BYTE      KBCON
      00000080H.6 SFRSYM    DATA     BIT       UP_KEY
      000000C8H.1 SFRSYM    DATA     BIT       XIN
      000000B8H.4 SFRSYM    DATA     BIT       PSL
      000000A9H   SFRSYM    DATA     BYTE      SADDR
      000000B0H.1 SFRSYM    DATA     BIT       TXD
      000000A0H.4 SFRSYM    DATA     BIT       mA_SCL
      0000008EH   SFRSYM    DATA     BYTE      AUXR0
      000000A2H   SFRSYM    DATA     BYTE      AUXR1
      00000090H.4 SFRSYM    DATA     BIT       SPI_SS
      000000A6H   SFRSYM    DATA     BYTE      AUXR2
      00000090H.2 SFRSYM    DATA     BIT       S2RXD
      000000D0H.5 SFRSYM    DATA     BIT       F0
      000000B0H.4 SFRSYM    DATA     BIT       BEEP_OUT
      00000090H.3 SFRSYM    DATA     BIT       S2TXD
      000000D0H.1 SFRSYM    DATA     BIT       F1
      00000090H.1 SFRSYM    DATA     BIT       LED1_LE
      00000090H.5 SFRSYM    DATA     BIT       LED2_LE
      000000F2H   SFRSYM    DATA     BYTE      PCAPWM0
      000000D0H   SFRSYM    DATA     BYTE      PSW
      000000F3H   SFRSYM    DATA     BYTE      PCAPWM1
      000000A0H.2 SFRSYM    DATA     BIT       mV_SDA
      000000D8H   SFRSYM    DATA     BIT       CCF0
      00000098H.2 SFRSYM    DATA     BIT       RB80
      000000F4H   SFRSYM    DATA     BYTE      PCAPWM2
      000000D8H.1 SFRSYM    DATA     BIT       CCF1
      00000098H.2 SFRSYM    DATA     BIT       RB81
      000000F5H   SFRSYM    DATA     BYTE      PCAPWM3
      00000086H   SFRSYM    DATA     BYTE      SPDAT
      00000093H   SFRSYM    DATA     BYTE      P0M0
      000000ADH   SFRSYM    DATA     BYTE      AUXIE

      010054B5H   BLOCK     CODE     ---       LVL=0
      010054B5H   LINE      CODE     ---       #174
      010054B5H   LINE      CODE     ---       #175
      010054B5H   LINE      CODE     ---       #176
LX51 LINKER/LOCATER V4.47a                                                            12/31/2014  11:09:05  PAGE 24


      010054B8H   LINE      CODE     ---       #177
      010054BBH   LINE      CODE     ---       #178
      010054BEH   LINE      CODE     ---       #180
      010054C0H   LINE      CODE     ---       #181
      010054C3H   LINE      CODE     ---       #182
      010054C5H   LINE      CODE     ---       #184
      010054C8H   LINE      CODE     ---       #185
      010054CBH   LINE      CODE     ---       #186
      010054CDH   LINE      CODE     ---       #188
      010054D0H   LINE      CODE     ---       #189
      010054D3H   LINE      CODE     ---       #190
      010054D6H   LINE      CODE     ---       #191
      ---         BLOCKEND  ---      ---       LVL=0

      01000006H   BLOCK     CODE     ---       LVL=0
      01000006H   LINE      CODE     ---       #195
      01000006H   LINE      CODE     ---       #197
      ---         BLOCKEND  ---      ---       LVL=0

      01005410H   BLOCK     CODE     ---       LVL=0
      0100541BH   BLOCK     CODE     NEAR LAB  LVL=1
      0000005CH   SYMBOL    DATA     WORD      Value_code
      ---         BLOCKEND  ---      ---       LVL=1
      01005410H   LINE      CODE     ---       #201
      0100541BH   LINE      CODE     ---       #204
      0100541DH   LINE      CODE     ---       #205
      01005420H   LINE      CODE     ---       #206
      01005425H   LINE      CODE     ---       #207
      0100542BH   LINE      CODE     ---       #208
      0100542EH   LINE      CODE     ---       #209
      01005431H   LINE      CODE     ---       #210
      01005433H   LINE      CODE     ---       #211
      ---         BLOCKEND  ---      ---       LVL=0

      01005102H   BLOCK     CODE     ---       LVL=0
      01005102H   LINE      CODE     ---       #216
      0100510DH   LINE      CODE     ---       #218
      0100510FH   LINE      CODE     ---       #219
      01005112H   LINE      CODE     ---       #221
      01005118H   LINE      CODE     ---       #222
      0100511EH   LINE      CODE     ---       #223
      01005126H   LINE      CODE     ---       #224
      01005126H   LINE      CODE     ---       #226
      0100512CH   LINE      CODE     ---       #227
      0100512EH   LINE      CODE     ---       #228
      0100512EH   LINE      CODE     ---       #229
      01005133H   LINE      CODE     ---       #230
      01005133H   LINE      CODE     ---       #231
      01005136H   LINE      CODE     ---       #232
      0100513CH   LINE      CODE     ---       #233
      01005142H   LINE      CODE     ---       #234
      01005148H   LINE      CODE     ---       #235
      0100514EH   LINE      CODE     ---       #236
      0100514EH   LINE      CODE     ---       #237
      01005151H   LINE      CODE     ---       #238
      01005154H   LINE      CODE     ---       #239
      01005156H   LINE      CODE     ---       #240
      ---         BLOCKEND  ---      ---       LVL=0

      010056A9H   BLOCK     CODE     ---       LVL=0
      010056A9H   LINE      CODE     ---       #242
      010056A9H   LINE      CODE     ---       #243
      010056A9H   LINE      CODE     ---       #244
      010056ABH   LINE      CODE     ---       #245
      010056AEH   LINE      CODE     ---       #246
LX51 LINKER/LOCATER V4.47a                                                            12/31/2014  11:09:05  PAGE 25


      010056B1H   LINE      CODE     ---       #247
      010056B4H   LINE      CODE     ---       #248
      010056B8H   LINE      CODE     ---       #249
      ---         BLOCKEND  ---      ---       LVL=0

      010056B9H   BLOCK     CODE     ---       LVL=0
      010056B9H   LINE      CODE     ---       #253
      010056B9H   LINE      CODE     ---       #254
      010056B9H   LINE      CODE     ---       #255
      010056BBH   LINE      CODE     ---       #256
      010056BEH   LINE      CODE     ---       #257
      010056C1H   LINE      CODE     ---       #258
      010056C4H   LINE      CODE     ---       #259
      010056C8H   LINE      CODE     ---       #260
      ---         BLOCKEND  ---      ---       LVL=0

      010055C8H   BLOCK     CODE     ---       LVL=0
      010055C8H   LINE      CODE     ---       #284
      010055C8H   LINE      CODE     ---       #285
      010055C8H   LINE      CODE     ---       #286
      010055CBH   LINE      CODE     ---       #287
      010055CEH   LINE      CODE     ---       #288
      010055D1H   LINE      CODE     ---       #289
      010055D4H   LINE      CODE     ---       #290
      010055D7H   LINE      CODE     ---       #291
      010055DAH   LINE      CODE     ---       #292
      010055DDH   LINE      CODE     ---       #293
      010055DFH   LINE      CODE     ---       #294
      010055E1H   LINE      CODE     ---       #295
      ---         BLOCKEND  ---      ---       LVL=0

      010056C9H   BLOCK     CODE     ---       LVL=0
      010056C9H   LINE      CODE     ---       #297
      010056C9H   LINE      CODE     ---       #299
      010056CCH   LINE      CODE     ---       #300
      010056CCH   LINE      CODE     ---       #301
      010056CEH   LINE      CODE     ---       #302
      010056CEH   LINE      CODE     ---       #303
      010056D1H   LINE      CODE     ---       #304
      010056D1H   LINE      CODE     ---       #305
      010056D3H   LINE      CODE     ---       #306
      010056D6H   LINE      CODE     ---       #307
      010056D8H   LINE      CODE     ---       #308
      010056D8H   LINE      CODE     ---       #309
      ---         BLOCKEND  ---      ---       LVL=0

      010055ADH   BLOCK     CODE     VOID      LVL=0
      ---         BLOCKEND  ---      ---       LVL=0

      010055B1H   BLOCK     CODE     ---       LVL=0
      00000006H   SYMBOL    DATA     WORD      i
      00000005H   SYMBOL    DATA     BYTE      j
      010055B1H   BLOCK     CODE     NEAR LAB  LVL=1
      00000005H   SYMBOL    DATA     BYTE      j
      ---         BLOCKEND  ---      ---       LVL=1
      010055B1H   LINE      CODE     ---       #324
      010055B1H   LINE      CODE     ---       #325
      010055B1H   LINE      CODE     ---       #327
      010055BAH   LINE      CODE     ---       #328
      010055C7H   LINE      CODE     ---       #329
      ---         BLOCKEND  ---      ---       LVL=0

      0100563FH   BLOCK     CODE     ---       LVL=0
      00000007H   SYMBOL    DATA     BYTE      status
      0100563FH   LINE      CODE     ---       #333
LX51 LINKER/LOCATER V4.47a                                                            12/31/2014  11:09:05  PAGE 26


      0100563FH   LINE      CODE     ---       #334
      0100563FH   LINE      CODE     ---       #335
      01005644H   LINE      CODE     ---       #336
      01005649H   LINE      CODE     ---       #338
      01005650H   LINE      CODE     ---       #339
      ---         BLOCKEND  ---      ---       LVL=0

      01004FA3H   BLOCK     CODE     ---       LVL=0
      01004FA3H   LINE      CODE     ---       #343
      01004FA3H   LINE      CODE     ---       #344
      01004FA3H   LINE      CODE     ---       #345
      01004FA6H   LINE      CODE     ---       #346
      01004FA6H   LINE      CODE     ---       #347
      01004FA9H   LINE      CODE     ---       #348
      01004FABH   LINE      CODE     ---       #349
      01004FAEH   LINE      CODE     ---       #350
      01004FB1H   LINE      CODE     ---       #351
      01004FB4H   LINE      CODE     ---       #352
      01004FB7H   LINE      CODE     ---       #353
      01004FBAH   LINE      CODE     ---       #354
      01004FC0H   LINE      CODE     ---       #355
      01004FC2H   LINE      CODE     ---       #356
      01004FC5H   LINE      CODE     ---       #357
      01004FC5H   LINE      CODE     ---       #358
      01004FC8H   LINE      CODE     ---       #359
      01004FCBH   LINE      CODE     ---       #360
      01004FCEH   LINE      CODE     ---       #361
      01004FD1H   LINE      CODE     ---       #362
      01004FD4H   LINE      CODE     ---       #363
      01004FD7H   LINE      CODE     ---       #364
      01004FDAH   LINE      CODE     ---       #365
      01004FE0H   LINE      CODE     ---       #366
      01004FE2H   LINE      CODE     ---       #367
      01004FE5H   LINE      CODE     ---       #368
      01004FE5H   LINE      CODE     ---       #369
      01004FE8H   LINE      CODE     ---       #370
      01004FEBH   LINE      CODE     ---       #371
      01004FEEH   LINE      CODE     ---       #372
      01004FF1H   LINE      CODE     ---       #373
      01004FF4H   LINE      CODE     ---       #374
      01004FF7H   LINE      CODE     ---       #375
      01004FFAH   LINE      CODE     ---       #376
      01005000H   LINE      CODE     ---       #377
      01005002H   LINE      CODE     ---       #378
      01005005H   LINE      CODE     ---       #379
      01005005H   LINE      CODE     ---       #380
      01005008H   LINE      CODE     ---       #381
      0100500BH   LINE      CODE     ---       #382
      0100500EH   LINE      CODE     ---       #383
      01005011H   LINE      CODE     ---       #384
      01005014H   LINE      CODE     ---       #385
      01005017H   LINE      CODE     ---       #386
      0100501AH   LINE      CODE     ---       #387
      01005022H   LINE      CODE     ---       #388
      01005022H   LINE      CODE     ---       #389
      ---         BLOCKEND  ---      ---       LVL=0

      01004CFCH   BLOCK     CODE     ---       LVL=0
      00000062H   SYMBOL    DATA     WORD      tc_tmp
      01004D00H   BLOCK     CODE     NEAR LAB  LVL=1
      00000064H   SYMBOL    DATA     WORD      ttmp
      ---         BLOCKEND  ---      ---       LVL=1
      01004CFCH   LINE      CODE     ---       #391
      01004D00H   LINE      CODE     ---       #392
      01004D00H   LINE      CODE     ---       #395
LX51 LINKER/LOCATER V4.47a                                                            12/31/2014  11:09:05  PAGE 27


      01004D04H   LINE      CODE     ---       #396
      01004D04H   LINE      CODE     ---       #397
      01004D0FH   LINE      CODE     ---       #398
      01004D0FH   LINE      CODE     ---       #399
      01004D13H   LINE      CODE     ---       #400
      01004D13H   LINE      CODE     ---       #401
      01004D1CH   LINE      CODE     ---       #402
      01004D1EH   LINE      CODE     ---       #404
      01004D1EH   LINE      CODE     ---       #405
      01004D27H   LINE      CODE     ---       #406
      01004D27H   LINE      CODE     ---       #407
      01004D29H   LINE      CODE     ---       #409
      01004D29H   LINE      CODE     ---       #410
      01004D2EH   LINE      CODE     ---       #411
      01004D2EH   LINE      CODE     ---       #412
      01004D37H   LINE      CODE     ---       #413
      01004D39H   LINE      CODE     ---       #415
      01004D39H   LINE      CODE     ---       #416
      01004D41H   LINE      CODE     ---       #417
      01004D41H   LINE      CODE     ---       #418
      01004D41H   LINE      CODE     ---       #419
      01004D41H   LINE      CODE     ---       #420
      01004D43H   LINE      CODE     ---       #422
      01004D43H   LINE      CODE     ---       #423
      01004D4EH   LINE      CODE     ---       #424
      01004D4EH   LINE      CODE     ---       #425
      01004D52H   LINE      CODE     ---       #426
      01004D52H   LINE      CODE     ---       #427
      01004D5BH   LINE      CODE     ---       #428
      01004D5DH   LINE      CODE     ---       #430
      01004D5DH   LINE      CODE     ---       #431
      01004D65H   LINE      CODE     ---       #432
      01004D65H   LINE      CODE     ---       #433
      01004D67H   LINE      CODE     ---       #435
      01004D67H   LINE      CODE     ---       #436
      01004D6CH   LINE      CODE     ---       #437
      01004D6CH   LINE      CODE     ---       #438
      01004D8BH   LINE      CODE     ---       #439
      01004D8DH   LINE      CODE     ---       #441
      01004D8DH   LINE      CODE     ---       #442
      01004DADH   LINE      CODE     ---       #443
      01004DB0H   LINE      CODE     ---       #444
      01004DB0H   LINE      CODE     ---       #445
      01004DB0H   LINE      CODE     ---       #447
      01004DB0H   LINE      CODE     ---       #448
      01004DB4H   LINE      CODE     ---       #449
      ---         BLOCKEND  ---      ---       LVL=0

      01005094H   BLOCK     CODE     ---       LVL=0
      01005094H   LINE      CODE     ---       #455
      01005094H   LINE      CODE     ---       #456
      01005094H   LINE      CODE     ---       #457
      010050A0H   LINE      CODE     ---       #458
      010050A0H   LINE      CODE     ---       #459
      010050A3H   LINE      CODE     ---       #460
      010050A5H   LINE      CODE     ---       #461
      010050A7H   LINE      CODE     ---       #462
      010050AAH   LINE      CODE     ---       #463
      010050AAH   LINE      CODE     ---       #464
      010050AEH   LINE      CODE     ---       #465
      010050AEH   LINE      CODE     ---       #466
      010050B1H   LINE      CODE     ---       #467
      010050B5H   LINE      CODE     ---       #468
      010050B7H   LINE      CODE     ---       #470
      010050B7H   LINE      CODE     ---       #471
LX51 LINKER/LOCATER V4.47a                                                            12/31/2014  11:09:05  PAGE 28


      010050BBH   LINE      CODE     ---       #472
      010050BBH   LINE      CODE     ---       #473
      010050BDH   LINE      CODE     ---       #474
      010050C0H   LINE      CODE     ---       #475
      010050C0H   LINE      CODE     ---       #476
      010050C4H   LINE      CODE     ---       #477
      010050C4H   LINE      CODE     ---       #478
      010050C8H   LINE      CODE     ---       #479
      010050C8H   LINE      CODE     ---       #480
      010050CAH   LINE      CODE     ---       #482
      010050CAH   LINE      CODE     ---       #483
      010050CEH   LINE      CODE     ---       #484
      010050CEH   LINE      CODE     ---       #485
      010050D0H   LINE      CODE     ---       #486
      010050D3H   LINE      CODE     ---       #487
      010050D3H   LINE      CODE     ---       #488
      010050D7H   LINE      CODE     ---       #489
      010050D7H   LINE      CODE     ---       #490
      010050DBH   LINE      CODE     ---       #491
      010050DBH   LINE      CODE     ---       #492
      010050DDH   LINE      CODE     ---       #494
      010050DDH   LINE      CODE     ---       #495
      010050E1H   LINE      CODE     ---       #496
      010050E1H   LINE      CODE     ---       #497
      010050E3H   LINE      CODE     ---       #498
      010050E6H   LINE      CODE     ---       #499
      010050E6H   LINE      CODE     ---       #500
      010050EAH   LINE      CODE     ---       #501
      010050EAH   LINE      CODE     ---       #502
      010050F2H   LINE      CODE     ---       #503
      010050F5H   LINE      CODE     ---       #504
      010050F7H   LINE      CODE     ---       #506
      010050F7H   LINE      CODE     ---       #507
      010050FFH   LINE      CODE     ---       #508
      010050FFH   LINE      CODE     ---       #509
      010050FFH   LINE      CODE     ---       #511
      01005101H   LINE      CODE     ---       #512
      ---         BLOCKEND  ---      ---       LVL=0

      01004486H   BLOCK     CODE     ---       LVL=0
      01004486H   BLOCK     CODE     NEAR LAB  LVL=1
      0000005EH   SYMBOL    DATA     WORD      Code_Value
      00000060H   SYMBOL    DATA     WORD      TC_Value
      00000007H   SYMBOL    DATA     BYTE      key
      ---         BLOCKEND  ---      ---       LVL=1
      01004486H   LINE      CODE     ---       #514
      01004486H   LINE      CODE     ---       #515
      01004486H   LINE      CODE     ---       #519
      01004489H   LINE      CODE     ---       #521
      0100448CH   LINE      CODE     ---       #522
      0100448CH   LINE      CODE     ---       #523
      0100448FH   LINE      CODE     ---       #524
      01004492H   LINE      CODE     ---       #526
      01004492H   LINE      CODE     ---       #527
      0100449AH   LINE      CODE     ---       #528
      0100449AH   LINE      CODE     ---       #529
      0100449CH   LINE      CODE     ---       #530
      010044A3H   LINE      CODE     ---       #532
      010044ADH   LINE      CODE     ---       #533
      010044ADH   LINE      CODE     ---       #534
      010044B8H   LINE      CODE     ---       #535
      010044B8H   LINE      CODE     ---       #536
      010044B8H   LINE      CODE     ---       #537
      010044BAH   LINE      CODE     ---       #539
      010044BAH   LINE      CODE     ---       #540
LX51 LINKER/LOCATER V4.47a                                                            12/31/2014  11:09:05  PAGE 29


      010044C7H   LINE      CODE     ---       #541
      010044CAH   LINE      CODE     ---       #542
      010044CAH   LINE      CODE     ---       #543
      010044CCH   LINE      CODE     ---       #544
      010044D5H   LINE      CODE     ---       #545
      010044D5H   LINE      CODE     ---       #546
      010044D5H   LINE      CODE     ---       #547
      010044D7H   LINE      CODE     ---       #548
      010044E0H   LINE      CODE     ---       #549
      010044E0H   LINE      CODE     ---       #550
      010044ECH   LINE      CODE     ---       #551
      010044EEH   LINE      CODE     ---       #552
      010044F6H   LINE      CODE     ---       #553
      010044F6H   LINE      CODE     ---       #554
      01004501H   LINE      CODE     ---       #555
      01004501H   LINE      CODE     ---       #556
      0100450DH   LINE      CODE     ---       #557
      0100450FH   LINE      CODE     ---       #559
      0100450FH   LINE      CODE     ---       #560
      0100451CH   LINE      CODE     ---       #561
      0100451FH   LINE      CODE     ---       #562
      0100451FH   LINE      CODE     ---       #563
      0100451FH   LINE      CODE     ---       #564
      0100452CH   LINE      CODE     ---       #565
      0100453CH   LINE      CODE     ---       #567
      01004549H   LINE      CODE     ---       #569
      01004554H   LINE      CODE     ---       #570
      01004558H   LINE      CODE     ---       #571
      01004558H   LINE      CODE     ---       #572
      01004563H   LINE      CODE     ---       #574
      01004567H   LINE      CODE     ---       #575
      01004569H   LINE      CODE     ---       #576
      0100456EH   LINE      CODE     ---       #577
      0100456EH   LINE      CODE     ---       #578
      01004579H   LINE      CODE     ---       #579
      0100457DH   LINE      CODE     ---       #580
      0100457FH   LINE      CODE     ---       #581
      01004584H   LINE      CODE     ---       #582
      01004584H   LINE      CODE     ---       #583
      0100458FH   LINE      CODE     ---       #584
      01004593H   LINE      CODE     ---       #585
      01004595H   LINE      CODE     ---       #586
      0100459AH   LINE      CODE     ---       #587
      0100459AH   LINE      CODE     ---       #588
      010045A5H   LINE      CODE     ---       #589
      010045A9H   LINE      CODE     ---       #590
      010045ABH   LINE      CODE     ---       #591
      010045B0H   LINE      CODE     ---       #592
      010045B0H   LINE      CODE     ---       #593
      010045B3H   LINE      CODE     ---       #594
      010045BEH   LINE      CODE     ---       #595
      010045C2H   LINE      CODE     ---       #596
      010045C4H   LINE      CODE     ---       #597
      010045C9H   LINE      CODE     ---       #598
      010045C9H   LINE      CODE     ---       #599
      010045CCH   LINE      CODE     ---       #600
      010045D7H   LINE      CODE     ---       #601
      010045E2H   LINE      CODE     ---       #602
      010045E2H   LINE      CODE     ---       #619
      010045E2H   LINE      CODE     ---       #620
      010045E7H   LINE      CODE     ---       #621
      010045E7H   LINE      CODE     ---       #622
      010045EAH   LINE      CODE     ---       #623
      010045EEH   LINE      CODE     ---       #624
      010045EEH   LINE      CODE     ---       #625
LX51 LINKER/LOCATER V4.47a                                                            12/31/2014  11:09:05  PAGE 30


      010045F3H   LINE      CODE     ---       #626
      010045F3H   LINE      CODE     ---       #627
      010045F5H   LINE      CODE     ---       #628
      010045FEH   LINE      CODE     ---       #630
      01004613H   LINE      CODE     ---       #631
      01004617H   LINE      CODE     ---       #633
      01004619H   LINE      CODE     ---       #634
      01004619H   LINE      CODE     ---       #639
      0100461EH   LINE      CODE     ---       #640
      0100461EH   LINE      CODE     ---       #641
      01004628H   LINE      CODE     ---       #642
      01004632H   LINE      CODE     ---       #643
      01004636H   LINE      CODE     ---       #644
      01004636H   LINE      CODE     ---       #645
      0100463BH   LINE      CODE     ---       #646
      0100463BH   LINE      CODE     ---       #647
      0100463EH   LINE      CODE     ---       #648
      0100463EH   LINE      CODE     ---       #649
      01004641H   LINE      CODE     ---       #650
      01004643H   LINE      CODE     ---       #651
      01004645H   LINE      CODE     ---       #652
      01004647H   LINE      CODE     ---       #654
      01004647H   LINE      CODE     ---       #655
      0100464BH   LINE      CODE     ---       #656
      0100464DH   LINE      CODE     ---       #657
      01004651H   LINE      CODE     ---       #658
      01004651H   LINE      CODE     ---       #659
      01004653H   LINE      CODE     ---       #660
      01004653H   LINE      CODE     ---       #661
      01004653H   LINE      CODE     ---       #662
      01004657H   LINE      CODE     ---       #663
      ---         BLOCKEND  ---      ---       LVL=0

      01004924H   BLOCK     CODE     ---       LVL=0
      01004924H   BLOCK     CODE     NEAR LAB  LVL=1
      0000005EH   SYMBOL    DATA     WORD      RTD_Value
      00000007H   SYMBOL    DATA     BYTE      key
      ---         BLOCKEND  ---      ---       LVL=1
      01004924H   LINE      CODE     ---       #672
      01004924H   LINE      CODE     ---       #673
      01004924H   LINE      CODE     ---       #677
      01004927H   LINE      CODE     ---       #679
      0100492AH   LINE      CODE     ---       #680
      0100492AH   LINE      CODE     ---       #681
      0100492DH   LINE      CODE     ---       #682
      01004930H   LINE      CODE     ---       #684
      01004930H   LINE      CODE     ---       #685
      01004938H   LINE      CODE     ---       #686
      01004938H   LINE      CODE     ---       #687
      0100493AH   LINE      CODE     ---       #689
      01004941H   LINE      CODE     ---       #691
      0100494BH   LINE      CODE     ---       #692
      0100494BH   LINE      CODE     ---       #693
      01004956H   LINE      CODE     ---       #694
      01004956H   LINE      CODE     ---       #695
      01004956H   LINE      CODE     ---       #696
      01004958H   LINE      CODE     ---       #698
      01004958H   LINE      CODE     ---       #699
      01004965H   LINE      CODE     ---       #700
      01004968H   LINE      CODE     ---       #701
      01004968H   LINE      CODE     ---       #702
      0100496AH   LINE      CODE     ---       #703
      01004973H   LINE      CODE     ---       #704
      01004973H   LINE      CODE     ---       #705
      01004973H   LINE      CODE     ---       #706
LX51 LINKER/LOCATER V4.47a                                                            12/31/2014  11:09:05  PAGE 31


      01004975H   LINE      CODE     ---       #707
      0100497EH   LINE      CODE     ---       #708
      0100497EH   LINE      CODE     ---       #709
      0100498AH   LINE      CODE     ---       #710
      0100498CH   LINE      CODE     ---       #711
      01004994H   LINE      CODE     ---       #712
      01004994H   LINE      CODE     ---       #713
      0100499FH   LINE      CODE     ---       #714
      0100499FH   LINE      CODE     ---       #715
      010049ABH   LINE      CODE     ---       #716
      010049ADH   LINE      CODE     ---       #718
      010049ADH   LINE      CODE     ---       #719
      010049BAH   LINE      CODE     ---       #720
      010049BDH   LINE      CODE     ---       #721
      010049BDH   LINE      CODE     ---       #722
      010049BDH   LINE      CODE     ---       #723
      010049D0H   LINE      CODE     ---       #724
      010049DFH   LINE      CODE     ---       #726
      010049EDH   LINE      CODE     ---       #730
      010049F8H   LINE      CODE     ---       #731
      01004A03H   LINE      CODE     ---       #733
      01004A0EH   LINE      CODE     ---       #734
      01004A0EH   LINE      CODE     ---       #735
      01004A13H   LINE      CODE     ---       #736
      01004A13H   LINE      CODE     ---       #737
      01004A1CH   LINE      CODE     ---       #738
      01004A20H   LINE      CODE     ---       #740
      01004A35H   LINE      CODE     ---       #741
      01004A39H   LINE      CODE     ---       #743
      01004A3BH   LINE      CODE     ---       #744
      01004A3BH   LINE      CODE     ---       #749
      01004A40H   LINE      CODE     ---       #750
      01004A40H   LINE      CODE     ---       #751
      01004A4AH   LINE      CODE     ---       #752
      01004A54H   LINE      CODE     ---       #754
      01004A58H   LINE      CODE     ---       #755
      01004A58H   LINE      CODE     ---       #756
      01004A5DH   LINE      CODE     ---       #757
      01004A5DH   LINE      CODE     ---       #758
      01004A60H   LINE      CODE     ---       #759
      01004A64H   LINE      CODE     ---       #760
      01004A64H   LINE      CODE     ---       #761
      01004A69H   LINE      CODE     ---       #762
      01004A69H   LINE      CODE     ---       #763
      01004A6CH   LINE      CODE     ---       #764
      01004A6CH   LINE      CODE     ---       #765
      01004A6FH   LINE      CODE     ---       #766
      01004A71H   LINE      CODE     ---       #767
      01004A73H   LINE      CODE     ---       #768
      01004A75H   LINE      CODE     ---       #770
      01004A75H   LINE      CODE     ---       #771
      01004A79H   LINE      CODE     ---       #772
      01004A7BH   LINE      CODE     ---       #773
      01004A7FH   LINE      CODE     ---       #774
      01004A7FH   LINE      CODE     ---       #775
      01004A81H   LINE      CODE     ---       #776
      01004A81H   LINE      CODE     ---       #777
      01004A81H   LINE      CODE     ---       #778
      01004A85H   LINE      CODE     ---       #779
      ---         BLOCKEND  ---      ---       LVL=0

      01004658H   BLOCK     CODE     ---       LVL=0
      01004658H   BLOCK     CODE     NEAR LAB  LVL=1
      0000005EH   SYMBOL    DATA     WORD      mV_Value
      00000007H   SYMBOL    DATA     BYTE      key
LX51 LINKER/LOCATER V4.47a                                                            12/31/2014  11:09:05  PAGE 32


      ---         BLOCKEND  ---      ---       LVL=1
      01004658H   LINE      CODE     ---       #783
      01004658H   LINE      CODE     ---       #784
      01004658H   LINE      CODE     ---       #788
      0100465BH   LINE      CODE     ---       #790
      0100465EH   LINE      CODE     ---       #791
      0100465EH   LINE      CODE     ---       #792
      01004661H   LINE      CODE     ---       #793
      01004664H   LINE      CODE     ---       #795
      01004664H   LINE      CODE     ---       #796
      0100466CH   LINE      CODE     ---       #797
      0100466CH   LINE      CODE     ---       #798
      0100466EH   LINE      CODE     ---       #800
      01004675H   LINE      CODE     ---       #803
      0100467FH   LINE      CODE     ---       #804
      0100467FH   LINE      CODE     ---       #805
      0100468AH   LINE      CODE     ---       #806
      0100468AH   LINE      CODE     ---       #807
      0100468AH   LINE      CODE     ---       #808
      0100468CH   LINE      CODE     ---       #810
      0100468CH   LINE      CODE     ---       #811
      01004699H   LINE      CODE     ---       #812
      0100469CH   LINE      CODE     ---       #813
      0100469CH   LINE      CODE     ---       #814
      0100469EH   LINE      CODE     ---       #815
      010046A7H   LINE      CODE     ---       #816
      010046A7H   LINE      CODE     ---       #817
      010046A7H   LINE      CODE     ---       #818
      010046A9H   LINE      CODE     ---       #819
      010046B2H   LINE      CODE     ---       #820
      010046B2H   LINE      CODE     ---       #821
      010046BEH   LINE      CODE     ---       #822
      010046C0H   LINE      CODE     ---       #823
      010046C8H   LINE      CODE     ---       #824
      010046C8H   LINE      CODE     ---       #825
      010046D3H   LINE      CODE     ---       #826
      010046D3H   LINE      CODE     ---       #827
      010046DFH   LINE      CODE     ---       #828
      010046E1H   LINE      CODE     ---       #830
      010046E1H   LINE      CODE     ---       #831
      010046EEH   LINE      CODE     ---       #832
      010046F1H   LINE      CODE     ---       #833
      010046F1H   LINE      CODE     ---       #834
      010046F1H   LINE      CODE     ---       #835
      01004704H   LINE      CODE     ---       #836
      01004713H   LINE      CODE     ---       #838
      01004721H   LINE      CODE     ---       #843
      0100473BH   LINE      CODE     ---       #845
      01004746H   LINE      CODE     ---       #846
      01004746H   LINE      CODE     ---       #847
      0100474BH   LINE      CODE     ---       #848
      0100474BH   LINE      CODE     ---       #849
      01004754H   LINE      CODE     ---       #850
      01004758H   LINE      CODE     ---       #852
      0100476DH   LINE      CODE     ---       #853
      01004771H   LINE      CODE     ---       #855
      01004773H   LINE      CODE     ---       #856
      01004773H   LINE      CODE     ---       #857
      01004778H   LINE      CODE     ---       #858
      01004778H   LINE      CODE     ---       #859
      01004782H   LINE      CODE     ---       #860
      0100478CH   LINE      CODE     ---       #862
      01004790H   LINE      CODE     ---       #863
      01004790H   LINE      CODE     ---       #864
      01004795H   LINE      CODE     ---       #865
LX51 LINKER/LOCATER V4.47a                                                            12/31/2014  11:09:05  PAGE 33


      01004795H   LINE      CODE     ---       #866
      01004798H   LINE      CODE     ---       #867
      0100479CH   LINE      CODE     ---       #868
      0100479CH   LINE      CODE     ---       #869
      010047A1H   LINE      CODE     ---       #870
      010047A1H   LINE      CODE     ---       #871
      010047A4H   LINE      CODE     ---       #872
      010047A4H   LINE      CODE     ---       #873
      010047A7H   LINE      CODE     ---       #874
      010047A9H   LINE      CODE     ---       #875
      010047ABH   LINE      CODE     ---       #876
      010047ADH   LINE      CODE     ---       #878
      010047ADH   LINE      CODE     ---       #879
      010047B1H   LINE      CODE     ---       #880
      010047B3H   LINE      CODE     ---       #881
      010047B7H   LINE      CODE     ---       #882
      010047B7H   LINE      CODE     ---       #883
      010047B9H   LINE      CODE     ---       #884
      010047B9H   LINE      CODE     ---       #885
      010047B9H   LINE      CODE     ---       #886
      010047BDH   LINE      CODE     ---       #887
      ---         BLOCKEND  ---      ---       LVL=0

      010047BEH   BLOCK     CODE     ---       LVL=0
      010047BEH   BLOCK     CODE     NEAR LAB  LVL=1
      0000005EH   SYMBOL    DATA     WORD      mA_Value
      00000007H   SYMBOL    DATA     BYTE      key
      ---         BLOCKEND  ---      ---       LVL=1
      010047BEH   LINE      CODE     ---       #891
      010047BEH   LINE      CODE     ---       #892
      010047BEH   LINE      CODE     ---       #896
      010047C1H   LINE      CODE     ---       #898
      010047C4H   LINE      CODE     ---       #899
      010047C4H   LINE      CODE     ---       #900
      010047C7H   LINE      CODE     ---       #901
      010047CAH   LINE      CODE     ---       #903
      010047CAH   LINE      CODE     ---       #904
      010047D2H   LINE      CODE     ---       #905
      010047D2H   LINE      CODE     ---       #906
      010047D4H   LINE      CODE     ---       #908
      010047DBH   LINE      CODE     ---       #910
      010047E5H   LINE      CODE     ---       #911
      010047E5H   LINE      CODE     ---       #912
      010047F0H   LINE      CODE     ---       #913
      010047F0H   LINE      CODE     ---       #914
      010047F0H   LINE      CODE     ---       #915
      010047F2H   LINE      CODE     ---       #917
      010047F2H   LINE      CODE     ---       #918
      010047FFH   LINE      CODE     ---       #919
      01004802H   LINE      CODE     ---       #920
      01004802H   LINE      CODE     ---       #921
      01004804H   LINE      CODE     ---       #922
      0100480DH   LINE      CODE     ---       #923
      0100480DH   LINE      CODE     ---       #924
      0100480DH   LINE      CODE     ---       #925
      0100480FH   LINE      CODE     ---       #926
      01004818H   LINE      CODE     ---       #927
      01004818H   LINE      CODE     ---       #928
      01004824H   LINE      CODE     ---       #929
      01004826H   LINE      CODE     ---       #930
      0100482EH   LINE      CODE     ---       #931
      0100482EH   LINE      CODE     ---       #932
      01004839H   LINE      CODE     ---       #933
      01004839H   LINE      CODE     ---       #934
      01004845H   LINE      CODE     ---       #935
LX51 LINKER/LOCATER V4.47a                                                            12/31/2014  11:09:05  PAGE 34


      01004847H   LINE      CODE     ---       #937
      01004847H   LINE      CODE     ---       #938
      01004854H   LINE      CODE     ---       #939
      01004857H   LINE      CODE     ---       #940
      01004857H   LINE      CODE     ---       #941
      01004857H   LINE      CODE     ---       #942
      0100486AH   LINE      CODE     ---       #943
      01004879H   LINE      CODE     ---       #945
      01004887H   LINE      CODE     ---       #947
      010048A1H   LINE      CODE     ---       #949
      010048ACH   LINE      CODE     ---       #950
      010048ACH   LINE      CODE     ---       #951
      010048B1H   LINE      CODE     ---       #952
      010048B1H   LINE      CODE     ---       #953
      010048BAH   LINE      CODE     ---       #954
      010048BEH   LINE      CODE     ---       #956
      010048D3H   LINE      CODE     ---       #957
      010048D7H   LINE      CODE     ---       #959
      010048D9H   LINE      CODE     ---       #960
      010048D9H   LINE      CODE     ---       #961
      010048DEH   LINE      CODE     ---       #962
      010048DEH   LINE      CODE     ---       #963
      010048E8H   LINE      CODE     ---       #964
      010048F2H   LINE      CODE     ---       #966
      010048F6H   LINE      CODE     ---       #967
      010048F6H   LINE      CODE     ---       #968
      010048FBH   LINE      CODE     ---       #969
      010048FBH   LINE      CODE     ---       #970
      010048FEH   LINE      CODE     ---       #971
      01004902H   LINE      CODE     ---       #972
      01004902H   LINE      CODE     ---       #973
      01004907H   LINE      CODE     ---       #974
      01004907H   LINE      CODE     ---       #975
      0100490AH   LINE      CODE     ---       #976
      0100490AH   LINE      CODE     ---       #977
      0100490DH   LINE      CODE     ---       #978
      0100490FH   LINE      CODE     ---       #979
      01004911H   LINE      CODE     ---       #980
      01004913H   LINE      CODE     ---       #982
      01004913H   LINE      CODE     ---       #983
      01004917H   LINE      CODE     ---       #984
      01004919H   LINE      CODE     ---       #985
      0100491DH   LINE      CODE     ---       #986
      0100491DH   LINE      CODE     ---       #987
      0100491FH   LINE      CODE     ---       #988
      0100491FH   LINE      CODE     ---       #989
      0100491FH   LINE      CODE     ---       #990
      01004923H   LINE      CODE     ---       #991
      ---         BLOCKEND  ---      ---       LVL=0

      01004E6BH   BLOCK     CODE     ---       LVL=0
      01004E6BH   BLOCK     CODE     NEAR LAB  LVL=1
      00000069H   SYMBOL    DATA     WORD      AD3421_Value
      00000007H   SYMBOL    DATA     BYTE      ssta
      ---         BLOCKEND  ---      ---       LVL=1
      01004E6BH   LINE      CODE     ---       #993
      01004E6BH   LINE      CODE     ---       #994
      01004E6BH   LINE      CODE     ---       #998
      01004E6EH   LINE      CODE     ---       #999
      01004E74H   LINE      CODE     ---       #1000
      01004E74H   LINE      CODE     ---       #1001
      01004E77H   LINE      CODE     ---       #1002
      01004E7EH   LINE      CODE     ---       #1003
      01004E7EH   LINE      CODE     ---       #1004
      01004E81H   LINE      CODE     ---       #1005
LX51 LINKER/LOCATER V4.47a                                                            12/31/2014  11:09:05  PAGE 35


      01004E8AH   LINE      CODE     ---       #1006
      01004E8FH   LINE      CODE     ---       #1007
      01004E9AH   LINE      CODE     ---       #1008
      01004EABH   LINE      CODE     ---       #1009
      01004EB1H   LINE      CODE     ---       #1010
      01004EBAH   LINE      CODE     ---       #1011
      01004EC0H   LINE      CODE     ---       #1012
      01004EC9H   LINE      CODE     ---       #1015
      01004EC9H   LINE      CODE     ---       #1016
      01004ECCH   LINE      CODE     ---       #1017
      01004ED5H   LINE      CODE     ---       #1018
      01004EDAH   LINE      CODE     ---       #1019
      01004EE5H   LINE      CODE     ---       #1020
      01004EF6H   LINE      CODE     ---       #1021
      01004EFCH   LINE      CODE     ---       #1022
      01004F05H   LINE      CODE     ---       #1023
      01004F12H   LINE      CODE     ---       #1024
      01004F12H   LINE      CODE     ---       #1027
      01004F12H   LINE      CODE     ---       #1028
      01004F16H   LINE      CODE     ---       #1029
      ---         BLOCKEND  ---      ---       LVL=0

      01000026H   BLOCK     CODE     ---       LVL=0
      01000026H   BLOCK     CODE     NEAR LAB  LVL=1
      0000005EH   SYMBOL    DATA     BYTE      set_key
      0000005FH   SYMBOL    DATA     BYTE      times
      00000060H   SYMBOL    DATA     BYTE      Itemm
      00000061H   SYMBOL    DATA     BYTE      hin
      00000062H   SYMBOL    DATA     BYTE      lon
      00000063H   SYMBOL    DATA     BYTE      item_key
      00000064H   SYMBOL    DATA     BYTE      confrom_key
      00000065H   SYMBOL    DATA     BYTE      up_key
      00000066H   SYMBOL    DATA     BYTE      don_key
      00000067H   SYMBOL    DATA     WORD      value_cal
      ---         BLOCKEND  ---      ---       LVL=1
      01000026H   LINE      CODE     ---       #1031
      01000026H   LINE      CODE     ---       #1032
      01000026H   LINE      CODE     ---       #1033
      01000031H   LINE      CODE     ---       #1035
      01000035H   LINE      CODE     ---       #1038
      0100003EH   LINE      CODE     ---       #1040
      01000045H   LINE      CODE     ---       #1041
      01000045H   LINE      CODE     ---       #1042
      0100004AH   LINE      CODE     ---       #1044
      0100004FH   LINE      CODE     ---       #1045
      01000054H   LINE      CODE     ---       #1047
      01000057H   LINE      CODE     ---       #1049
      0100005CH   LINE      CODE     ---       #1050
      01000061H   LINE      CODE     ---       #1052
      01000064H   LINE      CODE     ---       #1054
      01000069H   LINE      CODE     ---       #1055
      0100006EH   LINE      CODE     ---       #1057
      01000071H   LINE      CODE     ---       #1059
      01000076H   LINE      CODE     ---       #1060
      0100007BH   LINE      CODE     ---       #1062
      0100007EH   LINE      CODE     ---       #1064
      01000083H   LINE      CODE     ---       #1065
      01000083H   LINE      CODE     ---       #1066
      01000085H   LINE      CODE     ---       #1067
      01000088H   LINE      CODE     ---       #1068
      01000088H   LINE      CODE     ---       #1069
      0100008FH   LINE      CODE     ---       #1070
      0100008FH   LINE      CODE     ---       #1071
      01000092H   LINE      CODE     ---       #1072
      01000094H   LINE      CODE     ---       #1073
LX51 LINKER/LOCATER V4.47a                                                            12/31/2014  11:09:05  PAGE 36


      01000094H   LINE      CODE     ---       #1074
      010000A1H   LINE      CODE     ---       #1075
      010000AEH   LINE      CODE     ---       #1077
      010000B4H   LINE      CODE     ---       #1078
      010000B4H   LINE      CODE     ---       #1079
      010000BEH   LINE      CODE     ---       #1081
      010000C4H   LINE      CODE     ---       #1082
      010000C9H   LINE      CODE     ---       #1083
      010000D0H   LINE      CODE     ---       #1084
      010000D0H   LINE      CODE     ---       #1085
      010000D3H   LINE      CODE     ---       #1086
      010000D7H   LINE      CODE     ---       #1087
      010000D7H   LINE      CODE     ---       #1088
      010000E0H   LINE      CODE     ---       #1089
      010000E0H   LINE      CODE     ---       #1090
      010000E7H   LINE      CODE     ---       #1091
      010000EFH   LINE      CODE     ---       #1092
      010000F6H   LINE      CODE     ---       #1093
      010000F8H   LINE      CODE     ---       #1094
      010000F8H   LINE      CODE     ---       #1095
      010000FBH   LINE      CODE     ---       #1096
      01000101H   LINE      CODE     ---       #1097
      01000101H   LINE      CODE     ---       #1098
      0100010DH   LINE      CODE     ---       #1099
      01000117H   LINE      CODE     ---       #1100
      0100011DH   LINE      CODE     ---       #1101
      01000122H   LINE      CODE     ---       #1103
      01000129H   LINE      CODE     ---       #1104
      01000129H   LINE      CODE     ---       #1105
      0100012CH   LINE      CODE     ---       #1106
      01000130H   LINE      CODE     ---       #1107
      01000130H   LINE      CODE     ---       #1108
      01000139H   LINE      CODE     ---       #1109
      01000139H   LINE      CODE     ---       #1110
      0100013DH   LINE      CODE     ---       #1111
      0100013DH   LINE      CODE     ---       #1112
      0100013DH   LINE      CODE     ---       #1113
      0100013DH   LINE      CODE     ---       #1114
      01000140H   LINE      CODE     ---       #1115
      01000146H   LINE      CODE     ---       #1116
      01000146H   LINE      CODE     ---       #1117
      0100014AH   LINE      CODE     ---       #1118
      0100014FH   LINE      CODE     ---       #1119
      01000155H   LINE      CODE     ---       #1120
      0100015AH   LINE      CODE     ---       #1121
      01000161H   LINE      CODE     ---       #1122
      01000161H   LINE      CODE     ---       #1123
      01000164H   LINE      CODE     ---       #1124
      01000168H   LINE      CODE     ---       #1125
      01000168H   LINE      CODE     ---       #1126
      01000172H   LINE      CODE     ---       #1128
      0100017BH   LINE      CODE     ---       #1129
      0100017BH   LINE      CODE     ---       #1130
      0100017FH   LINE      CODE     ---       #1131
      0100017FH   LINE      CODE     ---       #1132
      0100017FH   LINE      CODE     ---       #1133
      0100017FH   LINE      CODE     ---       #1134
      01000182H   LINE      CODE     ---       #1135
      01000196H   LINE      CODE     ---       #1136
      01000196H   LINE      CODE     ---       #1137
      0100019BH   LINE      CODE     ---       #1138
      0100019BH   LINE      CODE     ---       #1139
      0100019DH   LINE      CODE     ---       #1140
      010001ACH   LINE      CODE     ---       #1141
      010001B3H   LINE      CODE     ---       #1142
LX51 LINKER/LOCATER V4.47a                                                            12/31/2014  11:09:05  PAGE 37


      010001B7H   LINE      CODE     ---       #1144
      010001B7H   LINE      CODE     ---       #1145
      01000209H   LINE      CODE     ---       #1146
      0100020CH   LINE      CODE     ---       #1147
      0100020CH   LINE      CODE     ---       #1148
      0100020EH   LINE      CODE     ---       #1150
      0100020EH   LINE      CODE     ---       #1151
      01000221H   LINE      CODE     ---       #1152
      01000221H   LINE      CODE     ---       #1153
      01000227H   LINE      CODE     ---       #1154
      01000227H   LINE      CODE     ---       #1155
      01000230H   LINE      CODE     ---       #1156
      01000230H   LINE      CODE     ---       #1157
      0100023DH   LINE      CODE     ---       #1159
      01000249H   LINE      CODE     ---       #1161
      01000252H   LINE      CODE     ---       #1162
      01000252H   LINE      CODE     ---       #1163
      0100025BH   LINE      CODE     ---       #1164
      01000266H   LINE      CODE     ---       #1165
      01000270H   LINE      CODE     ---       #1166
      01000273H   LINE      CODE     ---       #1167
      01000279H   LINE      CODE     ---       #1168
      01000279H   LINE      CODE     ---       #1169
      01000279H   LINE      CODE     ---       #1170
      01000279H   LINE      CODE     ---       #1171
      0100027CH   LINE      CODE     ---       #1172
      01000285H   LINE      CODE     ---       #1173
      01000285H   LINE      CODE     ---       #1174
      01000289H   LINE      CODE     ---       #1175
      01000289H   LINE      CODE     ---       #1176
      0100028BH   LINE      CODE     ---       #1177
      0100028EH   LINE      CODE     ---       #1179
      0100028EH   LINE      CODE     ---       #1180
      0100029AH   LINE      CODE     ---       #1181
      010002A3H   LINE      CODE     ---       #1182
      010002A3H   LINE      CODE     ---       #1183
      010002ACH   LINE      CODE     ---       #1184
      010002B4H   LINE      CODE     ---       #1186
      010002BAH   LINE      CODE     ---       #1187
      010002CDH   LINE      CODE     ---       #1188
      010002CDH   LINE      CODE     ---       #1189
      010002CFH   LINE      CODE     ---       #1191
      010002D8H   LINE      CODE     ---       #1192
      010002D8H   LINE      CODE     ---       #1193
      010002DAH   LINE      CODE     ---       #1195
      010002EEH   LINE      CODE     ---       #1196
      010002FDH   LINE      CODE     ---       #1197
      01000302H   LINE      CODE     ---       #1199
      0100031DH   LINE      CODE     ---       #1200
      01000320H   LINE      CODE     ---       #1201
      01000320H   LINE      CODE     ---       #1202
      01000329H   LINE      CODE     ---       #1203
      0100032CH   LINE      CODE     ---       #1204
      01000330H   LINE      CODE     ---       #1205
      01000330H   LINE      CODE     ---       #1206
      01000330H   LINE      CODE     ---       #1207
      01000330H   LINE      CODE     ---       #1208
      01000333H   LINE      CODE     ---       #1209
      01000339H   LINE      CODE     ---       #1210
      01000339H   LINE      CODE     ---       #1211
      01000344H   LINE      CODE     ---       #1212
      01000344H   LINE      CODE     ---       #1213
      01000351H   LINE      CODE     ---       #1214
      0100035DH   LINE      CODE     ---       #1215
      01000366H   LINE      CODE     ---       #1216
LX51 LINKER/LOCATER V4.47a                                                            12/31/2014  11:09:05  PAGE 38


      01000366H   LINE      CODE     ---       #1217
      0100036FH   LINE      CODE     ---       #1218
      0100037AH   LINE      CODE     ---       #1219
      01000384H   LINE      CODE     ---       #1220
      01000387H   LINE      CODE     ---       #1221
      0100038DH   LINE      CODE     ---       #1222
      0100038DH   LINE      CODE     ---       #1223
      0100038DH   LINE      CODE     ---       #1224
      0100038DH   LINE      CODE     ---       #1225
      01000390H   LINE      CODE     ---       #1226
      01000399H   LINE      CODE     ---       #1227
      01000399H   LINE      CODE     ---       #1228
      010003A4H   LINE      CODE     ---       #1229
      010003A4H   LINE      CODE     ---       #1230
      010003B0H   LINE      CODE     ---       #1231
      010003B9H   LINE      CODE     ---       #1232
      010003B9H   LINE      CODE     ---       #1233
      010003C2H   LINE      CODE     ---       #1234
      010003CAH   LINE      CODE     ---       #1236
      010003CFH   LINE      CODE     ---       #1237
      010003E2H   LINE      CODE     ---       #1238
      010003EBH   LINE      CODE     ---       #1240
      010003FDH   LINE      CODE     ---       #1241
      010003FFH   LINE      CODE     ---       #1243
      01000413H   LINE      CODE     ---       #1244
      0100041CH   LINE      CODE     ---       #1246
      01000437H   LINE      CODE     ---       #1247
      01000437H   LINE      CODE     ---       #1248
      0100043DH   LINE      CODE     ---       #1249
      0100043DH   LINE      CODE     ---       #1250
      0100043DH   LINE      CODE     ---       #1251
      0100043DH   LINE      CODE     ---       #1252
      01000440H   LINE      CODE     ---       #1253
      01000446H   LINE      CODE     ---       #1254
      01000446H   LINE      CODE     ---       #1255
      01000451H   LINE      CODE     ---       #1256
      01000451H   LINE      CODE     ---       #1257
      0100045EH   LINE      CODE     ---       #1258
      0100046AH   LINE      CODE     ---       #1259
      01000473H   LINE      CODE     ---       #1260
      01000473H   LINE      CODE     ---       #1261
      0100047CH   LINE      CODE     ---       #1262
      01000487H   LINE      CODE     ---       #1263
      01000491H   LINE      CODE     ---       #1264
      01000494H   LINE      CODE     ---       #1265
      0100049AH   LINE      CODE     ---       #1266
      0100049AH   LINE      CODE     ---       #1267
      0100049AH   LINE      CODE     ---       #1268
      0100049AH   LINE      CODE     ---       #1269
      0100049DH   LINE      CODE     ---       #1270
      010004A6H   LINE      CODE     ---       #1271
      010004A6H   LINE      CODE     ---       #1272
      010004B1H   LINE      CODE     ---       #1273
      010004B1H   LINE      CODE     ---       #1274
      010004BDH   LINE      CODE     ---       #1275
      010004C6H   LINE      CODE     ---       #1276
      010004C6H   LINE      CODE     ---       #1277
      010004CFH   LINE      CODE     ---       #1278
      010004D7H   LINE      CODE     ---       #1280
      010004DCH   LINE      CODE     ---       #1281
      010004EFH   LINE      CODE     ---       #1282
      010004F7H   LINE      CODE     ---       #1284
      01000508H   LINE      CODE     ---       #1285
      0100050AH   LINE      CODE     ---       #1287
      0100051EH   LINE      CODE     ---       #1288
LX51 LINKER/LOCATER V4.47a                                                            12/31/2014  11:09:05  PAGE 39


      01000526H   LINE      CODE     ---       #1290
      01000540H   LINE      CODE     ---       #1291
      01000540H   LINE      CODE     ---       #1292
      01000546H   LINE      CODE     ---       #1293
      01000546H   LINE      CODE     ---       #1294
      01000546H   LINE      CODE     ---       #1295
      01000546H   LINE      CODE     ---       #1296
      01000549H   LINE      CODE     ---       #1297
      0100054FH   LINE      CODE     ---       #1298
      0100054FH   LINE      CODE     ---       #1299
      0100055AH   LINE      CODE     ---       #1300
      0100055AH   LINE      CODE     ---       #1301
      01000567H   LINE      CODE     ---       #1302
      01000573H   LINE      CODE     ---       #1303
      0100057CH   LINE      CODE     ---       #1304
      0100057CH   LINE      CODE     ---       #1305
      01000585H   LINE      CODE     ---       #1306
      01000590H   LINE      CODE     ---       #1307
      0100059AH   LINE      CODE     ---       #1308
      0100059DH   LINE      CODE     ---       #1309
      010005A3H   LINE      CODE     ---       #1310
      010005A3H   LINE      CODE     ---       #1311
      010005A3H   LINE      CODE     ---       #1312
      010005A3H   LINE      CODE     ---       #1313
      010005A6H   LINE      CODE     ---       #1314
      010005AFH   LINE      CODE     ---       #1315
      010005AFH   LINE      CODE     ---       #1316
      010005BAH   LINE      CODE     ---       #1317
      010005BAH   LINE      CODE     ---       #1318
      010005C6H   LINE      CODE     ---       #1319
      010005CFH   LINE      CODE     ---       #1320
      010005CFH   LINE      CODE     ---       #1321
      010005D8H   LINE      CODE     ---       #1322
      010005E0H   LINE      CODE     ---       #1324
      010005E5H   LINE      CODE     ---       #1325
      010005F8H   LINE      CODE     ---       #1326
      01000600H   LINE      CODE     ---       #1328
      01000611H   LINE      CODE     ---       #1329
      01000613H   LINE      CODE     ---       #1331
      01000627H   LINE      CODE     ---       #1332
      0100062FH   LINE      CODE     ---       #1334
      01000649H   LINE      CODE     ---       #1335
      01000649H   LINE      CODE     ---       #1336
      0100064FH   LINE      CODE     ---       #1337
      0100064FH   LINE      CODE     ---       #1338
      0100064FH   LINE      CODE     ---       #1339
      0100064FH   LINE      CODE     ---       #1340
      0100064FH   LINE      CODE     ---       #1341
      01000652H   LINE      CODE     ---       #1342
      01000658H   LINE      CODE     ---       #1343
      01000658H   LINE      CODE     ---       #1344
      0100066CH   LINE      CODE     ---       #1345
      01000671H   LINE      CODE     ---       #1346
      0100067AH   LINE      CODE     ---       #1347
      01000689H   LINE      CODE     ---       #1348
      01000689H   LINE      CODE     ---       #1349
      0100069DH   LINE      CODE     ---       #1350
      010006A6H   LINE      CODE     ---       #1351
      010006A6H   LINE      CODE     ---       #1352
      010006ACH   LINE      CODE     ---       #1353
      010006ACH   LINE      CODE     ---       #1354
      010006ACH   LINE      CODE     ---       #1355
      010006ACH   LINE      CODE     ---       #1356
      010006AEH   LINE      CODE     ---       #1357
      010006B4H   LINE      CODE     ---       #1358
LX51 LINKER/LOCATER V4.47a                                                            12/31/2014  11:09:05  PAGE 40


      010006B4H   LINE      CODE     ---       #1359
      010006C8H   LINE      CODE     ---       #1360
      010006CDH   LINE      CODE     ---       #1361
      010006D6H   LINE      CODE     ---       #1362
      010006E5H   LINE      CODE     ---       #1363
      010006E5H   LINE      CODE     ---       #1364
      010006F9H   LINE      CODE     ---       #1366
      01000702H   LINE      CODE     ---       #1367
      01000702H   LINE      CODE     ---       #1368
      0100070BH   LINE      CODE     ---       #1369
      0100070BH   LINE      CODE     ---       #1370
      0100070BH   LINE      CODE     ---       #1371
      0100070BH   LINE      CODE     ---       #1372
      0100070EH   LINE      CODE     ---       #1373
      01000717H   LINE      CODE     ---       #1374
      01000717H   LINE      CODE     ---       #1375
      01000722H   LINE      CODE     ---       #1376
      01000722H   LINE      CODE     ---       #1377
      0100072BH   LINE      CODE     ---       #1379
      0100073DH   LINE      CODE     ---       #1380
      01000740H   LINE      CODE     ---       #1381
      01000740H   LINE      CODE     ---       #1382
      01000742H   LINE      CODE     ---       #1384
      01000742H   LINE      CODE     ---       #1385
      0100074AH   LINE      CODE     ---       #1386
      0100074AH   LINE      CODE     ---       #1387
      01000756H   LINE      CODE     ---       #1388
      01000768H   LINE      CODE     ---       #1389
      0100076FH   LINE      CODE     ---       #1390
      0100076FH   LINE      CODE     ---       #1391
      0100076FH   LINE      CODE     ---       #1392
      0100077CH   LINE      CODE     ---       #1394
      01000785H   LINE      CODE     ---       #1395
      01000785H   LINE      CODE     ---       #1396
      0100078CH   LINE      CODE     ---       #1397
      01000793H   LINE      CODE     ---       #1398
      01000793H   LINE      CODE     ---       #1399
      01000793H   LINE      CODE     ---       #1401
      01000796H   LINE      CODE     ---       #1402
      0100079CH   LINE      CODE     ---       #1403
      0100079CH   LINE      CODE     ---       #1404
      010007A7H   LINE      CODE     ---       #1405
      010007A7H   LINE      CODE     ---       #1406
      010007B3H   LINE      CODE     ---       #1408
      010007C5H   LINE      CODE     ---       #1409
      010007C7H   LINE      CODE     ---       #1410
      010007C7H   LINE      CODE     ---       #1411
      010007C9H   LINE      CODE     ---       #1413
      010007C9H   LINE      CODE     ---       #1414
      010007D1H   LINE      CODE     ---       #1415
      010007D1H   LINE      CODE     ---       #1416
      010007DBH   LINE      CODE     ---       #1417
      010007EDH   LINE      CODE     ---       #1418
      010007F4H   LINE      CODE     ---       #1419
      010007F4H   LINE      CODE     ---       #1420
      010007F4H   LINE      CODE     ---       #1421
      010007FEH   LINE      CODE     ---       #1423
      01000807H   LINE      CODE     ---       #1424
      01000807H   LINE      CODE     ---       #1425
      0100080EH   LINE      CODE     ---       #1426
      01000815H   LINE      CODE     ---       #1427
      01000815H   LINE      CODE     ---       #1428
      01000815H   LINE      CODE     ---       #1429
      01000818H   LINE      CODE     ---       #1430
      01000821H   LINE      CODE     ---       #1431
LX51 LINKER/LOCATER V4.47a                                                            12/31/2014  11:09:05  PAGE 41


      01000821H   LINE      CODE     ---       #1432
      0100082FH   LINE      CODE     ---       #1433
      0100082FH   LINE      CODE     ---       #1434
      01000845H   LINE      CODE     ---       #1435
      0100085CH   LINE      CODE     ---       #1436
      01000892H   LINE      CODE     ---       #1437
      010008B5H   LINE      CODE     ---       #1438
      010008C7H   LINE      CODE     ---       #1439
      010008CAH   LINE      CODE     ---       #1440
      010008CDH   LINE      CODE     ---       #1442
      010008CDH   LINE      CODE     ---       #1443
      010008D8H   LINE      CODE     ---       #1444
      010008D8H   LINE      CODE     ---       #1445
      010008EFH   LINE      CODE     ---       #1446
      01000905H   LINE      CODE     ---       #1447
      01000939H   LINE      CODE     ---       #1448
      0100095BH   LINE      CODE     ---       #1449
      0100096DH   LINE      CODE     ---       #1450
      01000974H   LINE      CODE     ---       #1451
      01000974H   LINE      CODE     ---       #1452
      01000974H   LINE      CODE     ---       #1453
      0100097EH   LINE      CODE     ---       #1455
      01000987H   LINE      CODE     ---       #1456
      01000987H   LINE      CODE     ---       #1457
      0100098EH   LINE      CODE     ---       #1458
      01000995H   LINE      CODE     ---       #1459
      01000995H   LINE      CODE     ---       #1460
      01000995H   LINE      CODE     ---       #1461
      01000998H   LINE      CODE     ---       #1462
      0100099EH   LINE      CODE     ---       #1463
      0100099EH   LINE      CODE     ---       #1464
      010009A9H   LINE      CODE     ---       #1465
      010009A9H   LINE      CODE     ---       #1466
      010009B2H   LINE      CODE     ---       #1468
      010009C4H   LINE      CODE     ---       #1469
      010009C7H   LINE      CODE     ---       #1470
      010009C7H   LINE      CODE     ---       #1471
      010009C9H   LINE      CODE     ---       #1473
      010009C9H   LINE      CODE     ---       #1474
      010009D1H   LINE      CODE     ---       #1475
      010009D1H   LINE      CODE     ---       #1476
      010009DBH   LINE      CODE     ---       #1478
      010009EDH   LINE      CODE     ---       #1479
      010009F4H   LINE      CODE     ---       #1480
      010009F4H   LINE      CODE     ---       #1481
      010009F4H   LINE      CODE     ---       #1482
      010009F4H   LINE      CODE     ---       #1483
      010009FEH   LINE      CODE     ---       #1484
      01000A07H   LINE      CODE     ---       #1485
      01000A07H   LINE      CODE     ---       #1486
      01000A0EH   LINE      CODE     ---       #1487
      01000A15H   LINE      CODE     ---       #1488
      01000A15H   LINE      CODE     ---       #1489
      01000A15H   LINE      CODE     ---       #1490
      01000A18H   LINE      CODE     ---       #1491
      01000A21H   LINE      CODE     ---       #1492
      01000A21H   LINE      CODE     ---       #1493
      01000A2CH   LINE      CODE     ---       #1494
      01000A2CH   LINE      CODE     ---       #1495
      01000A35H   LINE      CODE     ---       #1497
      01000A35H   LINE      CODE     ---       #1498
      01000A47H   LINE      CODE     ---       #1499
      01000A4AH   LINE      CODE     ---       #1500
      01000A4AH   LINE      CODE     ---       #1501
      01000A4CH   LINE      CODE     ---       #1503
LX51 LINKER/LOCATER V4.47a                                                            12/31/2014  11:09:05  PAGE 42


      01000A4CH   LINE      CODE     ---       #1504
      01000A54H   LINE      CODE     ---       #1505
      01000A54H   LINE      CODE     ---       #1506
      01000A5EH   LINE      CODE     ---       #1508
      01000A70H   LINE      CODE     ---       #1509
      01000A77H   LINE      CODE     ---       #1510
      01000A77H   LINE      CODE     ---       #1511
      01000A77H   LINE      CODE     ---       #1512
      01000A77H   LINE      CODE     ---       #1513
      01000A81H   LINE      CODE     ---       #1514
      01000A8AH   LINE      CODE     ---       #1515
      01000A8AH   LINE      CODE     ---       #1516
      01000A91H   LINE      CODE     ---       #1517
      01000A98H   LINE      CODE     ---       #1518
      01000AA9H   LINE      CODE     ---       #1519
      01000AA9H   LINE      CODE     ---       #1520
      01000AACH   LINE      CODE     ---       #1521
      01000AB6H   LINE      CODE     ---       #1522
      01000AB6H   LINE      CODE     ---       #1523
      01000AB9H   LINE      CODE     ---       #1524
      01000ABBH   LINE      CODE     ---       #1525
      01000ABBH   LINE      CODE     ---       #1526
      01000ABEH   LINE      CODE     ---       #1527
      ---         BLOCKEND  ---      ---       LVL=0

      0100515FH   BLOCK     CODE     ---       LVL=0
      0100515FH   LINE      CODE     ---       #1530
      0100515FH   LINE      CODE     ---       #1531
      0100515FH   LINE      CODE     ---       #1532
      01005166H   LINE      CODE     ---       #1533
      0100516DH   LINE      CODE     ---       #1534
      01005177H   LINE      CODE     ---       #1536
      0100517CH   LINE      CODE     ---       #1538
      0100517CH   LINE      CODE     ---       #1539
      01005183H   LINE      CODE     ---       #1540
      0100518AH   LINE      CODE     ---       #1541
      01005191H   LINE      CODE     ---       #1542
      0100519BH   LINE      CODE     ---       #1543
      010051A2H   LINE      CODE     ---       #1544
      010051A9H   LINE      CODE     ---       #1545
      010051B3H   LINE      CODE     ---       #1546
      010051B3H   LINE      CODE     ---       #1548
      ---         BLOCKEND  ---      ---       LVL=0

      01005023H   BLOCK     CODE     ---       LVL=0
      01005023H   LINE      CODE     ---       #1570
      01005023H   LINE      CODE     ---       #1571
      01005023H   LINE      CODE     ---       #1572
      0100502DH   LINE      CODE     ---       #1573
      01005034H   LINE      CODE     ---       #1574
      0100503BH   LINE      CODE     ---       #1575
      01005045H   LINE      CODE     ---       #1576
      0100504CH   LINE      CODE     ---       #1577
      01005053H   LINE      CODE     ---       #1578
      0100505AH   LINE      CODE     ---       #1580
      01005062H   LINE      CODE     ---       #1581
      01005062H   LINE      CODE     ---       #1582
      01005069H   LINE      CODE     ---       #1583
      01005070H   LINE      CODE     ---       #1584
      01005077H   LINE      CODE     ---       #1585
      0100507EH   LINE      CODE     ---       #1586
      01005085H   LINE      CODE     ---       #1587
      0100508CH   LINE      CODE     ---       #1588
      01005093H   LINE      CODE     ---       #1589
      01005093H   LINE      CODE     ---       #1590
LX51 LINKER/LOCATER V4.47a                                                            12/31/2014  11:09:05  PAGE 43


      ---         BLOCKEND  ---      ---       LVL=0

      01004B5FH   BLOCK     CODE     ---       LVL=0
      01004B5FH   LINE      CODE     ---       #1592
      01004B5FH   LINE      CODE     ---       #1593
      01004B5FH   LINE      CODE     ---       #1594
      01004B62H   LINE      CODE     ---       #1595
      01004B69H   LINE      CODE     ---       #1596
      01004B70H   LINE      CODE     ---       #1597
      01004B77H   LINE      CODE     ---       #1599
      01004B7FH   LINE      CODE     ---       #1600
      01004B88H   LINE      CODE     ---       #1601
      01004B90H   LINE      CODE     ---       #1602
      01004B99H   LINE      CODE     ---       #1603
      01004BA1H   LINE      CODE     ---       #1604
      01004BAAH   LINE      CODE     ---       #1605
      01004BB3H   LINE      CODE     ---       #1606
      01004BBCH   LINE      CODE     ---       #1607
      01004BC4H   LINE      CODE     ---       #1608
      01004BCDH   LINE      CODE     ---       #1610
      01004BD4H   LINE      CODE     ---       #1611
      01004BDBH   LINE      CODE     ---       #1612
      01004BE2H   LINE      CODE     ---       #1613
      01004BE9H   LINE      CODE     ---       #1614
      01004BF0H   LINE      CODE     ---       #1615
      01004BF7H   LINE      CODE     ---       #1616
      01004BFEH   LINE      CODE     ---       #1617
      01004C05H   LINE      CODE     ---       #1618
      01004C0EH   LINE      CODE     ---       #1619
      01004C17H   LINE      CODE     ---       #1620
      01004C20H   LINE      CODE     ---       #1621
      01004C29H   LINE      CODE     ---       #1622
      01004C32H   LINE      CODE     ---       #1623
      ---         BLOCKEND  ---      ---       LVL=0

      01004A86H   BLOCK     CODE     ---       LVL=0
      01004A86H   LINE      CODE     ---       #1626
      01004A86H   LINE      CODE     ---       #1627
      01004A86H   LINE      CODE     ---       #1628
      01004A89H   LINE      CODE     ---       #1629
      01004A8CH   LINE      CODE     ---       #1630
      01004A93H   LINE      CODE     ---       #1631
      01004A9AH   LINE      CODE     ---       #1632
      01004AA1H   LINE      CODE     ---       #1633
      01004AAAH   LINE      CODE     ---       #1634
      01004AB3H   LINE      CODE     ---       #1635
      01004ABCH   LINE      CODE     ---       #1636
      01004AC5H   LINE      CODE     ---       #1637
      01004ACEH   LINE      CODE     ---       #1638
      01004AD7H   LINE      CODE     ---       #1639
      01004AE0H   LINE      CODE     ---       #1640
      01004AE9H   LINE      CODE     ---       #1641
      01004AF2H   LINE      CODE     ---       #1642
      01004AFBH   LINE      CODE     ---       #1643
      01004B02H   LINE      CODE     ---       #1645
      01004B09H   LINE      CODE     ---       #1646
      01004B10H   LINE      CODE     ---       #1647
      01004B17H   LINE      CODE     ---       #1648
      01004B1EH   LINE      CODE     ---       #1649
      01004B25H   LINE      CODE     ---       #1650
      01004B2CH   LINE      CODE     ---       #1651
      01004B33H   LINE      CODE     ---       #1652
      01004B3CH   LINE      CODE     ---       #1653
      01004B45H   LINE      CODE     ---       #1654
      01004B4EH   LINE      CODE     ---       #1655
LX51 LINKER/LOCATER V4.47a                                                            12/31/2014  11:09:05  PAGE 44


      01004B57H   LINE      CODE     ---       #1656
      01004B5EH   LINE      CODE     ---       #1657
      ---         BLOCKEND  ---      ---       LVL=0

      01004237H   BLOCK     CODE     ---       LVL=0
      01004237H   LINE      CODE     ---       #1661
      01004237H   LINE      CODE     ---       #1662
      01004237H   LINE      CODE     ---       #1663
      01004239H   LINE      CODE     ---       #1664
      01004242H   LINE      CODE     ---       #1665
      01004245H   LINE      CODE     ---       #1666
      01004248H   LINE      CODE     ---       #1667
      0100424AH   LINE      CODE     ---       #1669
      0100424DH   LINE      CODE     ---       #1670
      01004250H   LINE      CODE     ---       #1671
      01004253H   LINE      CODE     ---       #1672
      0100425CH   LINE      CODE     ---       #1673
      0100425FH   LINE      CODE     ---       #1674
      01004262H   LINE      CODE     ---       #1675
      01004265H   LINE      CODE     ---       #1676
      01004267H   LINE      CODE     ---       #1677
      0100426CH   LINE      CODE     ---       #1678
      0100426CH   LINE      CODE     ---       #1679
      0100426EH   LINE      CODE     ---       #1680
      01004270H   LINE      CODE     ---       #1681
      01004273H   LINE      CODE     ---       #1682
      01004276H   LINE      CODE     ---       #1683
      01004279H   LINE      CODE     ---       #1684
      01004282H   LINE      CODE     ---       #1685
      01004285H   LINE      CODE     ---       #1686
      01004288H   LINE      CODE     ---       #1687
      0100428BH   LINE      CODE     ---       #1688
      0100428EH   LINE      CODE     ---       #1689
      01004291H   LINE      CODE     ---       #1690
      01004294H   LINE      CODE     ---       #1691
      0100429DH   LINE      CODE     ---       #1692
      010042A0H   LINE      CODE     ---       #1693
      010042A3H   LINE      CODE     ---       #1694
      010042A6H   LINE      CODE     ---       #1696
      010042A9H   LINE      CODE     ---       #1697
      010042ABH   LINE      CODE     ---       #1698
      010042ADH   LINE      CODE     ---       #1699
      010042B0H   LINE      CODE     ---       #1700
      010042B3H   LINE      CODE     ---       #1701
      010042B6H   LINE      CODE     ---       #1702
      010042B9H   LINE      CODE     ---       #1703
      010042BCH   LINE      CODE     ---       #1704
      010042BFH   LINE      CODE     ---       #1705
      010042C5H   LINE      CODE     ---       #1706
      010042C8H   LINE      CODE     ---       #1707
      010042CEH   LINE      CODE     ---       #1708
      010042D3H   LINE      CODE     ---       #1709
      010042D6H   LINE      CODE     ---       #1711
      01004301H   LINE      CODE     ---       #1712
      01004301H   LINE      CODE     ---       #1713
      01004308H   LINE      CODE     ---       #1714
      0100430FH   LINE      CODE     ---       #1715
      01004316H   LINE      CODE     ---       #1716
      0100431DH   LINE      CODE     ---       #1717
      01004324H   LINE      CODE     ---       #1718
      01004327H   LINE      CODE     ---       #1719
      0100432AH   LINE      CODE     ---       #1720
      0100432AH   LINE      CODE     ---       #1721
      0100432DH   LINE      CODE     ---       #1722
      01004334H   LINE      CODE     ---       #1723
LX51 LINKER/LOCATER V4.47a                                                            12/31/2014  11:09:05  PAGE 45


      0100433BH   LINE      CODE     ---       #1724
      01004342H   LINE      CODE     ---       #1725
      0100434BH   LINE      CODE     ---       #1726
      01004354H   LINE      CODE     ---       #1727
      0100435DH   LINE      CODE     ---       #1728
      01004366H   LINE      CODE     ---       #1729
      0100436FH   LINE      CODE     ---       #1730
      01004378H   LINE      CODE     ---       #1731
      01004381H   LINE      CODE     ---       #1732
      0100438AH   LINE      CODE     ---       #1733
      01004393H   LINE      CODE     ---       #1734
      0100439CH   LINE      CODE     ---       #1735
      010043A3H   LINE      CODE     ---       #1736
      010043AAH   LINE      CODE     ---       #1737
      010043B1H   LINE      CODE     ---       #1738
      010043B8H   LINE      CODE     ---       #1739
      010043BFH   LINE      CODE     ---       #1740
      010043C6H   LINE      CODE     ---       #1741
      010043CDH   LINE      CODE     ---       #1743
      010043D6H   LINE      CODE     ---       #1744
      010043DFH   LINE      CODE     ---       #1745
      010043E8H   LINE      CODE     ---       #1746
      010043F1H   LINE      CODE     ---       #1747
      010043F8H   LINE      CODE     ---       #1748
      01004402H   LINE      CODE     ---       #1749
      01004405H   LINE      CODE     ---       #1752
      01004407H   LINE      CODE     ---       #1753
      01004409H   LINE      CODE     ---       #1754
      0100440BH   LINE      CODE     ---       #1755
      0100440DH   LINE      CODE     ---       #1756
      0100440FH   LINE      CODE     ---       #1757
      01004412H   LINE      CODE     ---       #1758
      01004415H   LINE      CODE     ---       #1760
      01004419H   LINE      CODE     ---       #1761
      01004421H   LINE      CODE     ---       #1762
      0100442BH   LINE      CODE     ---       #1763
      01004430H   LINE      CODE     ---       #1764
      01004437H   LINE      CODE     ---       #1765
      0100443CH   LINE      CODE     ---       #1766
      01004443H   LINE      CODE     ---       #1767
      01004448H   LINE      CODE     ---       #1768
      01004450H   LINE      CODE     ---       #1771
      01004450H   LINE      CODE     ---       #1772
      01004450H   LINE      CODE     ---       #1773
      01004465H   LINE      CODE     ---       #1774
      01004465H   LINE      CODE     ---       #1775
      01004465H   LINE      CODE     ---       #1776
      01004468H   LINE      CODE     ---       #1777
      0100446AH   LINE      CODE     ---       #1779
      0100446AH   LINE      CODE     ---       #1780
      0100446DH   LINE      CODE     ---       #1781
      0100446FH   LINE      CODE     ---       #1783
      0100446FH   LINE      CODE     ---       #1784
      01004472H   LINE      CODE     ---       #1785
      01004474H   LINE      CODE     ---       #1787
      01004474H   LINE      CODE     ---       #1788
      01004477H   LINE      CODE     ---       #1789
      01004479H   LINE      CODE     ---       #1791
      01004479H   LINE      CODE     ---       #1792
      0100447CH   LINE      CODE     ---       #1793
      0100447FH   LINE      CODE     ---       #1795
      01004481H   LINE      CODE     ---       #1797
      01004481H   LINE      CODE     ---       #1798
      01004484H   LINE      CODE     ---       #1799
      ---         BLOCKEND  ---      ---       LVL=0
LX51 LINKER/LOCATER V4.47a                                                            12/31/2014  11:09:05  PAGE 46



      ---         MODULE    ---      ---       LED
      01005786H   PUBLIC    CONST    ---       Point_tab_LED
      0100576AH   PUBLIC    CONST    ---       tab_LED
      00000075H   PUBLIC    DATA     BYTE      ?_LED_DATA_Write?BYTE
      01004C35H   PUBLIC    CODE     ---       _LED_DATA_Write
      0100543CH   PUBLIC    CODE     ---       LED_Init
      01005747H   PUBLIC    CODE     ---       _BitDly
      010055E2H   PUBLIC    CODE     ---       LED_Fill
      0100226BH   PUBLIC    CODE     ---       _SETUP_LED_Disp
      01001ADBH   PUBLIC    CODE     ---       _LED_Disp
      000000B0H   SFRSYM    DATA     BIT       R485_RX
      000000D8H.2 SFRSYM    DATA     BIT       CCF2
      00000098H.3 SFRSYM    DATA     BIT       TB80
      000000F6H   SFRSYM    DATA     BYTE      PCAPWM4
      00000091H   SFRSYM    DATA     BYTE      P1M0
      00000094H   SFRSYM    DATA     BYTE      P0M1
      000000D8H.3 SFRSYM    DATA     BIT       CCF3
      00000098H.3 SFRSYM    DATA     BIT       TB81
      000000F7H   SFRSYM    DATA     BYTE      PCAPWM5
      00000095H   SFRSYM    DATA     BYTE      P2M0
      00000092H   SFRSYM    DATA     BYTE      P1M1
      00000080H   SFRSYM    DATA     BYTE      P0
      000000B0H.1 SFRSYM    DATA     BIT       R485_TX
      000000D8H.4 SFRSYM    DATA     BIT       CCF4
      00000098H.7 SFRSYM    DATA     BIT       SM00
      000000B1H   SFRSYM    DATA     BYTE      P3M0
      00000096H   SFRSYM    DATA     BYTE      P2M1
      00000090H   SFRSYM    DATA     BYTE      P1
      000000D8H.5 SFRSYM    DATA     BIT       CCF5
      00000098H.7 SFRSYM    DATA     BIT       SM01
      00000098H.6 SFRSYM    DATA     BIT       SM10
      000000B3H   SFRSYM    DATA     BYTE      P4M0
      000000B2H   SFRSYM    DATA     BYTE      P3M1
      000000A0H   SFRSYM    DATA     BYTE      P2
      00000098H.6 SFRSYM    DATA     BIT       SM11
      00000098H.5 SFRSYM    DATA     BIT       SM20
      000000E7H   SFRSYM    DATA     BYTE      ISPCR
      000000B5H   SFRSYM    DATA     BYTE      P5M0
      000000B4H   SFRSYM    DATA     BYTE      P4M1
      000000B0H   SFRSYM    DATA     BYTE      P3
      000000C0H   SFRSYM    DATA     BYTE      XICON
      000000A0H.2 SFRSYM    DATA     BIT       EEPROM_SDA
      00000080H.7 SFRSYM    DATA     BIT       DOWN_KEY
      000000B0H.4 SFRSYM    DATA     BIT       T0
      00000098H.5 SFRSYM    DATA     BIT       SM21
      000000D0H.6 SFRSYM    DATA     BIT       AC
      00000097H   SFRSYM    DATA     BYTE      EVRCR
      000000B6H   SFRSYM    DATA     BYTE      P5M1
      000000E8H   SFRSYM    DATA     BYTE      P4
      000000B0H.5 SFRSYM    DATA     BIT       T1
      00000085H   SFRSYM    DATA     BYTE      SPCON
      000000F8H   SFRSYM    DATA     BYTE      P5
      000000ADH   SFRSYM    DATA     BYTE      EIE1
      00000090H   SFRSYM    DATA     BIT       T2
      000000A8H.7 SFRSYM    DATA     BIT       EA
      000000ACH   SFRSYM    DATA     BYTE      SFRPI
      000000E1H   SFRSYM    DATA     BYTE      WDTCR
      000000C8H   SFRSYM    DATA     BYTE      P6
      000000A0H.4 SFRSYM    DATA     BIT       mV_SCL
      000000A0H   SFRSYM    DATA     BIT       KBI0
      00000090H.5 SFRSYM    DATA     BIT       SPI_MOSI
      00000090H.6 SFRSYM    DATA     BIT       SPI_MISO
      00000080H.5 SFRSYM    DATA     BIT       mA_OUT
      000000A0H.1 SFRSYM    DATA     BIT       KBI1
LX51 LINKER/LOCATER V4.47a                                                            12/31/2014  11:09:05  PAGE 47


      00000085H   SFRSYM    DATA     BYTE      SPCTL
      000000A0H.2 SFRSYM    DATA     BIT       KBI2
      00000090H   SFRSYM    DATA     BIT       AIN0
      000000D8H.7 SFRSYM    DATA     BIT       CF
      000000AEH   SFRSYM    DATA     BYTE      AUXIP
      000000A0H.3 SFRSYM    DATA     BIT       KBI3
      00000090H.1 SFRSYM    DATA     BIT       AIN1
      000000A0H.4 SFRSYM    DATA     BIT       KBI4
      00000090H.2 SFRSYM    DATA     BIT       AIN2
      00000098H.7 SFRSYM    DATA     BIT       FE
      000000F9H   SFRSYM    DATA     BYTE      CH
      000000A0H.5 SFRSYM    DATA     BIT       KBI5
      00000090H.3 SFRSYM    DATA     BIT       AIN3
      000000A0H.6 SFRSYM    DATA     BIT       KBI6
      00000090H.4 SFRSYM    DATA     BIT       AIN4
      000000A0H.3 SFRSYM    DATA     BIT       EEPROM_SCL
      00000080H.1 SFRSYM    DATA     BIT       RTD_C
      000000A0H.7 SFRSYM    DATA     BIT       KBI7
      00000090H.5 SFRSYM    DATA     BIT       AIN5
      000000A8H   SFRSYM    DATA     BYTE      IE
      00000090H.6 SFRSYM    DATA     BIT       AIN6
      000000E9H   SFRSYM    DATA     BYTE      CL
      00000090H.7 SFRSYM    DATA     BIT       AIN7
      00000090H.2 SFRSYM    DATA     BIT       CEX0
      000000FAH   SFRSYM    DATA     BYTE      CCAP0H
      000000C6H   SFRSYM    DATA     BYTE      ADCH
      00000090H.3 SFRSYM    DATA     BIT       CEX1
      000000FBH   SFRSYM    DATA     BYTE      CCAP1H
      000000B7H   SFRSYM    DATA     BYTE      IP0H
      000000A0H.2 SFRSYM    DATA     BIT       ALL_SDA
      00000090H.4 SFRSYM    DATA     BIT       CEX2
      000000FCH   SFRSYM    DATA     BYTE      CCAP2H
      000000B0H.3 SFRSYM    DATA     BIT       OFFSET_KEY
      00000090H.5 SFRSYM    DATA     BIT       CEX3
      000000FDH   SFRSYM    DATA     BYTE      CCAP3H
      00000090H.6 SFRSYM    DATA     BIT       CEX4
      000000D8H.6 SFRSYM    DATA     BIT       CR
      000000FEH   SFRSYM    DATA     BYTE      CCAP4H
      000000EAH   SFRSYM    DATA     BYTE      CCAP0L
      000000BEH   SFRSYM    DATA     BYTE      ADCL
      000000B0H.7 SFRSYM    DATA     BIT       RD
      00000090H.7 SFRSYM    DATA     BIT       CEX5
      000000C8H.6 SFRSYM    DATA     BIT       EXF2
      00000098H.4 SFRSYM    DATA     BIT       REN0
      000000FFH   SFRSYM    DATA     BYTE      CCAP5H
      000000EBH   SFRSYM    DATA     BYTE      CCAP1L
      000000DAH   SFRSYM    DATA     BYTE      CCAPM0
      000000B8H   SFRSYM    DATA     BYTE      IP0L
      00000098H.4 SFRSYM    DATA     BIT       REN1
      000000ECH   SFRSYM    DATA     BYTE      CCAP2L
      000000DBH   SFRSYM    DATA     BYTE      CCAPM1
      000000C0H.3 SFRSYM    DATA     BIT       IT2H
      000000A8H.4 SFRSYM    DATA     BIT       ES
      00000097H   SFRSYM    DATA     BYTE      TSTWD
      000000EDH   SFRSYM    DATA     BYTE      CCAP3L
      000000DCH   SFRSYM    DATA     BYTE      CCAPM2
      000000C0H.7 SFRSYM    DATA     BIT       IT3H
      000000EEH   SFRSYM    DATA     BYTE      CCAP4L
      000000DDH   SFRSYM    DATA     BYTE      CCAPM3
      000000B8H   SFRSYM    DATA     BYTE      IP
      000000EFH   SFRSYM    DATA     BYTE      CCAP5L
      000000DEH   SFRSYM    DATA     BYTE      CCAPM4
      00000098H   SFRSYM    DATA     BIT       RI
      000000DFH   SFRSYM    DATA     BYTE      CCAPM5
      000000B0H.2 SFRSYM    DATA     BIT       INT0
LX51 LINKER/LOCATER V4.47a                                                            12/31/2014  11:09:05  PAGE 48


      000000D0H.7 SFRSYM    DATA     BIT       CY
      000000B0H.4 SFRSYM    DATA     BIT       BEEP
      00000080H.4 SFRSYM    DATA     BIT       mV_OUT
      000000B0H.3 SFRSYM    DATA     BIT       INT1
      00000098H.1 SFRSYM    DATA     BIT       TI
      000000A0H.3 SFRSYM    DATA     BIT       EEP_SCL
      000000E8H.3 SFRSYM    DATA     BIT       INT2
      000000E8H.2 SFRSYM    DATA     BIT       INT3
      000000C6H   SFRSYM    DATA     BYTE      ADCV
      0000008FH   SFRSYM    DATA     BYTE      STRETCH
      000000B8H.1 SFRSYM    DATA     BIT       PT0L
      000000B8H.3 SFRSYM    DATA     BIT       PT1L
      000000CBH   SFRSYM    DATA     BYTE      RCAP2H
      000000A0H.2 SFRSYM    DATA     BIT       RTC_SDA
      000000B8H.4 SFRSYM    DATA     BIT       PS
      000000B8H.5 SFRSYM    DATA     BIT       PT2L
      00000081H   SFRSYM    DATA     BYTE      SP
      00000090H.1 SFRSYM    DATA     BIT       T2EX
      000000D9H   SFRSYM    DATA     BYTE      CMOD
      000000D8H   SFRSYM    DATA     BYTE      CCON
      0000009AH   SFRSYM    DATA     BYTE      SCFG
      000000B8H   SFRSYM    DATA     BIT       PX0L
      000000D0H.2 SFRSYM    DATA     BIT       OV
      000000B8H.2 SFRSYM    DATA     BIT       PX1L
      000000CAH   SFRSYM    DATA     BYTE      RCAP2L
      000000B8H.6 SFRSYM    DATA     BIT       PX2L
      00000090H.7 SFRSYM    DATA     BIT       SPI_CLK
      000000B8H.7 SFRSYM    DATA     BIT       PX3L
      000000E6H   SFRSYM    DATA     BYTE      SCMD
      000000B0H.6 SFRSYM    DATA     BIT       WR
      000000C8H.1 SFRSYM    DATA     BIT       C_T2
      00000084H   SFRSYM    DATA     BYTE      SPISTAT
      00000090H.6 SFRSYM    DATA     BIT       RTC_SCL
      000000C8H.5 SFRSYM    DATA     BIT       RCLK
      000000C8H.4 SFRSYM    DATA     BIT       TCLK
      00000080H   SFRSYM    DATA     BIT       P00
      000000E3H   SFRSYM    DATA     BYTE      IFADRH
      00000090H   SFRSYM    DATA     BIT       P10
      00000080H.1 SFRSYM    DATA     BIT       P01
      000000E5H   SFRSYM    DATA     BYTE      IFMT
      00000087H   SFRSYM    DATA     BYTE      PCON
      00000099H   SFRSYM    DATA     BYTE      SBUF
      000000A0H   SFRSYM    DATA     BIT       P20
      00000090H.1 SFRSYM    DATA     BIT       P11
      00000080H.2 SFRSYM    DATA     BIT       P02
      000000B0H   SFRSYM    DATA     BIT       P30
      000000A0H.1 SFRSYM    DATA     BIT       P21
      00000090H.2 SFRSYM    DATA     BIT       P12
      00000080H.3 SFRSYM    DATA     BIT       P03
      000000B0H.2 SFRSYM    DATA     BIT       FUNCTION_KEY
      000000E8H   SFRSYM    DATA     BIT       P40
      000000B0H.1 SFRSYM    DATA     BIT       P31
      000000A0H.2 SFRSYM    DATA     BIT       P22
      00000090H.3 SFRSYM    DATA     BIT       P13
      00000080H.4 SFRSYM    DATA     BIT       P04
      000000E4H   SFRSYM    DATA     BYTE      IFADRL
      00000098H   SFRSYM    DATA     BYTE      SCON
      000000F8H   SFRSYM    DATA     BIT       P50
      000000E8H.1 SFRSYM    DATA     BIT       P41
      000000B0H.2 SFRSYM    DATA     BIT       P32
      000000A0H.3 SFRSYM    DATA     BIT       P23
      00000090H.4 SFRSYM    DATA     BIT       P14
      00000080H.5 SFRSYM    DATA     BIT       P05
      00000089H   SFRSYM    DATA     BYTE      TMOD
      00000088H   SFRSYM    DATA     BYTE      TCON
LX51 LINKER/LOCATER V4.47a                                                            12/31/2014  11:09:05  PAGE 49


      000000C8H   SFRSYM    DATA     BIT       P60
      000000F8H.1 SFRSYM    DATA     BIT       P51
      000000E8H.2 SFRSYM    DATA     BIT       P42
      000000B0H.3 SFRSYM    DATA     BIT       P33
      000000A0H.4 SFRSYM    DATA     BIT       P24
      00000090H.5 SFRSYM    DATA     BIT       P15
      00000080H.6 SFRSYM    DATA     BIT       P06
      000000C8H.1 SFRSYM    DATA     BIT       P61
      000000F8H.2 SFRSYM    DATA     BIT       P52
      000000E8H.3 SFRSYM    DATA     BIT       P43
      000000B0H.4 SFRSYM    DATA     BIT       P34
      000000A0H.5 SFRSYM    DATA     BIT       P25
      00000090H.6 SFRSYM    DATA     BIT       P16
      00000080H.7 SFRSYM    DATA     BIT       P07
      000000F8H.3 SFRSYM    DATA     BIT       P53
      000000E8H.4 SFRSYM    DATA     BIT       P44
      000000B0H.5 SFRSYM    DATA     BIT       P35
      000000A0H.6 SFRSYM    DATA     BIT       P26
      00000090H.7 SFRSYM    DATA     BIT       P17
      000000A0H   SFRSYM    DATA     BIT       Value_SDA
      000000E8H.5 SFRSYM    DATA     BIT       P45
      000000B0H.6 SFRSYM    DATA     BIT       P36
      000000A0H.7 SFRSYM    DATA     BIT       P27
      00000080H   SFRSYM    DATA     BIT       TC_C
      000000E8H.6 SFRSYM    DATA     BIT       P46
      000000B0H.7 SFRSYM    DATA     BIT       P37
      000000E8H.7 SFRSYM    DATA     BIT       P47
      000000D7H   SFRSYM    DATA     BYTE      KBMASK
      000000A0H.4 SFRSYM    DATA     BIT       OUT_SCL
      000000A0H   SFRSYM    DATA     BIT       AD_SDA
      00000088H.1 SFRSYM    DATA     BIT       IE0
      00000088H.3 SFRSYM    DATA     BIT       IE1
      00000090H   SFRSYM    DATA     BIT       LED1_SDA
      000000C0H.1 SFRSYM    DATA     BIT       IE2
      00000090H.3 SFRSYM    DATA     BIT       LED2_SDA
      000000C0H.5 SFRSYM    DATA     BIT       IE3
      000000A8H.6 SFRSYM    DATA     BIT       GF4
      0000008EH   SFRSYM    DATA     BYTE      AUXR
      000000F0H   SFRSYM    DATA     BYTE      B
      000000D5H   SFRSYM    DATA     BYTE      KBPATN
      000000A0H.1 SFRSYM    DATA     BIT       Value_SCL
      000000C8H   SFRSYM    DATA     BIT       CP_RL2
      000000A0H.6 SFRSYM    DATA     BIT       NONE_4
      000000A0H.7 SFRSYM    DATA     BIT       NONE_5
      000000B0H.6 SFRSYM    DATA     BIT       NONE_6
      00000086H   SFRSYM    DATA     BYTE      SPIDAT
      000000E0H   SFRSYM    DATA     BYTE      ACC
      000000B0H.7 SFRSYM    DATA     BIT       NONE_7
      000000A0H.1 SFRSYM    DATA     BIT       AD_SCL
      000000A8H.4 SFRSYM    DATA     BIT       ES0
      000000A8H.1 SFRSYM    DATA     BIT       ET0
      00000090H.2 SFRSYM    DATA     BIT       LED1_SCL
      00000088H.5 SFRSYM    DATA     BIT       TF0
      000000A8H.3 SFRSYM    DATA     BIT       ET1
      00000090H.4 SFRSYM    DATA     BIT       LED2_SCL
      00000088H.7 SFRSYM    DATA     BIT       TF1
      00000098H   SFRSYM    DATA     BIT       RI0
      000000A8H.5 SFRSYM    DATA     BIT       ET2
      000000C8H.7 SFRSYM    DATA     BIT       TF2
      00000098H   SFRSYM    DATA     BIT       RI1
      00000098H.2 SFRSYM    DATA     BIT       RB8
      0000008CH   SFRSYM    DATA     BYTE      TH0
      00000088H   SFRSYM    DATA     BIT       IT0
      00000098H.1 SFRSYM    DATA     BIT       TI0
      000000A8H   SFRSYM    DATA     BIT       EX0
LX51 LINKER/LOCATER V4.47a                                                            12/31/2014  11:09:05  PAGE 50


      0000008DH   SFRSYM    DATA     BYTE      TH1
      00000088H.2 SFRSYM    DATA     BIT       IT1
      00000098H.1 SFRSYM    DATA     BIT       TI1
      00000098H.3 SFRSYM    DATA     BIT       TB8
      000000A8H.2 SFRSYM    DATA     BIT       EX1
      00000085H   SFRSYM    DATA     BYTE      SPICON
      000000CDH   SFRSYM    DATA     BYTE      TH2
      000000C0H   SFRSYM    DATA     BIT       IT2
      000000C0H.2 SFRSYM    DATA     BIT       EX2
      000000D0H   SFRSYM    DATA     BIT       P
      000000C0H.4 SFRSYM    DATA     BIT       IT3
      000000C0H.6 SFRSYM    DATA     BIT       EX3
      00000098H.7 SFRSYM    DATA     BIT       SM0
      0000008AH   SFRSYM    DATA     BYTE      TL0
      00000080H.3 SFRSYM    DATA     BIT       mA_C
      000000C8H   SFRSYM    DATA     BIT       XOUT
      00000090H.1 SFRSYM    DATA     BIT       ECI
      00000098H.6 SFRSYM    DATA     BIT       SM1
      00000085H   SFRSYM    DATA     BYTE      SPICTL
      0000008BH   SFRSYM    DATA     BYTE      TL1
      000000AFH   SFRSYM    DATA     BYTE      AUXIPH
      000000E8H.6 SFRSYM    DATA     BIT       ALE
      00000098H.5 SFRSYM    DATA     BIT       SM2
      000000CCH   SFRSYM    DATA     BYTE      TL2
      000000E2H   SFRSYM    DATA     BYTE      IFD
      000000B8H.1 SFRSYM    DATA     BIT       PT0
      000000B0H.5 SFRSYM    DATA     BIT       R485_DE_RE
      000000B8H.3 SFRSYM    DATA     BIT       PT1
      000000D0H.3 SFRSYM    DATA     BIT       RS0
      00000088H.4 SFRSYM    DATA     BIT       TR0
      000000B8H.5 SFRSYM    DATA     BIT       PT2
      000000D0H.4 SFRSYM    DATA     BIT       RS1
      00000088H.6 SFRSYM    DATA     BIT       TR1
      000000C8H.2 SFRSYM    DATA     BIT       TR2
      000000B8H   SFRSYM    DATA     BIT       PX0
      000000AFH   SFRSYM    DATA     BYTE      EIP1H
      000000B8H.2 SFRSYM    DATA     BIT       PX1
      000000C0H.3 SFRSYM    DATA     BIT       PX2
      000000C0H.7 SFRSYM    DATA     BIT       PX3
      000000AEH   SFRSYM    DATA     BYTE      EIP1L
      00000083H   SFRSYM    DATA     BYTE      DPH
      000000C8H   SFRSYM    DATA     BIT       CKO
      00000082H   SFRSYM    DATA     BYTE      DPL
      00000087H   SFRSYM    DATA     BYTE      PCON0
      00000084H   SFRSYM    DATA     BYTE      SPSTAT
      00000099H   SFRSYM    DATA     BYTE      SBUF0
      000000B7H   SFRSYM    DATA     BYTE      IPH
      000000B0H.4 SFRSYM    DATA     BIT       T0CKO
      00000097H   SFRSYM    DATA     BYTE      PCON1
      00000099H   SFRSYM    DATA     BYTE      SBUF1
      000000B0H.5 SFRSYM    DATA     BIT       T1CKO
      000000C8H.3 SFRSYM    DATA     BIT       EXEN2
      000000C7H   SFRSYM    DATA     BYTE      PCON2
      0000009AH   SFRSYM    DATA     BYTE      S2BUF
      000000A0H.5 SFRSYM    DATA     BIT       NONE3
      00000090H.7 SFRSYM    DATA     BIT       none2
      00000098H   SFRSYM    DATA     BYTE      SCON0
      00000098H.4 SFRSYM    DATA     BIT       REN
      00000098H   SFRSYM    DATA     BYTE      SCON1
      00000080H.2 SFRSYM    DATA     BIT       mV_C
      000000C5H   SFRSYM    DATA     BYTE      ADCON
      000000A0H.2 SFRSYM    DATA     BIT       mA_SDA
      000000C9H   SFRSYM    DATA     BYTE      T2MOD
      000000C8H   SFRSYM    DATA     BYTE      T2CON
      000000C5H   SFRSYM    DATA     BYTE      ADCTL
LX51 LINKER/LOCATER V4.47a                                                            12/31/2014  11:09:05  PAGE 51


      000000BEH   SFRSYM    DATA     BYTE      ADCVL
      000000B9H   SFRSYM    DATA     BYTE      SADEN
      0000009AH   SFRSYM    DATA     BYTE      S1BRT
      000000B0H   SFRSYM    DATA     BIT       RXD
      000000D6H   SFRSYM    DATA     BYTE      KBCON
      00000080H.6 SFRSYM    DATA     BIT       UP_KEY
      000000C8H.1 SFRSYM    DATA     BIT       XIN
      000000B8H.4 SFRSYM    DATA     BIT       PSL
      000000A9H   SFRSYM    DATA     BYTE      SADDR
      000000B0H.1 SFRSYM    DATA     BIT       TXD
      000000A0H.4 SFRSYM    DATA     BIT       mA_SCL
      0000008EH   SFRSYM    DATA     BYTE      AUXR0
      000000A2H   SFRSYM    DATA     BYTE      AUXR1
      00000090H.4 SFRSYM    DATA     BIT       SPI_SS
      000000A6H   SFRSYM    DATA     BYTE      AUXR2
      00000090H.2 SFRSYM    DATA     BIT       S2RXD
      000000D0H.5 SFRSYM    DATA     BIT       F0
      000000B0H.4 SFRSYM    DATA     BIT       BEEP_OUT
      00000090H.3 SFRSYM    DATA     BIT       S2TXD
      000000D0H.1 SFRSYM    DATA     BIT       F1
      00000090H.1 SFRSYM    DATA     BIT       LED1_LE
      00000090H.5 SFRSYM    DATA     BIT       LED2_LE
      000000F2H   SFRSYM    DATA     BYTE      PCAPWM0
      000000D0H   SFRSYM    DATA     BYTE      PSW
      000000F3H   SFRSYM    DATA     BYTE      PCAPWM1
      000000A0H.2 SFRSYM    DATA     BIT       mV_SDA
      000000D8H   SFRSYM    DATA     BIT       CCF0
      00000098H.2 SFRSYM    DATA     BIT       RB80
      000000F4H   SFRSYM    DATA     BYTE      PCAPWM2
      000000D8H.1 SFRSYM    DATA     BIT       CCF1
      00000098H.2 SFRSYM    DATA     BIT       RB81
      000000F5H   SFRSYM    DATA     BYTE      PCAPWM3
      00000086H   SFRSYM    DATA     BYTE      SPDAT
      00000093H   SFRSYM    DATA     BYTE      P0M0
      000000ADH   SFRSYM    DATA     BYTE      AUXIE

      01001ADBH   BLOCK     CODE     ---       LVL=0
      00000007H   SYMBOL    DATA     BYTE      LEDs
      00000004H   SYMBOL    DATA     WORD      disp_value
      01001ADBH   BLOCK     CODE     NEAR LAB  LVL=1
      00000007H   SYMBOL    DATA     BYTE      c
      00000062H   SYMBOL    DATA     BYTE      D0
      00000063H   SYMBOL    DATA     BYTE      D1
      00000064H   SYMBOL    DATA     BYTE      D2
      00000065H   SYMBOL    DATA     BYTE      D3
      00000066H   SYMBOL    DATA     BYTE      D4
      00000067H   SYMBOL    DATA     BYTE      D5
      00000068H   SYMBOL    DATA     WORD      D_value
      ---         BLOCKEND  ---      ---       LVL=1
      01001ADBH   LINE      CODE     ---       #20
      01001ADBH   LINE      CODE     ---       #21
      01001ADBH   LINE      CODE     ---       #22
      01001ADBH   LINE      CODE     ---       #23
      01001ADEH   LINE      CODE     ---       #24
      01001AE0H   LINE      CODE     ---       #25
      01001AE2H   LINE      CODE     ---       #26
      01001AE4H   LINE      CODE     ---       #27
      01001AE6H   LINE      CODE     ---       #28
      01001AE8H   LINE      CODE     ---       #31
      01001AECH   LINE      CODE     ---       #32
      01001AECH   LINE      CODE     ---       #34
      01001AF5H   LINE      CODE     ---       #35
      01001AF5H   LINE      CODE     ---       #36
      01001B00H   LINE      CODE     ---       #37
      01001B00H   LINE      CODE     ---       #38
LX51 LINKER/LOCATER V4.47a                                                            12/31/2014  11:09:05  PAGE 52


      01001B07H   LINE      CODE     ---       #39
      01001B09H   LINE      CODE     ---       #40
      01001B0BH   LINE      CODE     ---       #41
      01001B10H   LINE      CODE     ---       #42
      01001B1AH   LINE      CODE     ---       #43
      01001B32H   LINE      CODE     ---       #44
      01001B3CH   LINE      CODE     ---       #45
      01001B3CH   LINE      CODE     ---       #46
      01001B3FH   LINE      CODE     ---       #47
      01001B54H   LINE      CODE     ---       #48
      01001B54H   LINE      CODE     ---       #49
      01001B5BH   LINE      CODE     ---       #50
      01001B5DH   LINE      CODE     ---       #51
      01001B5FH   LINE      CODE     ---       #52
      01001B71H   LINE      CODE     ---       #53
      01001B83H   LINE      CODE     ---       #54
      01001B86H   LINE      CODE     ---       #55
      01001B86H   LINE      CODE     ---       #56
      01001B89H   LINE      CODE     ---       #57
      01001B9EH   LINE      CODE     ---       #58
      01001B9EH   LINE      CODE     ---       #59
      01001BA5H   LINE      CODE     ---       #60
      01001BA7H   LINE      CODE     ---       #61
      01001BAEH   LINE      CODE     ---       #62
      01001BB7H   LINE      CODE     ---       #63
      01001BCCH   LINE      CODE     ---       #67
      01001BE1H   LINE      CODE     ---       #68
      01001BE1H   LINE      CODE     ---       #69
      01001BE8H   LINE      CODE     ---       #70
      01001BEFH   LINE      CODE     ---       #71
      01001C08H   LINE      CODE     ---       #72
      01001C11H   LINE      CODE     ---       #73
      01001C26H   LINE      CODE     ---       #77
      01001C4BH   LINE      CODE     ---       #78
      01001C4BH   LINE      CODE     ---       #79
      01001C52H   LINE      CODE     ---       #80
      01001C6BH   LINE      CODE     ---       #81
      01001C91H   LINE      CODE     ---       #82
      01001C9AH   LINE      CODE     ---       #83
      01001CA9H   LINE      CODE     ---       #84
      01001CA9H   LINE      CODE     ---       #85
      01001CA9H   LINE      CODE     ---       #86
      01001CA9H   LINE      CODE     ---       #87
      01001CACH   LINE      CODE     ---       #89
      01001CACH   LINE      CODE     ---       #90
      01001CB7H   LINE      CODE     ---       #91
      01001CB7H   LINE      CODE     ---       #92
      01001CBEH   LINE      CODE     ---       #93
      01001CC0H   LINE      CODE     ---       #94
      01001CC2H   LINE      CODE     ---       #96
      01001CDAH   LINE      CODE     ---       #97
      01001CF6H   LINE      CODE     ---       #98
      01001D09H   LINE      CODE     ---       #99
      01001D09H   LINE      CODE     ---       #100
      01001D0CH   LINE      CODE     ---       #101
      01001D27H   LINE      CODE     ---       #102
      01001D27H   LINE      CODE     ---       #103
      01001D2EH   LINE      CODE     ---       #104
      01001D30H   LINE      CODE     ---       #105
      01001D32H   LINE      CODE     ---       #107
      01001D70H   LINE      CODE     ---       #108
      01001DB5H   LINE      CODE     ---       #109
      01001DEBH   LINE      CODE     ---       #110
      01001DEBH   LINE      CODE     ---       #111
      01001DEEH   LINE      CODE     ---       #112
LX51 LINKER/LOCATER V4.47a                                                            12/31/2014  11:09:05  PAGE 53


      01001E09H   LINE      CODE     ---       #113
      01001E09H   LINE      CODE     ---       #114
      01001E10H   LINE      CODE     ---       #115
      01001E12H   LINE      CODE     ---       #116
      01001E14H   LINE      CODE     ---       #118
      01001E71H   LINE      CODE     ---       #119
      01001ED5H   LINE      CODE     ---       #120
      01001F2AH   LINE      CODE     ---       #121
      01001F2AH   LINE      CODE     ---       #122
      01001F2DH   LINE      CODE     ---       #123
      01001F48H   LINE      CODE     ---       #124
      01001F48H   LINE      CODE     ---       #125
      01001F4FH   LINE      CODE     ---       #126
      01001F51H   LINE      CODE     ---       #127
      01001F6AH   LINE      CODE     ---       #129
      01001FD5H   LINE      CODE     ---       #130
      01002046H   LINE      CODE     ---       #131
      010020A8H   LINE      CODE     ---       #132
      010020A8H   LINE      CODE     ---       #133
      010020ABH   LINE      CODE     ---       #134
      010020D0H   LINE      CODE     ---       #135
      010020D0H   LINE      CODE     ---       #136
      010020D7H   LINE      CODE     ---       #137
      010020F0H   LINE      CODE     ---       #138
      01002116H   LINE      CODE     ---       #140
      01002181H   LINE      CODE     ---       #141
      010021F1H   LINE      CODE     ---       #142
      01002256H   LINE      CODE     ---       #143
      01002256H   LINE      CODE     ---       #144
      01002256H   LINE      CODE     ---       #145
      01002256H   LINE      CODE     ---       #146
      ---         BLOCKEND  ---      ---       LVL=0

      0100226BH   BLOCK     CODE     ---       LVL=0
      00000007H   SYMBOL    DATA     BYTE      SETUP_SELECT
      00000069H   SYMBOL    DATA     WORD      disp_value
      0100226FH   BLOCK     CODE     NEAR LAB  LVL=1
      0000006BH   SYMBOL    DATA     BYTE      setup_status
      0000006CH   SYMBOL    DATA     BYTE      D0
      0000006DH   SYMBOL    DATA     BYTE      D1
      0000006EH   SYMBOL    DATA     BYTE      D2
      0000006FH   SYMBOL    DATA     BYTE      D3
      00000070H   SYMBOL    DATA     BYTE      D4
      00000071H   SYMBOL    DATA     BYTE      D5
      00000072H   SYMBOL    DATA     BYTE      D6
      00000007H   SYMBOL    DATA     BYTE      K2
      00000003H   SYMBOL    DATA     BYTE      K3
      00000004H   SYMBOL    DATA     BYTE      K4
      00000005H   SYMBOL    DATA     BYTE      K5
      00000073H   SYMBOL    DATA     WORD      D_Value
      00000006H   SYMBOL    DATA     WORD      D_Count
      ---         BLOCKEND  ---      ---       LVL=1
      0100226BH   LINE      CODE     ---       #149
      0100226FH   LINE      CODE     ---       #150
      0100226FH   LINE      CODE     ---       #155
      01002271H   LINE      CODE     ---       #157
      01002275H   LINE      CODE     ---       #159
      01002279H   LINE      CODE     ---       #160
      01002279H   LINE      CODE     ---       #161
      01002280H   LINE      CODE     ---       #162
      01002287H   LINE      CODE     ---       #163
      0100228EH   LINE      CODE     ---       #164
      01002295H   LINE      CODE     ---       #165
      0100229CH   LINE      CODE     ---       #166
      0100229EH   LINE      CODE     ---       #167
LX51 LINKER/LOCATER V4.47a                                                            12/31/2014  11:09:05  PAGE 54


      010022A1H   LINE      CODE     ---       #168
      010022AAH   LINE      CODE     ---       #169
      010022AAH   LINE      CODE     ---       #170
      010022AEH   LINE      CODE     ---       #171
      010022AEH   LINE      CODE     ---       #172
      010022B4H   LINE      CODE     ---       #173
      010022BBH   LINE      CODE     ---       #174
      010022C2H   LINE      CODE     ---       #175
      010022C4H   LINE      CODE     ---       #176
      010022CBH   LINE      CODE     ---       #177
      010022D0H   LINE      CODE     ---       #178
      010022D0H   LINE      CODE     ---       #179
      010022D6H   LINE      CODE     ---       #180
      010022D6H   LINE      CODE     ---       #181
      010022DCH   LINE      CODE     ---       #182
      010022E3H   LINE      CODE     ---       #183
      010022EAH   LINE      CODE     ---       #184
      010022F1H   LINE      CODE     ---       #185
      010022F8H   LINE      CODE     ---       #186
      010022FFH   LINE      CODE     ---       #187
      010022FFH   LINE      CODE     ---       #188
      01002305H   LINE      CODE     ---       #189
      01002305H   LINE      CODE     ---       #190
      0100230BH   LINE      CODE     ---       #191
      01002312H   LINE      CODE     ---       #192
      01002319H   LINE      CODE     ---       #193
      0100231BH   LINE      CODE     ---       #194
      0100231DH   LINE      CODE     ---       #195
      01002324H   LINE      CODE     ---       #196
      01002324H   LINE      CODE     ---       #197
      0100232DH   LINE      CODE     ---       #198
      0100232DH   LINE      CODE     ---       #199
      01002333H   LINE      CODE     ---       #200
      0100233AH   LINE      CODE     ---       #201
      01002341H   LINE      CODE     ---       #202
      01002343H   LINE      CODE     ---       #203
      01002345H   LINE      CODE     ---       #204
      01002348H   LINE      CODE     ---       #205
      01002348H   LINE      CODE     ---       #206
      0100234BH   LINE      CODE     ---       #207
      01002351H   LINE      CODE     ---       #208
      01002351H   LINE      CODE     ---       #209
      01002355H   LINE      CODE     ---       #210
      01002355H   LINE      CODE     ---       #211
      0100235BH   LINE      CODE     ---       #212
      01002362H   LINE      CODE     ---       #213
      01002369H   LINE      CODE     ---       #214
      0100236BH   LINE      CODE     ---       #215
      0100236DH   LINE      CODE     ---       #216
      01002370H   LINE      CODE     ---       #217
      01002373H   LINE      CODE     ---       #218
      0100237CH   LINE      CODE     ---       #219
      0100237CH   LINE      CODE     ---       #220
      01002382H   LINE      CODE     ---       #221
      01002389H   LINE      CODE     ---       #222
      01002390H   LINE      CODE     ---       #223
      01002392H   LINE      CODE     ---       #224
      01002394H   LINE      CODE     ---       #225
      01002397H   LINE      CODE     ---       #226
      01002397H   LINE      CODE     ---       #227
      0100239AH   LINE      CODE     ---       #228
      010023A3H   LINE      CODE     ---       #229
      010023A3H   LINE      CODE     ---       #230
      010023A7H   LINE      CODE     ---       #231
      010023ADH   LINE      CODE     ---       #232
LX51 LINKER/LOCATER V4.47a                                                            12/31/2014  11:09:05  PAGE 55


      010023B4H   LINE      CODE     ---       #233
      010023BBH   LINE      CODE     ---       #234
      010023BDH   LINE      CODE     ---       #235
      010023C0H   LINE      CODE     ---       #236
      010023C2H   LINE      CODE     ---       #237
      010023C2H   LINE      CODE     ---       #238
      010023C8H   LINE      CODE     ---       #239
      010023CEH   LINE      CODE     ---       #240
      010023D5H   LINE      CODE     ---       #241
      010023DCH   LINE      CODE     ---       #242
      010023DEH   LINE      CODE     ---       #243
      010023E5H   LINE      CODE     ---       #244
      010023ECH   LINE      CODE     ---       #245
      010023ECH   LINE      CODE     ---       #246
      010023F2H   LINE      CODE     ---       #247
      010023F8H   LINE      CODE     ---       #248
      010023FFH   LINE      CODE     ---       #249
      01002406H   LINE      CODE     ---       #250
      01002408H   LINE      CODE     ---       #251
      0100240FH   LINE      CODE     ---       #252
      01002416H   LINE      CODE     ---       #253
      01002416H   LINE      CODE     ---       #254
      0100241CH   LINE      CODE     ---       #255
      01002422H   LINE      CODE     ---       #256
      01002429H   LINE      CODE     ---       #257
      01002430H   LINE      CODE     ---       #258
      01002432H   LINE      CODE     ---       #259
      01002439H   LINE      CODE     ---       #260
      01002440H   LINE      CODE     ---       #261
      01002440H   LINE      CODE     ---       #262
      01002446H   LINE      CODE     ---       #263
      0100244CH   LINE      CODE     ---       #264
      01002453H   LINE      CODE     ---       #265
      0100245AH   LINE      CODE     ---       #266
      0100245CH   LINE      CODE     ---       #267
      01002463H   LINE      CODE     ---       #268
      0100246AH   LINE      CODE     ---       #269
      0100246AH   LINE      CODE     ---       #270
      01002473H   LINE      CODE     ---       #271
      01002479H   LINE      CODE     ---       #272
      01002480H   LINE      CODE     ---       #273
      01002487H   LINE      CODE     ---       #274
      01002489H   LINE      CODE     ---       #275
      0100248CH   LINE      CODE     ---       #276
      0100248EH   LINE      CODE     ---       #277
      0100248EH   LINE      CODE     ---       #295
      01002491H   LINE      CODE     ---       #296
      010024A5H   LINE      CODE     ---       #297
      010024A5H   LINE      CODE     ---       #298
      010024ABH   LINE      CODE     ---       #300
      010024B0H   LINE      CODE     ---       #301
      010024B0H   LINE      CODE     ---       #302
      010024B3H   LINE      CODE     ---       #303
      010024B3H   LINE      CODE     ---       #304
      010024B3H   LINE      CODE     ---       #305
      010024B5H   LINE      CODE     ---       #306
      010024BAH   LINE      CODE     ---       #307
      010024BAH   LINE      CODE     ---       #308
      010024BDH   LINE      CODE     ---       #309
      010024BDH   LINE      CODE     ---       #310
      010024BDH   LINE      CODE     ---       #311
      010024BFH   LINE      CODE     ---       #312
      010024C4H   LINE      CODE     ---       #313
      010024C4H   LINE      CODE     ---       #314
      010024C7H   LINE      CODE     ---       #315
LX51 LINKER/LOCATER V4.47a                                                            12/31/2014  11:09:05  PAGE 56


      010024C7H   LINE      CODE     ---       #316
      010024C7H   LINE      CODE     ---       #317
      010024C9H   LINE      CODE     ---       #318
      010024CEH   LINE      CODE     ---       #319
      010024CEH   LINE      CODE     ---       #320
      010024D1H   LINE      CODE     ---       #321
      010024D1H   LINE      CODE     ---       #322
      010024D1H   LINE      CODE     ---       #323
      010024D3H   LINE      CODE     ---       #324
      010024D8H   LINE      CODE     ---       #325
      010024D8H   LINE      CODE     ---       #326
      010024DBH   LINE      CODE     ---       #327
      010024DBH   LINE      CODE     ---       #328
      010024DBH   LINE      CODE     ---       #329
      010024DDH   LINE      CODE     ---       #330
      010024E2H   LINE      CODE     ---       #331
      010024E2H   LINE      CODE     ---       #332
      010024E5H   LINE      CODE     ---       #333
      010024E5H   LINE      CODE     ---       #334
      010024E5H   LINE      CODE     ---       #335
      010024E7H   LINE      CODE     ---       #336
      010024ECH   LINE      CODE     ---       #337
      010024ECH   LINE      CODE     ---       #338
      010024F3H   LINE      CODE     ---       #339
      010024F6H   LINE      CODE     ---       #340
      010024F6H   LINE      CODE     ---       #341
      010024F8H   LINE      CODE     ---       #342
      010024FDH   LINE      CODE     ---       #343
      010024FDH   LINE      CODE     ---       #344
      01002504H   LINE      CODE     ---       #345
      01002507H   LINE      CODE     ---       #346
      01002507H   LINE      CODE     ---       #347
      01002509H   LINE      CODE     ---       #348
      0100250EH   LINE      CODE     ---       #349
      0100250EH   LINE      CODE     ---       #350
      01002515H   LINE      CODE     ---       #351
      0100251CH   LINE      CODE     ---       #352
      0100251CH   LINE      CODE     ---       #353
      0100251EH   LINE      CODE     ---       #354
      01002523H   LINE      CODE     ---       #355
      01002523H   LINE      CODE     ---       #356
      0100252AH   LINE      CODE     ---       #357
      01002531H   LINE      CODE     ---       #358
      01002534H   LINE      CODE     ---       #359
      01002534H   LINE      CODE     ---       #360
      01002545H   LINE      CODE     ---       #361
      01002545H   LINE      CODE     ---       #362
      0100254CH   LINE      CODE     ---       #363
      0100254EH   LINE      CODE     ---       #364
      01002556H   LINE      CODE     ---       #365
      01002556H   LINE      CODE     ---       #366
      01002559H   LINE      CODE     ---       #367
      0100255BH   LINE      CODE     ---       #369
      0100255BH   LINE      CODE     ---       #370
      01002562H   LINE      CODE     ---       #371
      01002562H   LINE      CODE     ---       #372
      0100257BH   LINE      CODE     ---       #373
      0100257BH   LINE      CODE     ---       #374
      01002590H   LINE      CODE     ---       #375
      01002590H   LINE      CODE     ---       #376
      01002597H   LINE      CODE     ---       #377
      01002599H   LINE      CODE     ---       #378
      010025CDH   LINE      CODE     ---       #379
      010025E6H   LINE      CODE     ---       #380
      010025E6H   LINE      CODE     ---       #381
LX51 LINKER/LOCATER V4.47a                                                            12/31/2014  11:09:05  PAGE 57


      01002601H   LINE      CODE     ---       #382
      01002601H   LINE      CODE     ---       #383
      01002608H   LINE      CODE     ---       #384
      01002621H   LINE      CODE     ---       #385
      0100266FH   LINE      CODE     ---       #386
      01002688H   LINE      CODE     ---       #387
      01002688H   LINE      CODE     ---       #388
      010026A3H   LINE      CODE     ---       #389
      010026A3H   LINE      CODE     ---       #390
      010026BCH   LINE      CODE     ---       #391
      010026E2H   LINE      CODE     ---       #392
      01002730H   LINE      CODE     ---       #393
      01002749H   LINE      CODE     ---       #394
      01002749H   LINE      CODE     ---       #395
      0100276EH   LINE      CODE     ---       #396
      0100276EH   LINE      CODE     ---       #397
      01002787H   LINE      CODE     ---       #398
      010027ADH   LINE      CODE     ---       #399
      010027D3H   LINE      CODE     ---       #400
      01002821H   LINE      CODE     ---       #401
      01002837H   LINE      CODE     ---       #402
      01002837H   LINE      CODE     ---       #403
      0100283AH   LINE      CODE     ---       #404
      0100284AH   LINE      CODE     ---       #405
      0100284AH   LINE      CODE     ---       #406
      0100284FH   LINE      CODE     ---       #407
      0100284FH   LINE      CODE     ---       #408
      01002852H   LINE      CODE     ---       #409
      01002852H   LINE      CODE     ---       #410
      01002854H   LINE      CODE     ---       #411
      01002859H   LINE      CODE     ---       #412
      01002859H   LINE      CODE     ---       #413
      01002860H   LINE      CODE     ---       #414
      01002863H   LINE      CODE     ---       #415
      01002865H   LINE      CODE     ---       #416
      0100286AH   LINE      CODE     ---       #417
      0100286AH   LINE      CODE     ---       #418
      01002871H   LINE      CODE     ---       #419
      01002874H   LINE      CODE     ---       #420
      01002876H   LINE      CODE     ---       #421
      0100287BH   LINE      CODE     ---       #422
      0100287BH   LINE      CODE     ---       #423
      01002882H   LINE      CODE     ---       #424
      01002885H   LINE      CODE     ---       #425
      01002887H   LINE      CODE     ---       #426
      0100288CH   LINE      CODE     ---       #427
      0100288CH   LINE      CODE     ---       #428
      01002893H   LINE      CODE     ---       #429
      0100289AH   LINE      CODE     ---       #430
      0100289AH   LINE      CODE     ---       #432
      010028A0H   LINE      CODE     ---       #434
      010028A5H   LINE      CODE     ---       #435
      010028B7H   LINE      CODE     ---       #436
      010028BAH   LINE      CODE     ---       #437
      010028CCH   LINE      CODE     ---       #438
      010028CFH   LINE      CODE     ---       #439
      010028E1H   LINE      CODE     ---       #440
      010028E4H   LINE      CODE     ---       #441
      010028E7H   LINE      CODE     ---       #442
      010028E9H   LINE      CODE     ---       #443
      010028E9H   LINE      CODE     ---       #444
      010028F0H   LINE      CODE     ---       #446
      010028F3H   LINE      CODE     ---       #447
      010028F3H   LINE      CODE     ---       #448
      010028F5H   LINE      CODE     ---       #449
LX51 LINKER/LOCATER V4.47a                                                            12/31/2014  11:09:05  PAGE 58


      010028F9H   LINE      CODE     ---       #450
      010028F9H   LINE      CODE     ---       #451
      010028FBH   LINE      CODE     ---       #453
      010028FBH   LINE      CODE     ---       #454
      01002902H   LINE      CODE     ---       #455
      01002906H   LINE      CODE     ---       #456
      0100290AH   LINE      CODE     ---       #457
      0100290AH   LINE      CODE     ---       #458
      0100290CH   LINE      CODE     ---       #460
      0100290CH   LINE      CODE     ---       #461
      01002913H   LINE      CODE     ---       #462
      01002917H   LINE      CODE     ---       #463
      0100291BH   LINE      CODE     ---       #464
      01002922H   LINE      CODE     ---       #465
      01002924H   LINE      CODE     ---       #466
      0100292BH   LINE      CODE     ---       #467
      0100292BH   LINE      CODE     ---       #468
      0100292EH   LINE      CODE     ---       #469
      01002930H   LINE      CODE     ---       #470
      01002932H   LINE      CODE     ---       #471
      01002935H   LINE      CODE     ---       #472
      01002938H   LINE      CODE     ---       #473
      0100293BH   LINE      CODE     ---       #474
      0100293BH   LINE      CODE     ---       #476
      ---         BLOCKEND  ---      ---       LVL=0
      00000007H   SYMBOL    DATA     BYTE      MM
      00000006H   SYMBOL    DATA     BYTE      D0
      00000001H   SYMBOL    DATA     BYTE      D2
      00000004H   SYMBOL    DATA     BYTE      D3
      00000003H   SYMBOL    DATA     BYTE      D4
      00000005H   SYMBOL    DATA     BYTE      D5
      00000007H   SYMBOL    DATA     BYTE      D_FD
      00000007H   SYMBOL    DATA     BYTE      H_FH
      00000007H   SYMBOL    DATA     BYTE      M_FM

      010055E2H   BLOCK     CODE     ---       LVL=0
      010055E2H   BLOCK     CODE     NEAR LAB  LVL=1
      0000005EH   SYMBOL    DATA     BYTE      D0
      0000005FH   SYMBOL    DATA     BYTE      D1
      00000001H   SYMBOL    DATA     BYTE      D2
      00000006H   SYMBOL    DATA     BYTE      D3
      00000003H   SYMBOL    DATA     BYTE      D4
      00000005H   SYMBOL    DATA     BYTE      D5
      ---         BLOCKEND  ---      ---       LVL=1
      010055E2H   LINE      CODE     ---       #507
      010055E2H   LINE      CODE     ---       #508
      010055E2H   LINE      CODE     ---       #511
      010055E9H   LINE      CODE     ---       #512
      010055EBH   LINE      CODE     ---       #513
      010055EBH   LINE      CODE     ---       #514
      010055EBH   LINE      CODE     ---       #515
      010055ECH   LINE      CODE     ---       #516
      010055EDH   LINE      CODE     ---       #519
      ---         BLOCKEND  ---      ---       LVL=0

      01005747H   BLOCK     CODE     ---       LVL=0
      01005747H   BLOCK     CODE     NEAR LAB  LVL=1
      00000007H   SYMBOL    DATA     BYTE      k
      ---         BLOCKEND  ---      ---       LVL=1
      01005747H   LINE      CODE     ---       #522
      01005747H   LINE      CODE     ---       #523
      01005747H   LINE      CODE     ---       #526
      0100574DH   LINE      CODE     ---       #527
      ---         BLOCKEND  ---      ---       LVL=0

LX51 LINKER/LOCATER V4.47a                                                            12/31/2014  11:09:05  PAGE 59


      0100543CH   BLOCK     CODE     ---       LVL=0
      0100543CH   BLOCK     CODE     NEAR LAB  LVL=1
      00000006H   SYMBOL    DATA     WORD      i
      ---         BLOCKEND  ---      ---       LVL=1
      0100543CH   LINE      CODE     ---       #529
      0100543CH   LINE      CODE     ---       #530
      0100543CH   LINE      CODE     ---       #533
      0100543EH   LINE      CODE     ---       #534
      01005440H   LINE      CODE     ---       #535
      01005442H   LINE      CODE     ---       #536
      01005444H   LINE      CODE     ---       #537
      01005446H   LINE      CODE     ---       #538
      01005448H   LINE      CODE     ---       #540
      0100544BH   LINE      CODE     ---       #541
      0100544EH   LINE      CODE     ---       #542
      01005451H   LINE      CODE     ---       #543
      01005454H   LINE      CODE     ---       #545
      01005464H   LINE      CODE     ---       #546
      ---         BLOCKEND  ---      ---       LVL=0

      01004C35H   BLOCK     CODE     ---       LVL=0
      00000007H   SYMBOL    DATA     BYTE      prt
      00000001H   SYMBOL    DATA     BYTE      D5
      00000003H   SYMBOL    DATA     BYTE      D4
      00000078H   SYMBOL    DATA     BYTE      D3
      00000079H   SYMBOL    DATA     BYTE      D2
      0000007AH   SYMBOL    DATA     BYTE      D1
      0000007BH   SYMBOL    DATA     BYTE      D0
      01004C37H   BLOCK     CODE     NEAR LAB  LVL=1
      00000005H   SYMBOL    DATA     BYTE      c
      00000002H   SYMBOL    DATA     BYTE      DISP_CODE
      00000004H   SYMBOL    DATA     BYTE      D_count
      00000006H   SYMBOL    DATA     BYTE      D_time
      ---         BLOCKEND  ---      ---       LVL=1
      01004C35H   LINE      CODE     ---       #553
      01004C37H   LINE      CODE     ---       #554
      01004C37H   LINE      CODE     ---       #556
      01004C37H   LINE      CODE     ---       #557
      01004C39H   LINE      CODE     ---       #558
      01004C3BH   LINE      CODE     ---       #559
      01004C40H   LINE      CODE     ---       #560
      01004C40H   LINE      CODE     ---       #561
      01004C42H   LINE      CODE     ---       #563
      01004C43H   LINE      CODE     ---       #564
      01004C43H   LINE      CODE     ---       #565
      01004C45H   LINE      CODE     ---       #566
      01004C47H   LINE      CODE     ---       #567
      01004C49H   LINE      CODE     ---       #568
      01004C49H   LINE      CODE     ---       #569
      01004C4CH   LINE      CODE     ---       #570
      01004C4EH   LINE      CODE     ---       #571
      01004C51H   LINE      CODE     ---       #572
      01004C53H   LINE      CODE     ---       #573
      01004C57H   LINE      CODE     ---       #574
      01004C5BH   LINE      CODE     ---       #575
      01004C5DH   LINE      CODE     ---       #576
      01004C5DH   LINE      CODE     ---       #577
      01004C5FH   LINE      CODE     ---       #578
      01004C61H   LINE      CODE     ---       #579
      01004C63H   LINE      CODE     ---       #580
      01004C63H   LINE      CODE     ---       #581
      01004C69H   LINE      CODE     ---       #582
      01004C6CH   LINE      CODE     ---       #583
      01004C6EH   LINE      CODE     ---       #584
      01004C71H   LINE      CODE     ---       #585
LX51 LINKER/LOCATER V4.47a                                                            12/31/2014  11:09:05  PAGE 60


      01004C73H   LINE      CODE     ---       #586
      01004C75H   LINE      CODE     ---       #587
      01004C79H   LINE      CODE     ---       #588
      01004C7DH   LINE      CODE     ---       #589
      01004C84H   LINE      CODE     ---       #590
      01004C8BH   LINE      CODE     ---       #591
      01004C92H   LINE      CODE     ---       #592
      01004C99H   LINE      CODE     ---       #593
      01004C9EH   LINE      CODE     ---       #594
      01004CA2H   LINE      CODE     ---       #595
      01004CA4H   LINE      CODE     ---       #596
      01004CA7H   LINE      CODE     ---       #597
      01004CA9H   LINE      CODE     ---       #598
      01004CA9H   LINE      CODE     ---       #599
      01004CAEH   LINE      CODE     ---       #600
      01004CAEH   LINE      CODE     ---       #601
      01004CB0H   LINE      CODE     ---       #603
      01004CB1H   LINE      CODE     ---       #604
      01004CB1H   LINE      CODE     ---       #605
      01004CB3H   LINE      CODE     ---       #607
      01004CB5H   LINE      CODE     ---       #608
      01004CB5H   LINE      CODE     ---       #609
      01004CBBH   LINE      CODE     ---       #610
      01004CBEH   LINE      CODE     ---       #611
      01004CC0H   LINE      CODE     ---       #612
      01004CC3H   LINE      CODE     ---       #613
      01004CC5H   LINE      CODE     ---       #614
      01004CC7H   LINE      CODE     ---       #615
      01004CCBH   LINE      CODE     ---       #616
      01004CCFH   LINE      CODE     ---       #617
      01004CD6H   LINE      CODE     ---       #618
      01004CDDH   LINE      CODE     ---       #619
      01004CE4H   LINE      CODE     ---       #620
      01004CEBH   LINE      CODE     ---       #621
      01004CF0H   LINE      CODE     ---       #622
      01004CF4H   LINE      CODE     ---       #623
      01004CF6H   LINE      CODE     ---       #624
      01004CF9H   LINE      CODE     ---       #625
      01004CFBH   LINE      CODE     ---       #626
      01004CFBH   LINE      CODE     ---       #628
      ---         BLOCKEND  ---      ---       LVL=0

      ---         MODULE    ---      ---       AD3421
      0000000BH   PUBLIC    DATA     BYTE      ad_ack
      01005465H   PUBLIC    CODE     ---       _AD3421_read_com
      01005714H   PUBLIC    CODE     ---       _AD3421_write_com
      0100523BH   PUBLIC    CODE     ---       _AD3421_read_byte
      010051FFH   PUBLIC    CODE     ---       _AD3421_write_byte
      0100571FH   PUBLIC    CODE     ---       AD3421_stop
      01005651H   PUBLIC    CODE     ---       AD3421_start
      01005575H   PUBLIC    CODE     ---       AD3421_Init
      0100574EH   PUBLIC    CODE     ---       AD_BitDly
      010055FCH   PUBLIC    CODE     ---       Get_AD3421_Value
      000000B0H   SFRSYM    DATA     BIT       R485_RX
      000000D8H.2 SFRSYM    DATA     BIT       CCF2
      00000098H.3 SFRSYM    DATA     BIT       TB80
      000000F6H   SFRSYM    DATA     BYTE      PCAPWM4
      00000091H   SFRSYM    DATA     BYTE      P1M0
      00000094H   SFRSYM    DATA     BYTE      P0M1
      000000D8H.3 SFRSYM    DATA     BIT       CCF3
      00000098H.3 SFRSYM    DATA     BIT       TB81
      000000F7H   SFRSYM    DATA     BYTE      PCAPWM5
      00000095H   SFRSYM    DATA     BYTE      P2M0
      00000092H   SFRSYM    DATA     BYTE      P1M1
      00000080H   SFRSYM    DATA     BYTE      P0
LX51 LINKER/LOCATER V4.47a                                                            12/31/2014  11:09:05  PAGE 61


      000000B0H.1 SFRSYM    DATA     BIT       R485_TX
      000000D8H.4 SFRSYM    DATA     BIT       CCF4
      00000098H.7 SFRSYM    DATA     BIT       SM00
      000000B1H   SFRSYM    DATA     BYTE      P3M0
      00000096H   SFRSYM    DATA     BYTE      P2M1
      00000090H   SFRSYM    DATA     BYTE      P1
      000000D8H.5 SFRSYM    DATA     BIT       CCF5
      00000098H.7 SFRSYM    DATA     BIT       SM01
      00000098H.6 SFRSYM    DATA     BIT       SM10
      000000B3H   SFRSYM    DATA     BYTE      P4M0
      000000B2H   SFRSYM    DATA     BYTE      P3M1
      000000A0H   SFRSYM    DATA     BYTE      P2
      00000098H.6 SFRSYM    DATA     BIT       SM11
      00000098H.5 SFRSYM    DATA     BIT       SM20
      000000E7H   SFRSYM    DATA     BYTE      ISPCR
      000000B5H   SFRSYM    DATA     BYTE      P5M0
      000000B4H   SFRSYM    DATA     BYTE      P4M1
      000000B0H   SFRSYM    DATA     BYTE      P3
      000000C0H   SFRSYM    DATA     BYTE      XICON
      000000A0H.2 SFRSYM    DATA     BIT       EEPROM_SDA
      00000080H.7 SFRSYM    DATA     BIT       DOWN_KEY
      000000B0H.4 SFRSYM    DATA     BIT       T0
      00000098H.5 SFRSYM    DATA     BIT       SM21
      000000D0H.6 SFRSYM    DATA     BIT       AC
      00000097H   SFRSYM    DATA     BYTE      EVRCR
      000000B6H   SFRSYM    DATA     BYTE      P5M1
      000000E8H   SFRSYM    DATA     BYTE      P4
      000000B0H.5 SFRSYM    DATA     BIT       T1
      00000085H   SFRSYM    DATA     BYTE      SPCON
      000000F8H   SFRSYM    DATA     BYTE      P5
      000000ADH   SFRSYM    DATA     BYTE      EIE1
      00000090H   SFRSYM    DATA     BIT       T2
      000000A8H.7 SFRSYM    DATA     BIT       EA
      000000ACH   SFRSYM    DATA     BYTE      SFRPI
      000000E1H   SFRSYM    DATA     BYTE      WDTCR
      000000C8H   SFRSYM    DATA     BYTE      P6
      000000A0H.4 SFRSYM    DATA     BIT       mV_SCL
      000000A0H   SFRSYM    DATA     BIT       KBI0
      00000090H.5 SFRSYM    DATA     BIT       SPI_MOSI
      00000090H.6 SFRSYM    DATA     BIT       SPI_MISO
      00000080H.5 SFRSYM    DATA     BIT       mA_OUT
      000000A0H.1 SFRSYM    DATA     BIT       KBI1
      00000085H   SFRSYM    DATA     BYTE      SPCTL
      000000A0H.2 SFRSYM    DATA     BIT       KBI2
      00000090H   SFRSYM    DATA     BIT       AIN0
      000000D8H.7 SFRSYM    DATA     BIT       CF
      000000AEH   SFRSYM    DATA     BYTE      AUXIP
      000000A0H.3 SFRSYM    DATA     BIT       KBI3
      00000090H.1 SFRSYM    DATA     BIT       AIN1
      000000A0H.4 SFRSYM    DATA     BIT       KBI4
      00000090H.2 SFRSYM    DATA     BIT       AIN2
      00000098H.7 SFRSYM    DATA     BIT       FE
      000000F9H   SFRSYM    DATA     BYTE      CH
      000000A0H.5 SFRSYM    DATA     BIT       KBI5
      00000090H.3 SFRSYM    DATA     BIT       AIN3
      000000A0H.6 SFRSYM    DATA     BIT       KBI6
      00000090H.4 SFRSYM    DATA     BIT       AIN4
      000000A0H.3 SFRSYM    DATA     BIT       EEPROM_SCL
      00000080H.1 SFRSYM    DATA     BIT       RTD_C
      000000A0H.7 SFRSYM    DATA     BIT       KBI7
      00000090H.5 SFRSYM    DATA     BIT       AIN5
      000000A8H   SFRSYM    DATA     BYTE      IE
      00000090H.6 SFRSYM    DATA     BIT       AIN6
      000000E9H   SFRSYM    DATA     BYTE      CL
      00000090H.7 SFRSYM    DATA     BIT       AIN7
LX51 LINKER/LOCATER V4.47a                                                            12/31/2014  11:09:05  PAGE 62


      00000090H.2 SFRSYM    DATA     BIT       CEX0
      000000FAH   SFRSYM    DATA     BYTE      CCAP0H
      000000C6H   SFRSYM    DATA     BYTE      ADCH
      00000090H.3 SFRSYM    DATA     BIT       CEX1
      000000FBH   SFRSYM    DATA     BYTE      CCAP1H
      000000B7H   SFRSYM    DATA     BYTE      IP0H
      000000A0H.2 SFRSYM    DATA     BIT       ALL_SDA
      00000090H.4 SFRSYM    DATA     BIT       CEX2
      000000FCH   SFRSYM    DATA     BYTE      CCAP2H
      000000B0H.3 SFRSYM    DATA     BIT       OFFSET_KEY
      00000090H.5 SFRSYM    DATA     BIT       CEX3
      000000FDH   SFRSYM    DATA     BYTE      CCAP3H
      00000090H.6 SFRSYM    DATA     BIT       CEX4
      000000D8H.6 SFRSYM    DATA     BIT       CR
      000000FEH   SFRSYM    DATA     BYTE      CCAP4H
      000000EAH   SFRSYM    DATA     BYTE      CCAP0L
      000000BEH   SFRSYM    DATA     BYTE      ADCL
      000000B0H.7 SFRSYM    DATA     BIT       RD
      00000090H.7 SFRSYM    DATA     BIT       CEX5
      000000C8H.6 SFRSYM    DATA     BIT       EXF2
      00000098H.4 SFRSYM    DATA     BIT       REN0
      000000FFH   SFRSYM    DATA     BYTE      CCAP5H
      000000EBH   SFRSYM    DATA     BYTE      CCAP1L
      000000DAH   SFRSYM    DATA     BYTE      CCAPM0
      000000B8H   SFRSYM    DATA     BYTE      IP0L
      00000098H.4 SFRSYM    DATA     BIT       REN1
      000000ECH   SFRSYM    DATA     BYTE      CCAP2L
      000000DBH   SFRSYM    DATA     BYTE      CCAPM1
      000000C0H.3 SFRSYM    DATA     BIT       IT2H
      000000A8H.4 SFRSYM    DATA     BIT       ES
      00000097H   SFRSYM    DATA     BYTE      TSTWD
      000000EDH   SFRSYM    DATA     BYTE      CCAP3L
      000000DCH   SFRSYM    DATA     BYTE      CCAPM2
      000000C0H.7 SFRSYM    DATA     BIT       IT3H
      000000EEH   SFRSYM    DATA     BYTE      CCAP4L
      000000DDH   SFRSYM    DATA     BYTE      CCAPM3
      000000B8H   SFRSYM    DATA     BYTE      IP
      000000EFH   SFRSYM    DATA     BYTE      CCAP5L
      000000DEH   SFRSYM    DATA     BYTE      CCAPM4
      00000098H   SFRSYM    DATA     BIT       RI
      000000DFH   SFRSYM    DATA     BYTE      CCAPM5
      000000B0H.2 SFRSYM    DATA     BIT       INT0
      000000D0H.7 SFRSYM    DATA     BIT       CY
      000000B0H.4 SFRSYM    DATA     BIT       BEEP
      00000080H.4 SFRSYM    DATA     BIT       mV_OUT
      000000B0H.3 SFRSYM    DATA     BIT       INT1
      00000098H.1 SFRSYM    DATA     BIT       TI
      000000A0H.3 SFRSYM    DATA     BIT       EEP_SCL
      000000E8H.3 SFRSYM    DATA     BIT       INT2
      000000E8H.2 SFRSYM    DATA     BIT       INT3
      000000C6H   SFRSYM    DATA     BYTE      ADCV
      0000008FH   SFRSYM    DATA     BYTE      STRETCH
      000000B8H.1 SFRSYM    DATA     BIT       PT0L
      000000B8H.3 SFRSYM    DATA     BIT       PT1L
      000000CBH   SFRSYM    DATA     BYTE      RCAP2H
      000000A0H.2 SFRSYM    DATA     BIT       RTC_SDA
      000000B8H.4 SFRSYM    DATA     BIT       PS
      000000B8H.5 SFRSYM    DATA     BIT       PT2L
      00000081H   SFRSYM    DATA     BYTE      SP
      00000090H.1 SFRSYM    DATA     BIT       T2EX
      000000D9H   SFRSYM    DATA     BYTE      CMOD
      000000D8H   SFRSYM    DATA     BYTE      CCON
      0000009AH   SFRSYM    DATA     BYTE      SCFG
      000000B8H   SFRSYM    DATA     BIT       PX0L
      000000D0H.2 SFRSYM    DATA     BIT       OV
LX51 LINKER/LOCATER V4.47a                                                            12/31/2014  11:09:05  PAGE 63


      000000B8H.2 SFRSYM    DATA     BIT       PX1L
      000000CAH   SFRSYM    DATA     BYTE      RCAP2L
      000000B8H.6 SFRSYM    DATA     BIT       PX2L
      00000090H.7 SFRSYM    DATA     BIT       SPI_CLK
      000000B8H.7 SFRSYM    DATA     BIT       PX3L
      000000E6H   SFRSYM    DATA     BYTE      SCMD
      000000B0H.6 SFRSYM    DATA     BIT       WR
      000000C8H.1 SFRSYM    DATA     BIT       C_T2
      00000084H   SFRSYM    DATA     BYTE      SPISTAT
      00000090H.6 SFRSYM    DATA     BIT       RTC_SCL
      000000C8H.5 SFRSYM    DATA     BIT       RCLK
      000000C8H.4 SFRSYM    DATA     BIT       TCLK
      00000080H   SFRSYM    DATA     BIT       P00
      000000E3H   SFRSYM    DATA     BYTE      IFADRH
      00000090H   SFRSYM    DATA     BIT       P10
      00000080H.1 SFRSYM    DATA     BIT       P01
      000000E5H   SFRSYM    DATA     BYTE      IFMT
      00000087H   SFRSYM    DATA     BYTE      PCON
      00000099H   SFRSYM    DATA     BYTE      SBUF
      000000A0H   SFRSYM    DATA     BIT       P20
      00000090H.1 SFRSYM    DATA     BIT       P11
      00000080H.2 SFRSYM    DATA     BIT       P02
      000000B0H   SFRSYM    DATA     BIT       P30
      000000A0H.1 SFRSYM    DATA     BIT       P21
      00000090H.2 SFRSYM    DATA     BIT       P12
      00000080H.3 SFRSYM    DATA     BIT       P03
      000000B0H.2 SFRSYM    DATA     BIT       FUNCTION_KEY
      000000E8H   SFRSYM    DATA     BIT       P40
      000000B0H.1 SFRSYM    DATA     BIT       P31
      000000A0H.2 SFRSYM    DATA     BIT       P22
      00000090H.3 SFRSYM    DATA     BIT       P13
      00000080H.4 SFRSYM    DATA     BIT       P04
      000000E4H   SFRSYM    DATA     BYTE      IFADRL
      00000098H   SFRSYM    DATA     BYTE      SCON
      000000F8H   SFRSYM    DATA     BIT       P50
      000000E8H.1 SFRSYM    DATA     BIT       P41
      000000B0H.2 SFRSYM    DATA     BIT       P32
      000000A0H.3 SFRSYM    DATA     BIT       P23
      00000090H.4 SFRSYM    DATA     BIT       P14
      00000080H.5 SFRSYM    DATA     BIT       P05
      00000089H   SFRSYM    DATA     BYTE      TMOD
      00000088H   SFRSYM    DATA     BYTE      TCON
      000000C8H   SFRSYM    DATA     BIT       P60
      000000F8H.1 SFRSYM    DATA     BIT       P51
      000000E8H.2 SFRSYM    DATA     BIT       P42
      000000B0H.3 SFRSYM    DATA     BIT       P33
      000000A0H.4 SFRSYM    DATA     BIT       P24
      00000090H.5 SFRSYM    DATA     BIT       P15
      00000080H.6 SFRSYM    DATA     BIT       P06
      000000C8H.1 SFRSYM    DATA     BIT       P61
      000000F8H.2 SFRSYM    DATA     BIT       P52
      000000E8H.3 SFRSYM    DATA     BIT       P43
      000000B0H.4 SFRSYM    DATA     BIT       P34
      000000A0H.5 SFRSYM    DATA     BIT       P25
      00000090H.6 SFRSYM    DATA     BIT       P16
      00000080H.7 SFRSYM    DATA     BIT       P07
      000000F8H.3 SFRSYM    DATA     BIT       P53
      000000E8H.4 SFRSYM    DATA     BIT       P44
      000000B0H.5 SFRSYM    DATA     BIT       P35
      000000A0H.6 SFRSYM    DATA     BIT       P26
      00000090H.7 SFRSYM    DATA     BIT       P17
      000000A0H   SFRSYM    DATA     BIT       Value_SDA
      000000E8H.5 SFRSYM    DATA     BIT       P45
      000000B0H.6 SFRSYM    DATA     BIT       P36
      000000A0H.7 SFRSYM    DATA     BIT       P27
LX51 LINKER/LOCATER V4.47a                                                            12/31/2014  11:09:05  PAGE 64


      00000080H   SFRSYM    DATA     BIT       TC_C
      000000E8H.6 SFRSYM    DATA     BIT       P46
      000000B0H.7 SFRSYM    DATA     BIT       P37
      000000E8H.7 SFRSYM    DATA     BIT       P47
      000000D7H   SFRSYM    DATA     BYTE      KBMASK
      000000A0H.4 SFRSYM    DATA     BIT       OUT_SCL
      000000A0H   SFRSYM    DATA     BIT       AD_SDA
      00000088H.1 SFRSYM    DATA     BIT       IE0
      00000088H.3 SFRSYM    DATA     BIT       IE1
      00000090H   SFRSYM    DATA     BIT       LED1_SDA
      000000C0H.1 SFRSYM    DATA     BIT       IE2
      00000090H.3 SFRSYM    DATA     BIT       LED2_SDA
      000000C0H.5 SFRSYM    DATA     BIT       IE3
      000000A8H.6 SFRSYM    DATA     BIT       GF4
      0000008EH   SFRSYM    DATA     BYTE      AUXR
      000000F0H   SFRSYM    DATA     BYTE      B
      000000D5H   SFRSYM    DATA     BYTE      KBPATN
      000000A0H.1 SFRSYM    DATA     BIT       Value_SCL
      000000C8H   SFRSYM    DATA     BIT       CP_RL2
      000000A0H.6 SFRSYM    DATA     BIT       NONE_4
      000000A0H.7 SFRSYM    DATA     BIT       NONE_5
      000000B0H.6 SFRSYM    DATA     BIT       NONE_6
      00000086H   SFRSYM    DATA     BYTE      SPIDAT
      000000E0H   SFRSYM    DATA     BYTE      ACC
      000000B0H.7 SFRSYM    DATA     BIT       NONE_7
      000000A0H.1 SFRSYM    DATA     BIT       AD_SCL
      000000A8H.4 SFRSYM    DATA     BIT       ES0
      000000A8H.1 SFRSYM    DATA     BIT       ET0
      00000090H.2 SFRSYM    DATA     BIT       LED1_SCL
      00000088H.5 SFRSYM    DATA     BIT       TF0
      000000A8H.3 SFRSYM    DATA     BIT       ET1
      00000090H.4 SFRSYM    DATA     BIT       LED2_SCL
      00000088H.7 SFRSYM    DATA     BIT       TF1
      00000098H   SFRSYM    DATA     BIT       RI0
      000000A8H.5 SFRSYM    DATA     BIT       ET2
      000000C8H.7 SFRSYM    DATA     BIT       TF2
      00000098H   SFRSYM    DATA     BIT       RI1
      00000098H.2 SFRSYM    DATA     BIT       RB8
      0000008CH   SFRSYM    DATA     BYTE      TH0
      00000088H   SFRSYM    DATA     BIT       IT0
      00000098H.1 SFRSYM    DATA     BIT       TI0
      000000A8H   SFRSYM    DATA     BIT       EX0
      0000008DH   SFRSYM    DATA     BYTE      TH1
      00000088H.2 SFRSYM    DATA     BIT       IT1
      00000098H.1 SFRSYM    DATA     BIT       TI1
      00000098H.3 SFRSYM    DATA     BIT       TB8
      000000A8H.2 SFRSYM    DATA     BIT       EX1
      00000085H   SFRSYM    DATA     BYTE      SPICON
      000000CDH   SFRSYM    DATA     BYTE      TH2
      000000C0H   SFRSYM    DATA     BIT       IT2
      000000C0H.2 SFRSYM    DATA     BIT       EX2
      000000D0H   SFRSYM    DATA     BIT       P
      000000C0H.4 SFRSYM    DATA     BIT       IT3
      000000C0H.6 SFRSYM    DATA     BIT       EX3
      00000098H.7 SFRSYM    DATA     BIT       SM0
      0000008AH   SFRSYM    DATA     BYTE      TL0
      00000080H.3 SFRSYM    DATA     BIT       mA_C
      000000C8H   SFRSYM    DATA     BIT       XOUT
      00000090H.1 SFRSYM    DATA     BIT       ECI
      00000098H.6 SFRSYM    DATA     BIT       SM1
      00000085H   SFRSYM    DATA     BYTE      SPICTL
      0000008BH   SFRSYM    DATA     BYTE      TL1
      000000AFH   SFRSYM    DATA     BYTE      AUXIPH
      000000E8H.6 SFRSYM    DATA     BIT       ALE
      00000098H.5 SFRSYM    DATA     BIT       SM2
LX51 LINKER/LOCATER V4.47a                                                            12/31/2014  11:09:05  PAGE 65


      000000CCH   SFRSYM    DATA     BYTE      TL2
      000000E2H   SFRSYM    DATA     BYTE      IFD
      000000B8H.1 SFRSYM    DATA     BIT       PT0
      000000B0H.5 SFRSYM    DATA     BIT       R485_DE_RE
      000000B8H.3 SFRSYM    DATA     BIT       PT1
      000000D0H.3 SFRSYM    DATA     BIT       RS0
      00000088H.4 SFRSYM    DATA     BIT       TR0
      000000B8H.5 SFRSYM    DATA     BIT       PT2
      000000D0H.4 SFRSYM    DATA     BIT       RS1
      00000088H.6 SFRSYM    DATA     BIT       TR1
      000000C8H.2 SFRSYM    DATA     BIT       TR2
      000000B8H   SFRSYM    DATA     BIT       PX0
      000000AFH   SFRSYM    DATA     BYTE      EIP1H
      000000B8H.2 SFRSYM    DATA     BIT       PX1
      000000C0H.3 SFRSYM    DATA     BIT       PX2
      000000C0H.7 SFRSYM    DATA     BIT       PX3
      000000AEH   SFRSYM    DATA     BYTE      EIP1L
      00000083H   SFRSYM    DATA     BYTE      DPH
      000000C8H   SFRSYM    DATA     BIT       CKO
      00000082H   SFRSYM    DATA     BYTE      DPL
      00000087H   SFRSYM    DATA     BYTE      PCON0
      00000084H   SFRSYM    DATA     BYTE      SPSTAT
      00000099H   SFRSYM    DATA     BYTE      SBUF0
      000000B7H   SFRSYM    DATA     BYTE      IPH
      000000B0H.4 SFRSYM    DATA     BIT       T0CKO
      00000097H   SFRSYM    DATA     BYTE      PCON1
      00000099H   SFRSYM    DATA     BYTE      SBUF1
      000000B0H.5 SFRSYM    DATA     BIT       T1CKO
      000000C8H.3 SFRSYM    DATA     BIT       EXEN2
      000000C7H   SFRSYM    DATA     BYTE      PCON2
      0000009AH   SFRSYM    DATA     BYTE      S2BUF
      000000A0H.5 SFRSYM    DATA     BIT       NONE3
      00000090H.7 SFRSYM    DATA     BIT       none2
      00000098H   SFRSYM    DATA     BYTE      SCON0
      00000098H.4 SFRSYM    DATA     BIT       REN
      00000098H   SFRSYM    DATA     BYTE      SCON1
      00000080H.2 SFRSYM    DATA     BIT       mV_C
      000000C5H   SFRSYM    DATA     BYTE      ADCON
      000000A0H.2 SFRSYM    DATA     BIT       mA_SDA
      000000C9H   SFRSYM    DATA     BYTE      T2MOD
      000000C8H   SFRSYM    DATA     BYTE      T2CON
      000000C5H   SFRSYM    DATA     BYTE      ADCTL
      000000BEH   SFRSYM    DATA     BYTE      ADCVL
      000000B9H   SFRSYM    DATA     BYTE      SADEN
      0000009AH   SFRSYM    DATA     BYTE      S1BRT
      000000B0H   SFRSYM    DATA     BIT       RXD
      000000D6H   SFRSYM    DATA     BYTE      KBCON
      00000080H.6 SFRSYM    DATA     BIT       UP_KEY
      000000C8H.1 SFRSYM    DATA     BIT       XIN
      000000B8H.4 SFRSYM    DATA     BIT       PSL
      000000A9H   SFRSYM    DATA     BYTE      SADDR
      000000B0H.1 SFRSYM    DATA     BIT       TXD
      000000A0H.4 SFRSYM    DATA     BIT       mA_SCL
      0000008EH   SFRSYM    DATA     BYTE      AUXR0
      000000A2H   SFRSYM    DATA     BYTE      AUXR1
      00000090H.4 SFRSYM    DATA     BIT       SPI_SS
      000000A6H   SFRSYM    DATA     BYTE      AUXR2
      00000090H.2 SFRSYM    DATA     BIT       S2RXD
      000000D0H.5 SFRSYM    DATA     BIT       F0
      000000B0H.4 SFRSYM    DATA     BIT       BEEP_OUT
      00000090H.3 SFRSYM    DATA     BIT       S2TXD
      000000D0H.1 SFRSYM    DATA     BIT       F1
      00000090H.1 SFRSYM    DATA     BIT       LED1_LE
      00000090H.5 SFRSYM    DATA     BIT       LED2_LE
      000000F2H   SFRSYM    DATA     BYTE      PCAPWM0
LX51 LINKER/LOCATER V4.47a                                                            12/31/2014  11:09:05  PAGE 66


      000000D0H   SFRSYM    DATA     BYTE      PSW
      000000F3H   SFRSYM    DATA     BYTE      PCAPWM1
      000000A0H.2 SFRSYM    DATA     BIT       mV_SDA
      000000D8H   SFRSYM    DATA     BIT       CCF0
      00000098H.2 SFRSYM    DATA     BIT       RB80
      000000F4H   SFRSYM    DATA     BYTE      PCAPWM2
      000000D8H.1 SFRSYM    DATA     BIT       CCF1
      00000098H.2 SFRSYM    DATA     BIT       RB81
      000000F5H   SFRSYM    DATA     BYTE      PCAPWM3
      00000086H   SFRSYM    DATA     BYTE      SPDAT
      00000093H   SFRSYM    DATA     BYTE      P0M0
      000000ADH   SFRSYM    DATA     BYTE      AUXIE

      010055FCH   BLOCK     CODE     ---       LVL=0
      010055FCH   BLOCK     CODE     NEAR LAB  LVL=1
      00000010H   SYMBOL    IDATA    BYTE      res
      ---         BLOCKEND  ---      ---       LVL=1
      010055FCH   LINE      CODE     ---       #25
      010055FCH   LINE      CODE     ---       #26
      010055FCH   LINE      CODE     ---       #28
      01005600H   LINE      CODE     ---       #29
      01005603H   LINE      CODE     ---       #30
      0100560AH   LINE      CODE     ---       #31
      0100560FH   LINE      CODE     ---       #32
      01005613H   LINE      CODE     ---       #33
      ---         BLOCKEND  ---      ---       LVL=0

      0100574EH   BLOCK     CODE     ---       LVL=0
      0100574EH   BLOCK     CODE     NEAR LAB  LVL=1
      00000007H   SYMBOL    DATA     BYTE      i
      ---         BLOCKEND  ---      ---       LVL=1
      0100574EH   LINE      CODE     ---       #35
      0100574EH   LINE      CODE     ---       #36
      0100574EH   LINE      CODE     ---       #39
      01005754H   LINE      CODE     ---       #40
      ---         BLOCKEND  ---      ---       LVL=0

      01005575H   BLOCK     CODE     ---       LVL=0
      01005575H   BLOCK     CODE     NEAR LAB  LVL=1
      00000007H   SYMBOL    DATA     BYTE      i
      ---         BLOCKEND  ---      ---       LVL=1
      01005575H   LINE      CODE     ---       #42
      01005575H   LINE      CODE     ---       #43
      01005575H   LINE      CODE     ---       #45
      01005577H   LINE      CODE     ---       #46
      0100557AH   LINE      CODE     ---       #47
      0100557CH   LINE      CODE     ---       #48
      0100557FH   LINE      CODE     ---       #49
      01005582H   LINE      CODE     ---       #50
      01005585H   LINE      CODE     ---       #51
      01005588H   LINE      CODE     ---       #52
      0100558AH   LINE      CODE     ---       #54
      01005590H   LINE      CODE     ---       #55
      ---         BLOCKEND  ---      ---       LVL=0

      01005651H   BLOCK     CODE     ---       LVL=0
      01005651H   LINE      CODE     ---       #57
      01005651H   LINE      CODE     ---       #58
      01005651H   LINE      CODE     ---       #59
      01005653H   LINE      CODE     ---       #60
      01005656H   LINE      CODE     ---       #61
      01005658H   LINE      CODE     ---       #62
      0100565BH   LINE      CODE     ---       #63
      0100565DH   LINE      CODE     ---       #64
      01005660H   LINE      CODE     ---       #65
LX51 LINKER/LOCATER V4.47a                                                            12/31/2014  11:09:05  PAGE 67


      01005662H   LINE      CODE     ---       #66
      ---         BLOCKEND  ---      ---       LVL=0

      0100571FH   BLOCK     CODE     ---       LVL=0
      0100571FH   LINE      CODE     ---       #68
      0100571FH   LINE      CODE     ---       #69
      0100571FH   LINE      CODE     ---       #70
      01005721H   LINE      CODE     ---       #71
      01005724H   LINE      CODE     ---       #72
      01005726H   LINE      CODE     ---       #73
      ---         BLOCKEND  ---      ---       LVL=0

      010051F8H   BLOCK     CODE     ---       LVL=0
      ---         BLOCKEND  ---      ---       LVL=0

      010051FFH   BLOCK     CODE     ---       LVL=0
      00000006H   SYMBOL    DATA     BYTE      bt
      00000011H   SYMBOL    IDATA    BYTE      i
      01005201H   BLOCK     CODE     NEAR LAB  LVL=1
      00000011H   SYMBOL    IDATA    BYTE      i
      ---         BLOCKEND  ---      ---       LVL=1
      010051FFH   LINE      CODE     ---       #76
      01005201H   LINE      CODE     ---       #77
      01005201H   LINE      CODE     ---       #80
      01005204H   LINE      CODE     ---       #82
      01005208H   LINE      CODE     ---       #83
      01005208H   LINE      CODE     ---       #84
      0100520CH   LINE      CODE     ---       #85
      01005210H   LINE      CODE     ---       #87
      01005212H   LINE      CODE     ---       #89
      01005214H   LINE      CODE     ---       #90
      01005217H   LINE      CODE     ---       #91
      01005219H   LINE      CODE     ---       #92
      0100521CH   LINE      CODE     ---       #93
      01005220H   LINE      CODE     ---       #94
      01005229H   LINE      CODE     ---       #96
      0100522BH   LINE      CODE     ---       #98
      0100522DH   LINE      CODE     ---       #99
      01005230H   LINE      CODE     ---       #100
      01005233H   LINE      CODE     ---       #101
      01005236H   LINE      CODE     ---       #102
      01005238H   LINE      CODE     ---       #103
      ---         BLOCKEND  ---      ---       LVL=0

      0100523BH   BLOCK     CODE     ---       LVL=0
      00000006H   SYMBOL    DATA     BYTE      lastbyte
      0100523DH   BLOCK     CODE     NEAR LAB  LVL=1
      00000011H   SYMBOL    IDATA    BYTE      i
      00000012H   SYMBOL    IDATA    BYTE      res
      ---         BLOCKEND  ---      ---       LVL=1
      0100523BH   LINE      CODE     ---       #106
      0100523DH   LINE      CODE     ---       #107
      0100523DH   LINE      CODE     ---       #109
      01005241H   LINE      CODE     ---       #110
      01005243H   LINE      CODE     ---       #111
      01005245H   LINE      CODE     ---       #112
      01005245H   LINE      CODE     ---       #113
      01005247H   LINE      CODE     ---       #114
      0100524AH   LINE      CODE     ---       #115
      01005251H   LINE      CODE     ---       #116
      01005258H   LINE      CODE     ---       #117
      0100525AH   LINE      CODE     ---       #118
      0100525DH   LINE      CODE     ---       #119
      01005266H   LINE      CODE     ---       #120
      0100526BH   LINE      CODE     ---       #121
LX51 LINKER/LOCATER V4.47a                                                            12/31/2014  11:09:05  PAGE 68


      0100526DH   LINE      CODE     ---       #122
      01005270H   LINE      CODE     ---       #123
      01005272H   LINE      CODE     ---       #124
      01005274H   LINE      CODE     ---       #125
      01005277H   LINE      CODE     ---       #126
      0100527BH   LINE      CODE     ---       #127
      ---         BLOCKEND  ---      ---       LVL=0

      01005714H   BLOCK     CODE     ---       LVL=0
      00000006H   SYMBOL    DATA     BYTE      dev_id
      00000005H   SYMBOL    DATA     BYTE      reg_addr
      01005714H   LINE      CODE     ---       #129
      01005714H   LINE      CODE     ---       #130
      01005714H   LINE      CODE     ---       #131
      01005714H   LINE      CODE     ---       #132
      01005717H   LINE      CODE     ---       #133
      0100571CH   LINE      CODE     ---       #134
      ---         BLOCKEND  ---      ---       LVL=0

      01005465H   BLOCK     CODE     ---       LVL=0
      00000006H   SYMBOL    DATA     BYTE      dev_id
      01005465H   BLOCK     CODE     NEAR LAB  LVL=1
      00000007H   SYMBOL    DATA     BYTE      i
      ---         BLOCKEND  ---      ---       LVL=1
      01005465H   LINE      CODE     ---       #137
      01005465H   LINE      CODE     ---       #138
      01005465H   LINE      CODE     ---       #140
      01005465H   LINE      CODE     ---       #141
      01005468H   LINE      CODE     ---       #142
      0100546FH   LINE      CODE     ---       #143
      01005476H   LINE      CODE     ---       #144
      0100547DH   LINE      CODE     ---       #145
      01005484H   LINE      CODE     ---       #146
      01005487H   LINE      CODE     ---       #147
      0100548CH   LINE      CODE     ---       #148
      0100548CH   LINE      CODE     ---       #149
      ---         BLOCKEND  ---      ---       LVL=0

      ---         MODULE    ---      ---       EEPROM
      0000000CH   PUBLIC    DATA     BYTE      EEPROM_ack
      01005591H   PUBLIC    CODE     ---       _EEPROM_read_word
      01005687H   PUBLIC    CODE     ---       _EEPROM_write_word
      010054D7H   PUBLIC    CODE     ---       _EEPROM_read_byte
      01005539H   PUBLIC    CODE     ---       _EEPROM_write_byte
      010052B8H   PUBLIC    CODE     ---       EEPROM_read_byte0
      0100527CH   PUBLIC    CODE     ---       _EEPROM_write_byte0
      0100562BH   PUBLIC    CODE     ---       EEPROM_restart0
      010056E8H   PUBLIC    CODE     ---       EEPROM_stop0
      010056D9H   PUBLIC    CODE     ---       EEPROM_start0
      0100551BH   PUBLIC    CODE     ---       EEPROM_Init
      01005755H   PUBLIC    CODE     ---       EEPROM_BitDly
      01005614H   PUBLIC    CODE     ---       _EEPROM_Delay
      000000B0H   SFRSYM    DATA     BIT       R485_RX
      000000D8H.2 SFRSYM    DATA     BIT       CCF2
      00000098H.3 SFRSYM    DATA     BIT       TB80
      000000F6H   SFRSYM    DATA     BYTE      PCAPWM4
      00000091H   SFRSYM    DATA     BYTE      P1M0
      00000094H   SFRSYM    DATA     BYTE      P0M1
      000000D8H.3 SFRSYM    DATA     BIT       CCF3
      00000098H.3 SFRSYM    DATA     BIT       TB81
      000000F7H   SFRSYM    DATA     BYTE      PCAPWM5
      00000095H   SFRSYM    DATA     BYTE      P2M0
      00000092H   SFRSYM    DATA     BYTE      P1M1
      00000080H   SFRSYM    DATA     BYTE      P0
      000000B0H.1 SFRSYM    DATA     BIT       R485_TX
LX51 LINKER/LOCATER V4.47a                                                            12/31/2014  11:09:05  PAGE 69


      000000D8H.4 SFRSYM    DATA     BIT       CCF4
      00000098H.7 SFRSYM    DATA     BIT       SM00
      000000B1H   SFRSYM    DATA     BYTE      P3M0
      00000096H   SFRSYM    DATA     BYTE      P2M1
      00000090H   SFRSYM    DATA     BYTE      P1
      000000D8H.5 SFRSYM    DATA     BIT       CCF5
      00000098H.7 SFRSYM    DATA     BIT       SM01
      00000098H.6 SFRSYM    DATA     BIT       SM10
      000000B3H   SFRSYM    DATA     BYTE      P4M0
      000000B2H   SFRSYM    DATA     BYTE      P3M1
      000000A0H   SFRSYM    DATA     BYTE      P2
      00000098H.6 SFRSYM    DATA     BIT       SM11
      00000098H.5 SFRSYM    DATA     BIT       SM20
      000000E7H   SFRSYM    DATA     BYTE      ISPCR
      000000B5H   SFRSYM    DATA     BYTE      P5M0
      000000B4H   SFRSYM    DATA     BYTE      P4M1
      000000B0H   SFRSYM    DATA     BYTE      P3
      000000C0H   SFRSYM    DATA     BYTE      XICON
      000000A0H.2 SFRSYM    DATA     BIT       EEPROM_SDA
      00000080H.7 SFRSYM    DATA     BIT       DOWN_KEY
      000000B0H.4 SFRSYM    DATA     BIT       T0
      00000098H.5 SFRSYM    DATA     BIT       SM21
      000000D0H.6 SFRSYM    DATA     BIT       AC
      00000097H   SFRSYM    DATA     BYTE      EVRCR
      000000B6H   SFRSYM    DATA     BYTE      P5M1
      000000E8H   SFRSYM    DATA     BYTE      P4
      000000B0H.5 SFRSYM    DATA     BIT       T1
      00000085H   SFRSYM    DATA     BYTE      SPCON
      000000F8H   SFRSYM    DATA     BYTE      P5
      000000ADH   SFRSYM    DATA     BYTE      EIE1
      00000090H   SFRSYM    DATA     BIT       T2
      000000A8H.7 SFRSYM    DATA     BIT       EA
      000000ACH   SFRSYM    DATA     BYTE      SFRPI
      000000E1H   SFRSYM    DATA     BYTE      WDTCR
      000000C8H   SFRSYM    DATA     BYTE      P6
      000000A0H.4 SFRSYM    DATA     BIT       mV_SCL
      000000A0H   SFRSYM    DATA     BIT       KBI0
      00000090H.5 SFRSYM    DATA     BIT       SPI_MOSI
      00000090H.6 SFRSYM    DATA     BIT       SPI_MISO
      00000080H.5 SFRSYM    DATA     BIT       mA_OUT
      000000A0H.1 SFRSYM    DATA     BIT       KBI1
      00000085H   SFRSYM    DATA     BYTE      SPCTL
      000000A0H.2 SFRSYM    DATA     BIT       KBI2
      00000090H   SFRSYM    DATA     BIT       AIN0
      000000D8H.7 SFRSYM    DATA     BIT       CF
      000000AEH   SFRSYM    DATA     BYTE      AUXIP
      000000A0H.3 SFRSYM    DATA     BIT       KBI3
      00000090H.1 SFRSYM    DATA     BIT       AIN1
      000000A0H.4 SFRSYM    DATA     BIT       KBI4
      00000090H.2 SFRSYM    DATA     BIT       AIN2
      00000098H.7 SFRSYM    DATA     BIT       FE
      000000F9H   SFRSYM    DATA     BYTE      CH
      000000A0H.5 SFRSYM    DATA     BIT       KBI5
      00000090H.3 SFRSYM    DATA     BIT       AIN3
      000000A0H.6 SFRSYM    DATA     BIT       KBI6
      00000090H.4 SFRSYM    DATA     BIT       AIN4
      000000A0H.3 SFRSYM    DATA     BIT       EEPROM_SCL
      00000080H.1 SFRSYM    DATA     BIT       RTD_C
      000000A0H.7 SFRSYM    DATA     BIT       KBI7
      00000090H.5 SFRSYM    DATA     BIT       AIN5
      000000A8H   SFRSYM    DATA     BYTE      IE
      00000090H.6 SFRSYM    DATA     BIT       AIN6
      000000E9H   SFRSYM    DATA     BYTE      CL
      00000090H.7 SFRSYM    DATA     BIT       AIN7
      00000090H.2 SFRSYM    DATA     BIT       CEX0
LX51 LINKER/LOCATER V4.47a                                                            12/31/2014  11:09:05  PAGE 70


      000000FAH   SFRSYM    DATA     BYTE      CCAP0H
      000000C6H   SFRSYM    DATA     BYTE      ADCH
      00000090H.3 SFRSYM    DATA     BIT       CEX1
      000000FBH   SFRSYM    DATA     BYTE      CCAP1H
      000000B7H   SFRSYM    DATA     BYTE      IP0H
      000000A0H.2 SFRSYM    DATA     BIT       ALL_SDA
      00000090H.4 SFRSYM    DATA     BIT       CEX2
      000000FCH   SFRSYM    DATA     BYTE      CCAP2H
      000000B0H.3 SFRSYM    DATA     BIT       OFFSET_KEY
      00000090H.5 SFRSYM    DATA     BIT       CEX3
      000000FDH   SFRSYM    DATA     BYTE      CCAP3H
      00000090H.6 SFRSYM    DATA     BIT       CEX4
      000000D8H.6 SFRSYM    DATA     BIT       CR
      000000FEH   SFRSYM    DATA     BYTE      CCAP4H
      000000EAH   SFRSYM    DATA     BYTE      CCAP0L
      000000BEH   SFRSYM    DATA     BYTE      ADCL
      000000B0H.7 SFRSYM    DATA     BIT       RD
      00000090H.7 SFRSYM    DATA     BIT       CEX5
      000000C8H.6 SFRSYM    DATA     BIT       EXF2
      00000098H.4 SFRSYM    DATA     BIT       REN0
      000000FFH   SFRSYM    DATA     BYTE      CCAP5H
      000000EBH   SFRSYM    DATA     BYTE      CCAP1L
      000000DAH   SFRSYM    DATA     BYTE      CCAPM0
      000000B8H   SFRSYM    DATA     BYTE      IP0L
      00000098H.4 SFRSYM    DATA     BIT       REN1
      000000ECH   SFRSYM    DATA     BYTE      CCAP2L
      000000DBH   SFRSYM    DATA     BYTE      CCAPM1
      000000C0H.3 SFRSYM    DATA     BIT       IT2H
      000000A8H.4 SFRSYM    DATA     BIT       ES
      00000097H   SFRSYM    DATA     BYTE      TSTWD
      000000EDH   SFRSYM    DATA     BYTE      CCAP3L
      000000DCH   SFRSYM    DATA     BYTE      CCAPM2
      000000C0H.7 SFRSYM    DATA     BIT       IT3H
      000000EEH   SFRSYM    DATA     BYTE      CCAP4L
      000000DDH   SFRSYM    DATA     BYTE      CCAPM3
      000000B8H   SFRSYM    DATA     BYTE      IP
      000000EFH   SFRSYM    DATA     BYTE      CCAP5L
      000000DEH   SFRSYM    DATA     BYTE      CCAPM4
      00000098H   SFRSYM    DATA     BIT       RI
      000000DFH   SFRSYM    DATA     BYTE      CCAPM5
      000000B0H.2 SFRSYM    DATA     BIT       INT0
      000000D0H.7 SFRSYM    DATA     BIT       CY
      000000B0H.4 SFRSYM    DATA     BIT       BEEP
      00000080H.4 SFRSYM    DATA     BIT       mV_OUT
      000000B0H.3 SFRSYM    DATA     BIT       INT1
      00000098H.1 SFRSYM    DATA     BIT       TI
      000000A0H.3 SFRSYM    DATA     BIT       EEP_SCL
      000000E8H.3 SFRSYM    DATA     BIT       INT2
      000000E8H.2 SFRSYM    DATA     BIT       INT3
      000000C6H   SFRSYM    DATA     BYTE      ADCV
      0000008FH   SFRSYM    DATA     BYTE      STRETCH
      000000B8H.1 SFRSYM    DATA     BIT       PT0L
      000000B8H.3 SFRSYM    DATA     BIT       PT1L
      000000CBH   SFRSYM    DATA     BYTE      RCAP2H
      000000A0H.2 SFRSYM    DATA     BIT       RTC_SDA
      000000B8H.4 SFRSYM    DATA     BIT       PS
      000000B8H.5 SFRSYM    DATA     BIT       PT2L
      00000081H   SFRSYM    DATA     BYTE      SP
      00000090H.1 SFRSYM    DATA     BIT       T2EX
      000000D9H   SFRSYM    DATA     BYTE      CMOD
      000000D8H   SFRSYM    DATA     BYTE      CCON
      0000009AH   SFRSYM    DATA     BYTE      SCFG
      000000B8H   SFRSYM    DATA     BIT       PX0L
      000000D0H.2 SFRSYM    DATA     BIT       OV
      000000B8H.2 SFRSYM    DATA     BIT       PX1L
LX51 LINKER/LOCATER V4.47a                                                            12/31/2014  11:09:05  PAGE 71


      000000CAH   SFRSYM    DATA     BYTE      RCAP2L
      000000B8H.6 SFRSYM    DATA     BIT       PX2L
      00000090H.7 SFRSYM    DATA     BIT       SPI_CLK
      000000B8H.7 SFRSYM    DATA     BIT       PX3L
      000000E6H   SFRSYM    DATA     BYTE      SCMD
      000000B0H.6 SFRSYM    DATA     BIT       WR
      000000C8H.1 SFRSYM    DATA     BIT       C_T2
      00000084H   SFRSYM    DATA     BYTE      SPISTAT
      00000090H.6 SFRSYM    DATA     BIT       RTC_SCL
      000000C8H.5 SFRSYM    DATA     BIT       RCLK
      000000C8H.4 SFRSYM    DATA     BIT       TCLK
      00000080H   SFRSYM    DATA     BIT       P00
      000000E3H   SFRSYM    DATA     BYTE      IFADRH
      00000090H   SFRSYM    DATA     BIT       P10
      00000080H.1 SFRSYM    DATA     BIT       P01
      000000E5H   SFRSYM    DATA     BYTE      IFMT
      00000087H   SFRSYM    DATA     BYTE      PCON
      00000099H   SFRSYM    DATA     BYTE      SBUF
      000000A0H   SFRSYM    DATA     BIT       P20
      00000090H.1 SFRSYM    DATA     BIT       P11
      00000080H.2 SFRSYM    DATA     BIT       P02
      000000B0H   SFRSYM    DATA     BIT       P30
      000000A0H.1 SFRSYM    DATA     BIT       P21
      00000090H.2 SFRSYM    DATA     BIT       P12
      00000080H.3 SFRSYM    DATA     BIT       P03
      000000B0H.2 SFRSYM    DATA     BIT       FUNCTION_KEY
      000000E8H   SFRSYM    DATA     BIT       P40
      000000B0H.1 SFRSYM    DATA     BIT       P31
      000000A0H.2 SFRSYM    DATA     BIT       P22
      00000090H.3 SFRSYM    DATA     BIT       P13
      00000080H.4 SFRSYM    DATA     BIT       P04
      000000E4H   SFRSYM    DATA     BYTE      IFADRL
      00000098H   SFRSYM    DATA     BYTE      SCON
      000000F8H   SFRSYM    DATA     BIT       P50
      000000E8H.1 SFRSYM    DATA     BIT       P41
      000000B0H.2 SFRSYM    DATA     BIT       P32
      000000A0H.3 SFRSYM    DATA     BIT       P23
      00000090H.4 SFRSYM    DATA     BIT       P14
      00000080H.5 SFRSYM    DATA     BIT       P05
      00000089H   SFRSYM    DATA     BYTE      TMOD
      00000088H   SFRSYM    DATA     BYTE      TCON
      000000C8H   SFRSYM    DATA     BIT       P60
      000000F8H.1 SFRSYM    DATA     BIT       P51
      000000E8H.2 SFRSYM    DATA     BIT       P42
      000000B0H.3 SFRSYM    DATA     BIT       P33
      000000A0H.4 SFRSYM    DATA     BIT       P24
      00000090H.5 SFRSYM    DATA     BIT       P15
      00000080H.6 SFRSYM    DATA     BIT       P06
      000000C8H.1 SFRSYM    DATA     BIT       P61
      000000F8H.2 SFRSYM    DATA     BIT       P52
      000000E8H.3 SFRSYM    DATA     BIT       P43
      000000B0H.4 SFRSYM    DATA     BIT       P34
      000000A0H.5 SFRSYM    DATA     BIT       P25
      00000090H.6 SFRSYM    DATA     BIT       P16
      00000080H.7 SFRSYM    DATA     BIT       P07
      000000F8H.3 SFRSYM    DATA     BIT       P53
      000000E8H.4 SFRSYM    DATA     BIT       P44
      000000B0H.5 SFRSYM    DATA     BIT       P35
      000000A0H.6 SFRSYM    DATA     BIT       P26
      00000090H.7 SFRSYM    DATA     BIT       P17
      000000A0H   SFRSYM    DATA     BIT       Value_SDA
      000000E8H.5 SFRSYM    DATA     BIT       P45
      000000B0H.6 SFRSYM    DATA     BIT       P36
      000000A0H.7 SFRSYM    DATA     BIT       P27
      00000080H   SFRSYM    DATA     BIT       TC_C
LX51 LINKER/LOCATER V4.47a                                                            12/31/2014  11:09:05  PAGE 72


      000000E8H.6 SFRSYM    DATA     BIT       P46
      000000B0H.7 SFRSYM    DATA     BIT       P37
      000000E8H.7 SFRSYM    DATA     BIT       P47
      000000D7H   SFRSYM    DATA     BYTE      KBMASK
      000000A0H.4 SFRSYM    DATA     BIT       OUT_SCL
      000000A0H   SFRSYM    DATA     BIT       AD_SDA
      00000088H.1 SFRSYM    DATA     BIT       IE0
      00000088H.3 SFRSYM    DATA     BIT       IE1
      00000090H   SFRSYM    DATA     BIT       LED1_SDA
      000000C0H.1 SFRSYM    DATA     BIT       IE2
      00000090H.3 SFRSYM    DATA     BIT       LED2_SDA
      000000C0H.5 SFRSYM    DATA     BIT       IE3
      000000A8H.6 SFRSYM    DATA     BIT       GF4
      0000008EH   SFRSYM    DATA     BYTE      AUXR
      000000F0H   SFRSYM    DATA     BYTE      B
      000000D5H   SFRSYM    DATA     BYTE      KBPATN
      000000A0H.1 SFRSYM    DATA     BIT       Value_SCL
      000000C8H   SFRSYM    DATA     BIT       CP_RL2
      000000A0H.6 SFRSYM    DATA     BIT       NONE_4
      000000A0H.7 SFRSYM    DATA     BIT       NONE_5
      000000B0H.6 SFRSYM    DATA     BIT       NONE_6
      00000086H   SFRSYM    DATA     BYTE      SPIDAT
      000000E0H   SFRSYM    DATA     BYTE      ACC
      000000B0H.7 SFRSYM    DATA     BIT       NONE_7
      000000A0H.1 SFRSYM    DATA     BIT       AD_SCL
      000000A8H.4 SFRSYM    DATA     BIT       ES0
      000000A8H.1 SFRSYM    DATA     BIT       ET0
      00000090H.2 SFRSYM    DATA     BIT       LED1_SCL
      00000088H.5 SFRSYM    DATA     BIT       TF0
      000000A8H.3 SFRSYM    DATA     BIT       ET1
      00000090H.4 SFRSYM    DATA     BIT       LED2_SCL
      00000088H.7 SFRSYM    DATA     BIT       TF1
      00000098H   SFRSYM    DATA     BIT       RI0
      000000A8H.5 SFRSYM    DATA     BIT       ET2
      000000C8H.7 SFRSYM    DATA     BIT       TF2
      00000098H   SFRSYM    DATA     BIT       RI1
      00000098H.2 SFRSYM    DATA     BIT       RB8
      0000008CH   SFRSYM    DATA     BYTE      TH0
      00000088H   SFRSYM    DATA     BIT       IT0
      00000098H.1 SFRSYM    DATA     BIT       TI0
      000000A8H   SFRSYM    DATA     BIT       EX0
      0000008DH   SFRSYM    DATA     BYTE      TH1
      00000088H.2 SFRSYM    DATA     BIT       IT1
      00000098H.1 SFRSYM    DATA     BIT       TI1
      00000098H.3 SFRSYM    DATA     BIT       TB8
      000000A8H.2 SFRSYM    DATA     BIT       EX1
      00000085H   SFRSYM    DATA     BYTE      SPICON
      000000CDH   SFRSYM    DATA     BYTE      TH2
      000000C0H   SFRSYM    DATA     BIT       IT2
      000000C0H.2 SFRSYM    DATA     BIT       EX2
      000000D0H   SFRSYM    DATA     BIT       P
      000000C0H.4 SFRSYM    DATA     BIT       IT3
      000000C0H.6 SFRSYM    DATA     BIT       EX3
      00000098H.7 SFRSYM    DATA     BIT       SM0
      0000008AH   SFRSYM    DATA     BYTE      TL0
      00000080H.3 SFRSYM    DATA     BIT       mA_C
      000000C8H   SFRSYM    DATA     BIT       XOUT
      00000090H.1 SFRSYM    DATA     BIT       ECI
      00000098H.6 SFRSYM    DATA     BIT       SM1
      00000085H   SFRSYM    DATA     BYTE      SPICTL
      0000008BH   SFRSYM    DATA     BYTE      TL1
      000000AFH   SFRSYM    DATA     BYTE      AUXIPH
      000000E8H.6 SFRSYM    DATA     BIT       ALE
      00000098H.5 SFRSYM    DATA     BIT       SM2
      000000CCH   SFRSYM    DATA     BYTE      TL2
LX51 LINKER/LOCATER V4.47a                                                            12/31/2014  11:09:05  PAGE 73


      000000E2H   SFRSYM    DATA     BYTE      IFD
      000000B8H.1 SFRSYM    DATA     BIT       PT0
      000000B0H.5 SFRSYM    DATA     BIT       R485_DE_RE
      000000B8H.3 SFRSYM    DATA     BIT       PT1
      000000D0H.3 SFRSYM    DATA     BIT       RS0
      00000088H.4 SFRSYM    DATA     BIT       TR0
      000000B8H.5 SFRSYM    DATA     BIT       PT2
      000000D0H.4 SFRSYM    DATA     BIT       RS1
      00000088H.6 SFRSYM    DATA     BIT       TR1
      000000C8H.2 SFRSYM    DATA     BIT       TR2
      000000B8H   SFRSYM    DATA     BIT       PX0
      000000AFH   SFRSYM    DATA     BYTE      EIP1H
      000000B8H.2 SFRSYM    DATA     BIT       PX1
      000000C0H.3 SFRSYM    DATA     BIT       PX2
      000000C0H.7 SFRSYM    DATA     BIT       PX3
      000000AEH   SFRSYM    DATA     BYTE      EIP1L
      00000083H   SFRSYM    DATA     BYTE      DPH
      000000C8H   SFRSYM    DATA     BIT       CKO
      00000082H   SFRSYM    DATA     BYTE      DPL
      00000087H   SFRSYM    DATA     BYTE      PCON0
      00000084H   SFRSYM    DATA     BYTE      SPSTAT
      00000099H   SFRSYM    DATA     BYTE      SBUF0
      000000B7H   SFRSYM    DATA     BYTE      IPH
      000000B0H.4 SFRSYM    DATA     BIT       T0CKO
      00000097H   SFRSYM    DATA     BYTE      PCON1
      00000099H   SFRSYM    DATA     BYTE      SBUF1
      000000B0H.5 SFRSYM    DATA     BIT       T1CKO
      000000C8H.3 SFRSYM    DATA     BIT       EXEN2
      000000C7H   SFRSYM    DATA     BYTE      PCON2
      0000009AH   SFRSYM    DATA     BYTE      S2BUF
      000000A0H.5 SFRSYM    DATA     BIT       NONE3
      00000090H.7 SFRSYM    DATA     BIT       none2
      00000098H   SFRSYM    DATA     BYTE      SCON0
      00000098H.4 SFRSYM    DATA     BIT       REN
      00000098H   SFRSYM    DATA     BYTE      SCON1
      00000080H.2 SFRSYM    DATA     BIT       mV_C
      000000C5H   SFRSYM    DATA     BYTE      ADCON
      000000A0H.2 SFRSYM    DATA     BIT       mA_SDA
      000000C9H   SFRSYM    DATA     BYTE      T2MOD
      000000C8H   SFRSYM    DATA     BYTE      T2CON
      000000C5H   SFRSYM    DATA     BYTE      ADCTL
      000000BEH   SFRSYM    DATA     BYTE      ADCVL
      000000B9H   SFRSYM    DATA     BYTE      SADEN
      0000009AH   SFRSYM    DATA     BYTE      S1BRT
      000000B0H   SFRSYM    DATA     BIT       RXD
      000000D6H   SFRSYM    DATA     BYTE      KBCON
      00000080H.6 SFRSYM    DATA     BIT       UP_KEY
      000000C8H.1 SFRSYM    DATA     BIT       XIN
      000000B8H.4 SFRSYM    DATA     BIT       PSL
      000000A9H   SFRSYM    DATA     BYTE      SADDR
      000000B0H.1 SFRSYM    DATA     BIT       TXD
      000000A0H.4 SFRSYM    DATA     BIT       mA_SCL
      0000008EH   SFRSYM    DATA     BYTE      AUXR0
      000000A2H   SFRSYM    DATA     BYTE      AUXR1
      00000090H.4 SFRSYM    DATA     BIT       SPI_SS
      000000A6H   SFRSYM    DATA     BYTE      AUXR2
      00000090H.2 SFRSYM    DATA     BIT       S2RXD
      000000D0H.5 SFRSYM    DATA     BIT       F0
      000000B0H.4 SFRSYM    DATA     BIT       BEEP_OUT
      00000090H.3 SFRSYM    DATA     BIT       S2TXD
      000000D0H.1 SFRSYM    DATA     BIT       F1
      00000090H.1 SFRSYM    DATA     BIT       LED1_LE
      00000090H.5 SFRSYM    DATA     BIT       LED2_LE
      000000F2H   SFRSYM    DATA     BYTE      PCAPWM0
      000000D0H   SFRSYM    DATA     BYTE      PSW
LX51 LINKER/LOCATER V4.47a                                                            12/31/2014  11:09:05  PAGE 74


      000000F3H   SFRSYM    DATA     BYTE      PCAPWM1
      000000A0H.2 SFRSYM    DATA     BIT       mV_SDA
      000000D8H   SFRSYM    DATA     BIT       CCF0
      00000098H.2 SFRSYM    DATA     BIT       RB80
      000000F4H   SFRSYM    DATA     BYTE      PCAPWM2
      000000D8H.1 SFRSYM    DATA     BIT       CCF1
      00000098H.2 SFRSYM    DATA     BIT       RB81
      000000F5H   SFRSYM    DATA     BYTE      PCAPWM3
      00000086H   SFRSYM    DATA     BYTE      SPDAT
      00000093H   SFRSYM    DATA     BYTE      P0M0
      000000ADH   SFRSYM    DATA     BYTE      AUXIE

      01005614H   BLOCK     CODE     ---       LVL=0
      00000006H   SYMBOL    DATA     WORD      i
      01005614H   BLOCK     CODE     NEAR LAB  LVL=1
      00000005H   SYMBOL    DATA     BYTE      j
      ---         BLOCKEND  ---      ---       LVL=1
      01005614H   LINE      CODE     ---       #14
      01005614H   LINE      CODE     ---       #15
      01005614H   LINE      CODE     ---       #17
      0100561DH   LINE      CODE     ---       #18
      0100562AH   LINE      CODE     ---       #19
      ---         BLOCKEND  ---      ---       LVL=0

      01005755H   BLOCK     CODE     ---       LVL=0
      01005755H   BLOCK     CODE     NEAR LAB  LVL=1
      00000007H   SYMBOL    DATA     BYTE      i
      ---         BLOCKEND  ---      ---       LVL=1
      01005755H   LINE      CODE     ---       #21
      01005755H   LINE      CODE     ---       #22
      01005755H   LINE      CODE     ---       #25
      0100575BH   LINE      CODE     ---       #26
      ---         BLOCKEND  ---      ---       LVL=0

      0100551BH   BLOCK     CODE     ---       LVL=0
      0100551BH   BLOCK     CODE     NEAR LAB  LVL=1
      00000006H   SYMBOL    DATA     WORD      i
      ---         BLOCKEND  ---      ---       LVL=1
      0100551BH   LINE      CODE     ---       #28
      0100551BH   LINE      CODE     ---       #29
      0100551BH   LINE      CODE     ---       #32
      0100551DH   LINE      CODE     ---       #33
      01005520H   LINE      CODE     ---       #34
      01005523H   LINE      CODE     ---       #35
      01005526H   LINE      CODE     ---       #36
      01005528H   LINE      CODE     ---       #37
      01005538H   LINE      CODE     ---       #38
      ---         BLOCKEND  ---      ---       LVL=0

      010056D9H   BLOCK     CODE     ---       LVL=0
      010056D9H   LINE      CODE     ---       #40
      010056D9H   LINE      CODE     ---       #41
      010056D9H   LINE      CODE     ---       #42
      010056DBH   LINE      CODE     ---       #43
      010056DEH   LINE      CODE     ---       #44
      010056E0H   LINE      CODE     ---       #45
      010056E3H   LINE      CODE     ---       #46
      010056E5H   LINE      CODE     ---       #47
      ---         BLOCKEND  ---      ---       LVL=0

      010056E8H   BLOCK     CODE     ---       LVL=0
      010056E8H   LINE      CODE     ---       #50
      010056E8H   LINE      CODE     ---       #51
      010056E8H   LINE      CODE     ---       #52
      010056EAH   LINE      CODE     ---       #53
LX51 LINKER/LOCATER V4.47a                                                            12/31/2014  11:09:05  PAGE 75


      010056EDH   LINE      CODE     ---       #54
      010056EFH   LINE      CODE     ---       #55
      010056F2H   LINE      CODE     ---       #56
      010056F4H   LINE      CODE     ---       #57
      ---         BLOCKEND  ---      ---       LVL=0

      0100562BH   BLOCK     CODE     ---       LVL=0
      0100562BH   LINE      CODE     ---       #60
      0100562BH   LINE      CODE     ---       #61
      0100562BH   LINE      CODE     ---       #62
      0100562DH   LINE      CODE     ---       #63
      01005630H   LINE      CODE     ---       #64
      01005632H   LINE      CODE     ---       #65
      01005635H   LINE      CODE     ---       #66
      01005637H   LINE      CODE     ---       #67
      0100563AH   LINE      CODE     ---       #68
      0100563CH   LINE      CODE     ---       #69
      ---         BLOCKEND  ---      ---       LVL=0

      0100527CH   BLOCK     CODE     ---       LVL=0
      00000006H   SYMBOL    DATA     BYTE      bt
      0100527EH   BLOCK     CODE     NEAR LAB  LVL=1
      00000010H   SYMBOL    IDATA    BYTE      i
      ---         BLOCKEND  ---      ---       LVL=1
      0100527CH   LINE      CODE     ---       #72
      0100527EH   LINE      CODE     ---       #73
      0100527EH   LINE      CODE     ---       #76
      01005281H   LINE      CODE     ---       #78
      01005285H   LINE      CODE     ---       #79
      01005285H   LINE      CODE     ---       #80
      01005289H   LINE      CODE     ---       #81
      0100528DH   LINE      CODE     ---       #83
      0100528FH   LINE      CODE     ---       #84
      01005291H   LINE      CODE     ---       #85
      01005294H   LINE      CODE     ---       #86
      01005296H   LINE      CODE     ---       #87
      01005299H   LINE      CODE     ---       #88
      0100529DH   LINE      CODE     ---       #89
      010052A6H   LINE      CODE     ---       #91
      010052A8H   LINE      CODE     ---       #92
      010052AAH   LINE      CODE     ---       #93
      010052ADH   LINE      CODE     ---       #95
      010052B0H   LINE      CODE     ---       #96
      010052B3H   LINE      CODE     ---       #97
      010052B5H   LINE      CODE     ---       #98
      ---         BLOCKEND  ---      ---       LVL=0

      010052B8H   BLOCK     CODE     ---       LVL=0
      010052B8H   BLOCK     CODE     NEAR LAB  LVL=1
      00000010H   SYMBOL    IDATA    BYTE      i
      00000011H   SYMBOL    IDATA    BYTE      res
      ---         BLOCKEND  ---      ---       LVL=1
      010052B8H   LINE      CODE     ---       #101
      010052B8H   LINE      CODE     ---       #102
      010052B8H   LINE      CODE     ---       #104
      010052BCH   LINE      CODE     ---       #105
      010052BEH   LINE      CODE     ---       #107
      010052C0H   LINE      CODE     ---       #108
      010052C0H   LINE      CODE     ---       #109
      010052C2H   LINE      CODE     ---       #110
      010052C5H   LINE      CODE     ---       #111
      010052CCH   LINE      CODE     ---       #112
      010052D3H   LINE      CODE     ---       #113
      010052D5H   LINE      CODE     ---       #114
      010052D8H   LINE      CODE     ---       #115
LX51 LINKER/LOCATER V4.47a                                                            12/31/2014  11:09:05  PAGE 76


      010052E1H   LINE      CODE     ---       #116
      010052E3H   LINE      CODE     ---       #117
      010052E5H   LINE      CODE     ---       #118
      010052E8H   LINE      CODE     ---       #119
      010052EAH   LINE      CODE     ---       #120
      010052ECH   LINE      CODE     ---       #121
      010052EFH   LINE      CODE     ---       #122
      010052F3H   LINE      CODE     ---       #123
      ---         BLOCKEND  ---      ---       LVL=0

      01005539H   BLOCK     CODE     ---       LVL=0
      00000004H   SYMBOL    DATA     BYTE      reg_addr
      00000005H   SYMBOL    DATA     BYTE      reg_data
      01005539H   LINE      CODE     ---       #125
      0100553BH   LINE      CODE     ---       #126
      0100553BH   LINE      CODE     ---       #127
      0100553EH   LINE      CODE     ---       #128
      01005543H   LINE      CODE     ---       #129
      01005548H   LINE      CODE     ---       #130
      0100554DH   LINE      CODE     ---       #131
      01005550H   LINE      CODE     ---       #132
      ---         BLOCKEND  ---      ---       LVL=0

      010054D7H   BLOCK     CODE     ---       LVL=0
      00000005H   SYMBOL    DATA     BYTE      reg_addr
      010054D9H   BLOCK     CODE     NEAR LAB  LVL=1
      00000006H   SYMBOL    DATA     BYTE      retb
      ---         BLOCKEND  ---      ---       LVL=1
      010054D7H   LINE      CODE     ---       #135
      010054D9H   LINE      CODE     ---       #136
      010054D9H   LINE      CODE     ---       #139
      010054DCH   LINE      CODE     ---       #140
      010054E1H   LINE      CODE     ---       #141
      010054E6H   LINE      CODE     ---       #143
      010054E9H   LINE      CODE     ---       #144
      010054EEH   LINE      CODE     ---       #145
      010054F3H   LINE      CODE     ---       #146
      010054F6H   LINE      CODE     ---       #148
      010054F8H   LINE      CODE     ---       #149
      ---         BLOCKEND  ---      ---       LVL=0

      01005687H   BLOCK     CODE     ---       LVL=0
      00000001H   SYMBOL    DATA     BYTE      addr
      00000002H   SYMBOL    DATA     WORD      intdata
      01005687H   LINE      CODE     ---       #151
      0100568DH   LINE      CODE     ---       #152
      0100568DH   LINE      CODE     ---       #153
      01005691H   LINE      CODE     ---       #154
      ---         BLOCKEND  ---      ---       LVL=0

      01005591H   BLOCK     CODE     ---       LVL=0
      00000004H   SYMBOL    DATA     BYTE      addr
      01005593H   BLOCK     CODE     NEAR LAB  LVL=1
      00000002H   SYMBOL    DATA     WORD      rdata
      ---         BLOCKEND  ---      ---       LVL=1
      01005591H   LINE      CODE     ---       #157
      01005593H   LINE      CODE     ---       #158
      01005593H   LINE      CODE     ---       #161
      0100559BH   LINE      CODE     ---       #162
      0100559FH   LINE      CODE     ---       #163
      010055A9H   LINE      CODE     ---       #165
      010055ACH   LINE      CODE     ---       #166
      ---         BLOCKEND  ---      ---       LVL=0

      ---         MODULE    ---      ---       DAC6571_MV
LX51 LINKER/LOCATER V4.47a                                                            12/31/2014  11:09:05  PAGE 77


      0000000DH   PUBLIC    DATA     BYTE      _mV_ack
      0100548DH   PUBLIC    CODE     ---       _Set_mV
      010052F4H   PUBLIC    CODE     ---       _DAC6571mV_write_byte
      01005729H   PUBLIC    CODE     ---       DAC6571mV_stop
      01005663H   PUBLIC    CODE     ---       DAC6571mV_start
      0100575CH   PUBLIC    CODE     ---       _mVBitDly
      000000B0H   SFRSYM    DATA     BIT       R485_RX
      000000D8H.2 SFRSYM    DATA     BIT       CCF2
      00000098H.3 SFRSYM    DATA     BIT       TB80
      000000F6H   SFRSYM    DATA     BYTE      PCAPWM4
      00000091H   SFRSYM    DATA     BYTE      P1M0
      00000094H   SFRSYM    DATA     BYTE      P0M1
      000000D8H.3 SFRSYM    DATA     BIT       CCF3
      00000098H.3 SFRSYM    DATA     BIT       TB81
      000000F7H   SFRSYM    DATA     BYTE      PCAPWM5
      00000095H   SFRSYM    DATA     BYTE      P2M0
      00000092H   SFRSYM    DATA     BYTE      P1M1
      00000080H   SFRSYM    DATA     BYTE      P0
      000000B0H.1 SFRSYM    DATA     BIT       R485_TX
      000000D8H.4 SFRSYM    DATA     BIT       CCF4
      00000098H.7 SFRSYM    DATA     BIT       SM00
      000000B1H   SFRSYM    DATA     BYTE      P3M0
      00000096H   SFRSYM    DATA     BYTE      P2M1
      00000090H   SFRSYM    DATA     BYTE      P1
      000000D8H.5 SFRSYM    DATA     BIT       CCF5
      00000098H.7 SFRSYM    DATA     BIT       SM01
      00000098H.6 SFRSYM    DATA     BIT       SM10
      000000B3H   SFRSYM    DATA     BYTE      P4M0
      000000B2H   SFRSYM    DATA     BYTE      P3M1
      000000A0H   SFRSYM    DATA     BYTE      P2
      00000098H.6 SFRSYM    DATA     BIT       SM11
      00000098H.5 SFRSYM    DATA     BIT       SM20
      000000E7H   SFRSYM    DATA     BYTE      ISPCR
      000000B5H   SFRSYM    DATA     BYTE      P5M0
      000000B4H   SFRSYM    DATA     BYTE      P4M1
      000000B0H   SFRSYM    DATA     BYTE      P3
      000000C0H   SFRSYM    DATA     BYTE      XICON
      000000A0H.2 SFRSYM    DATA     BIT       EEPROM_SDA
      00000080H.7 SFRSYM    DATA     BIT       DOWN_KEY
      000000B0H.4 SFRSYM    DATA     BIT       T0
      00000098H.5 SFRSYM    DATA     BIT       SM21
      000000D0H.6 SFRSYM    DATA     BIT       AC
      00000097H   SFRSYM    DATA     BYTE      EVRCR
      000000B6H   SFRSYM    DATA     BYTE      P5M1
      000000E8H   SFRSYM    DATA     BYTE      P4
      000000B0H.5 SFRSYM    DATA     BIT       T1
      00000085H   SFRSYM    DATA     BYTE      SPCON
      000000F8H   SFRSYM    DATA     BYTE      P5
      000000ADH   SFRSYM    DATA     BYTE      EIE1
      00000090H   SFRSYM    DATA     BIT       T2
      000000A8H.7 SFRSYM    DATA     BIT       EA
      000000ACH   SFRSYM    DATA     BYTE      SFRPI
      000000E1H   SFRSYM    DATA     BYTE      WDTCR
      000000C8H   SFRSYM    DATA     BYTE      P6
      000000A0H.4 SFRSYM    DATA     BIT       mV_SCL
      000000A0H   SFRSYM    DATA     BIT       KBI0
      00000090H.5 SFRSYM    DATA     BIT       SPI_MOSI
      00000090H.6 SFRSYM    DATA     BIT       SPI_MISO
      00000080H.5 SFRSYM    DATA     BIT       mA_OUT
      000000A0H.1 SFRSYM    DATA     BIT       KBI1
      00000085H   SFRSYM    DATA     BYTE      SPCTL
      000000A0H.2 SFRSYM    DATA     BIT       KBI2
      00000090H   SFRSYM    DATA     BIT       AIN0
      000000D8H.7 SFRSYM    DATA     BIT       CF
      000000AEH   SFRSYM    DATA     BYTE      AUXIP
LX51 LINKER/LOCATER V4.47a                                                            12/31/2014  11:09:05  PAGE 78


      000000A0H.3 SFRSYM    DATA     BIT       KBI3
      00000090H.1 SFRSYM    DATA     BIT       AIN1
      000000A0H.4 SFRSYM    DATA     BIT       KBI4
      00000090H.2 SFRSYM    DATA     BIT       AIN2
      00000098H.7 SFRSYM    DATA     BIT       FE
      000000F9H   SFRSYM    DATA     BYTE      CH
      000000A0H.5 SFRSYM    DATA     BIT       KBI5
      00000090H.3 SFRSYM    DATA     BIT       AIN3
      000000A0H.6 SFRSYM    DATA     BIT       KBI6
      00000090H.4 SFRSYM    DATA     BIT       AIN4
      000000A0H.3 SFRSYM    DATA     BIT       EEPROM_SCL
      00000080H.1 SFRSYM    DATA     BIT       RTD_C
      000000A0H.7 SFRSYM    DATA     BIT       KBI7
      00000090H.5 SFRSYM    DATA     BIT       AIN5
      000000A8H   SFRSYM    DATA     BYTE      IE
      00000090H.6 SFRSYM    DATA     BIT       AIN6
      000000E9H   SFRSYM    DATA     BYTE      CL
      00000090H.7 SFRSYM    DATA     BIT       AIN7
      00000090H.2 SFRSYM    DATA     BIT       CEX0
      000000FAH   SFRSYM    DATA     BYTE      CCAP0H
      000000C6H   SFRSYM    DATA     BYTE      ADCH
      00000090H.3 SFRSYM    DATA     BIT       CEX1
      000000FBH   SFRSYM    DATA     BYTE      CCAP1H
      000000B7H   SFRSYM    DATA     BYTE      IP0H
      000000A0H.2 SFRSYM    DATA     BIT       ALL_SDA
      00000090H.4 SFRSYM    DATA     BIT       CEX2
      000000FCH   SFRSYM    DATA     BYTE      CCAP2H
      000000B0H.3 SFRSYM    DATA     BIT       OFFSET_KEY
      00000090H.5 SFRSYM    DATA     BIT       CEX3
      000000FDH   SFRSYM    DATA     BYTE      CCAP3H
      00000090H.6 SFRSYM    DATA     BIT       CEX4
      000000D8H.6 SFRSYM    DATA     BIT       CR
      000000FEH   SFRSYM    DATA     BYTE      CCAP4H
      000000EAH   SFRSYM    DATA     BYTE      CCAP0L
      000000BEH   SFRSYM    DATA     BYTE      ADCL
      000000B0H.7 SFRSYM    DATA     BIT       RD
      00000090H.7 SFRSYM    DATA     BIT       CEX5
      000000C8H.6 SFRSYM    DATA     BIT       EXF2
      00000098H.4 SFRSYM    DATA     BIT       REN0
      000000FFH   SFRSYM    DATA     BYTE      CCAP5H
      000000EBH   SFRSYM    DATA     BYTE      CCAP1L
      000000DAH   SFRSYM    DATA     BYTE      CCAPM0
      000000B8H   SFRSYM    DATA     BYTE      IP0L
      00000098H.4 SFRSYM    DATA     BIT       REN1
      000000ECH   SFRSYM    DATA     BYTE      CCAP2L
      000000DBH   SFRSYM    DATA     BYTE      CCAPM1
      000000C0H.3 SFRSYM    DATA     BIT       IT2H
      000000A8H.4 SFRSYM    DATA     BIT       ES
      00000097H   SFRSYM    DATA     BYTE      TSTWD
      000000EDH   SFRSYM    DATA     BYTE      CCAP3L
      000000DCH   SFRSYM    DATA     BYTE      CCAPM2
      000000C0H.7 SFRSYM    DATA     BIT       IT3H
      000000EEH   SFRSYM    DATA     BYTE      CCAP4L
      000000DDH   SFRSYM    DATA     BYTE      CCAPM3
      000000B8H   SFRSYM    DATA     BYTE      IP
      000000EFH   SFRSYM    DATA     BYTE      CCAP5L
      000000DEH   SFRSYM    DATA     BYTE      CCAPM4
      00000098H   SFRSYM    DATA     BIT       RI
      000000DFH   SFRSYM    DATA     BYTE      CCAPM5
      000000B0H.2 SFRSYM    DATA     BIT       INT0
      000000D0H.7 SFRSYM    DATA     BIT       CY
      000000B0H.4 SFRSYM    DATA     BIT       BEEP
      00000080H.4 SFRSYM    DATA     BIT       mV_OUT
      000000B0H.3 SFRSYM    DATA     BIT       INT1
      00000098H.1 SFRSYM    DATA     BIT       TI
LX51 LINKER/LOCATER V4.47a                                                            12/31/2014  11:09:05  PAGE 79


      000000A0H.3 SFRSYM    DATA     BIT       EEP_SCL
      000000E8H.3 SFRSYM    DATA     BIT       INT2
      000000E8H.2 SFRSYM    DATA     BIT       INT3
      000000C6H   SFRSYM    DATA     BYTE      ADCV
      0000008FH   SFRSYM    DATA     BYTE      STRETCH
      000000B8H.1 SFRSYM    DATA     BIT       PT0L
      000000B8H.3 SFRSYM    DATA     BIT       PT1L
      000000CBH   SFRSYM    DATA     BYTE      RCAP2H
      000000A0H.2 SFRSYM    DATA     BIT       RTC_SDA
      000000B8H.4 SFRSYM    DATA     BIT       PS
      000000B8H.5 SFRSYM    DATA     BIT       PT2L
      00000081H   SFRSYM    DATA     BYTE      SP
      00000090H.1 SFRSYM    DATA     BIT       T2EX
      000000D9H   SFRSYM    DATA     BYTE      CMOD
      000000D8H   SFRSYM    DATA     BYTE      CCON
      0000009AH   SFRSYM    DATA     BYTE      SCFG
      000000B8H   SFRSYM    DATA     BIT       PX0L
      000000D0H.2 SFRSYM    DATA     BIT       OV
      000000B8H.2 SFRSYM    DATA     BIT       PX1L
      000000CAH   SFRSYM    DATA     BYTE      RCAP2L
      000000B8H.6 SFRSYM    DATA     BIT       PX2L
      00000090H.7 SFRSYM    DATA     BIT       SPI_CLK
      000000B8H.7 SFRSYM    DATA     BIT       PX3L
      000000E6H   SFRSYM    DATA     BYTE      SCMD
      000000B0H.6 SFRSYM    DATA     BIT       WR
      000000C8H.1 SFRSYM    DATA     BIT       C_T2
      00000084H   SFRSYM    DATA     BYTE      SPISTAT
      00000090H.6 SFRSYM    DATA     BIT       RTC_SCL
      000000C8H.5 SFRSYM    DATA     BIT       RCLK
      000000C8H.4 SFRSYM    DATA     BIT       TCLK
      00000080H   SFRSYM    DATA     BIT       P00
      000000E3H   SFRSYM    DATA     BYTE      IFADRH
      00000090H   SFRSYM    DATA     BIT       P10
      00000080H.1 SFRSYM    DATA     BIT       P01
      000000E5H   SFRSYM    DATA     BYTE      IFMT
      00000087H   SFRSYM    DATA     BYTE      PCON
      00000099H   SFRSYM    DATA     BYTE      SBUF
      000000A0H   SFRSYM    DATA     BIT       P20
      00000090H.1 SFRSYM    DATA     BIT       P11
      00000080H.2 SFRSYM    DATA     BIT       P02
      000000B0H   SFRSYM    DATA     BIT       P30
      000000A0H.1 SFRSYM    DATA     BIT       P21
      00000090H.2 SFRSYM    DATA     BIT       P12
      00000080H.3 SFRSYM    DATA     BIT       P03
      000000B0H.2 SFRSYM    DATA     BIT       FUNCTION_KEY
      000000E8H   SFRSYM    DATA     BIT       P40
      000000B0H.1 SFRSYM    DATA     BIT       P31
      000000A0H.2 SFRSYM    DATA     BIT       P22
      00000090H.3 SFRSYM    DATA     BIT       P13
      00000080H.4 SFRSYM    DATA     BIT       P04
      000000E4H   SFRSYM    DATA     BYTE      IFADRL
      00000098H   SFRSYM    DATA     BYTE      SCON
      000000F8H   SFRSYM    DATA     BIT       P50
      000000E8H.1 SFRSYM    DATA     BIT       P41
      000000B0H.2 SFRSYM    DATA     BIT       P32
      000000A0H.3 SFRSYM    DATA     BIT       P23
      00000090H.4 SFRSYM    DATA     BIT       P14
      00000080H.5 SFRSYM    DATA     BIT       P05
      00000089H   SFRSYM    DATA     BYTE      TMOD
      00000088H   SFRSYM    DATA     BYTE      TCON
      000000C8H   SFRSYM    DATA     BIT       P60
      000000F8H.1 SFRSYM    DATA     BIT       P51
      000000E8H.2 SFRSYM    DATA     BIT       P42
      000000B0H.3 SFRSYM    DATA     BIT       P33
      000000A0H.4 SFRSYM    DATA     BIT       P24
LX51 LINKER/LOCATER V4.47a                                                            12/31/2014  11:09:05  PAGE 80


      00000090H.5 SFRSYM    DATA     BIT       P15
      00000080H.6 SFRSYM    DATA     BIT       P06
      000000C8H.1 SFRSYM    DATA     BIT       P61
      000000F8H.2 SFRSYM    DATA     BIT       P52
      000000E8H.3 SFRSYM    DATA     BIT       P43
      000000B0H.4 SFRSYM    DATA     BIT       P34
      000000A0H.5 SFRSYM    DATA     BIT       P25
      00000090H.6 SFRSYM    DATA     BIT       P16
      00000080H.7 SFRSYM    DATA     BIT       P07
      000000F8H.3 SFRSYM    DATA     BIT       P53
      000000E8H.4 SFRSYM    DATA     BIT       P44
      000000B0H.5 SFRSYM    DATA     BIT       P35
      000000A0H.6 SFRSYM    DATA     BIT       P26
      00000090H.7 SFRSYM    DATA     BIT       P17
      000000A0H   SFRSYM    DATA     BIT       Value_SDA
      000000E8H.5 SFRSYM    DATA     BIT       P45
      000000B0H.6 SFRSYM    DATA     BIT       P36
      000000A0H.7 SFRSYM    DATA     BIT       P27
      00000080H   SFRSYM    DATA     BIT       TC_C
      000000E8H.6 SFRSYM    DATA     BIT       P46
      000000B0H.7 SFRSYM    DATA     BIT       P37
      000000E8H.7 SFRSYM    DATA     BIT       P47
      000000D7H   SFRSYM    DATA     BYTE      KBMASK
      000000A0H.4 SFRSYM    DATA     BIT       OUT_SCL
      000000A0H   SFRSYM    DATA     BIT       AD_SDA
      00000088H.1 SFRSYM    DATA     BIT       IE0
      00000088H.3 SFRSYM    DATA     BIT       IE1
      00000090H   SFRSYM    DATA     BIT       LED1_SDA
      000000C0H.1 SFRSYM    DATA     BIT       IE2
      00000090H.3 SFRSYM    DATA     BIT       LED2_SDA
      000000C0H.5 SFRSYM    DATA     BIT       IE3
      000000A8H.6 SFRSYM    DATA     BIT       GF4
      0000008EH   SFRSYM    DATA     BYTE      AUXR
      000000F0H   SFRSYM    DATA     BYTE      B
      000000D5H   SFRSYM    DATA     BYTE      KBPATN
      000000A0H.1 SFRSYM    DATA     BIT       Value_SCL
      000000C8H   SFRSYM    DATA     BIT       CP_RL2
      000000A0H.6 SFRSYM    DATA     BIT       NONE_4
      000000A0H.7 SFRSYM    DATA     BIT       NONE_5
      000000B0H.6 SFRSYM    DATA     BIT       NONE_6
      00000086H   SFRSYM    DATA     BYTE      SPIDAT
      000000E0H   SFRSYM    DATA     BYTE      ACC
      000000B0H.7 SFRSYM    DATA     BIT       NONE_7
      000000A0H.1 SFRSYM    DATA     BIT       AD_SCL
      000000A8H.4 SFRSYM    DATA     BIT       ES0
      000000A8H.1 SFRSYM    DATA     BIT       ET0
      00000090H.2 SFRSYM    DATA     BIT       LED1_SCL
      00000088H.5 SFRSYM    DATA     BIT       TF0
      000000A8H.3 SFRSYM    DATA     BIT       ET1
      00000090H.4 SFRSYM    DATA     BIT       LED2_SCL
      00000088H.7 SFRSYM    DATA     BIT       TF1
      00000098H   SFRSYM    DATA     BIT       RI0
      000000A8H.5 SFRSYM    DATA     BIT       ET2
      000000C8H.7 SFRSYM    DATA     BIT       TF2
      00000098H   SFRSYM    DATA     BIT       RI1
      00000098H.2 SFRSYM    DATA     BIT       RB8
      0000008CH   SFRSYM    DATA     BYTE      TH0
      00000088H   SFRSYM    DATA     BIT       IT0
      00000098H.1 SFRSYM    DATA     BIT       TI0
      000000A8H   SFRSYM    DATA     BIT       EX0
      0000008DH   SFRSYM    DATA     BYTE      TH1
      00000088H.2 SFRSYM    DATA     BIT       IT1
      00000098H.1 SFRSYM    DATA     BIT       TI1
      00000098H.3 SFRSYM    DATA     BIT       TB8
      000000A8H.2 SFRSYM    DATA     BIT       EX1
LX51 LINKER/LOCATER V4.47a                                                            12/31/2014  11:09:05  PAGE 81


      00000085H   SFRSYM    DATA     BYTE      SPICON
      000000CDH   SFRSYM    DATA     BYTE      TH2
      000000C0H   SFRSYM    DATA     BIT       IT2
      000000C0H.2 SFRSYM    DATA     BIT       EX2
      000000D0H   SFRSYM    DATA     BIT       P
      000000C0H.4 SFRSYM    DATA     BIT       IT3
      000000C0H.6 SFRSYM    DATA     BIT       EX3
      00000098H.7 SFRSYM    DATA     BIT       SM0
      0000008AH   SFRSYM    DATA     BYTE      TL0
      00000080H.3 SFRSYM    DATA     BIT       mA_C
      000000C8H   SFRSYM    DATA     BIT       XOUT
      00000090H.1 SFRSYM    DATA     BIT       ECI
      00000098H.6 SFRSYM    DATA     BIT       SM1
      00000085H   SFRSYM    DATA     BYTE      SPICTL
      0000008BH   SFRSYM    DATA     BYTE      TL1
      000000AFH   SFRSYM    DATA     BYTE      AUXIPH
      000000E8H.6 SFRSYM    DATA     BIT       ALE
      00000098H.5 SFRSYM    DATA     BIT       SM2
      000000CCH   SFRSYM    DATA     BYTE      TL2
      000000E2H   SFRSYM    DATA     BYTE      IFD
      000000B8H.1 SFRSYM    DATA     BIT       PT0
      000000B0H.5 SFRSYM    DATA     BIT       R485_DE_RE
      000000B8H.3 SFRSYM    DATA     BIT       PT1
      000000D0H.3 SFRSYM    DATA     BIT       RS0
      00000088H.4 SFRSYM    DATA     BIT       TR0
      000000B8H.5 SFRSYM    DATA     BIT       PT2
      000000D0H.4 SFRSYM    DATA     BIT       RS1
      00000088H.6 SFRSYM    DATA     BIT       TR1
      000000C8H.2 SFRSYM    DATA     BIT       TR2
      000000B8H   SFRSYM    DATA     BIT       PX0
      000000AFH   SFRSYM    DATA     BYTE      EIP1H
      000000B8H.2 SFRSYM    DATA     BIT       PX1
      000000C0H.3 SFRSYM    DATA     BIT       PX2
      000000C0H.7 SFRSYM    DATA     BIT       PX3
      000000AEH   SFRSYM    DATA     BYTE      EIP1L
      00000083H   SFRSYM    DATA     BYTE      DPH
      000000C8H   SFRSYM    DATA     BIT       CKO
      00000082H   SFRSYM    DATA     BYTE      DPL
      00000087H   SFRSYM    DATA     BYTE      PCON0
      00000084H   SFRSYM    DATA     BYTE      SPSTAT
      00000099H   SFRSYM    DATA     BYTE      SBUF0
      000000B7H   SFRSYM    DATA     BYTE      IPH
      000000B0H.4 SFRSYM    DATA     BIT       T0CKO
      00000097H   SFRSYM    DATA     BYTE      PCON1
      00000099H   SFRSYM    DATA     BYTE      SBUF1
      000000B0H.5 SFRSYM    DATA     BIT       T1CKO
      000000C8H.3 SFRSYM    DATA     BIT       EXEN2
      000000C7H   SFRSYM    DATA     BYTE      PCON2
      0000009AH   SFRSYM    DATA     BYTE      S2BUF
      000000A0H.5 SFRSYM    DATA     BIT       NONE3
      00000090H.7 SFRSYM    DATA     BIT       none2
      00000098H   SFRSYM    DATA     BYTE      SCON0
      00000098H.4 SFRSYM    DATA     BIT       REN
      00000098H   SFRSYM    DATA     BYTE      SCON1
      00000080H.2 SFRSYM    DATA     BIT       mV_C
      000000C5H   SFRSYM    DATA     BYTE      ADCON
      000000A0H.2 SFRSYM    DATA     BIT       mA_SDA
      000000C9H   SFRSYM    DATA     BYTE      T2MOD
      000000C8H   SFRSYM    DATA     BYTE      T2CON
      000000C5H   SFRSYM    DATA     BYTE      ADCTL
      000000BEH   SFRSYM    DATA     BYTE      ADCVL
      000000B9H   SFRSYM    DATA     BYTE      SADEN
      0000009AH   SFRSYM    DATA     BYTE      S1BRT
      000000B0H   SFRSYM    DATA     BIT       RXD
      000000D6H   SFRSYM    DATA     BYTE      KBCON
LX51 LINKER/LOCATER V4.47a                                                            12/31/2014  11:09:05  PAGE 82


      00000080H.6 SFRSYM    DATA     BIT       UP_KEY
      000000C8H.1 SFRSYM    DATA     BIT       XIN
      000000B8H.4 SFRSYM    DATA     BIT       PSL
      000000A9H   SFRSYM    DATA     BYTE      SADDR
      000000B0H.1 SFRSYM    DATA     BIT       TXD
      000000A0H.4 SFRSYM    DATA     BIT       mA_SCL
      0000008EH   SFRSYM    DATA     BYTE      AUXR0
      000000A2H   SFRSYM    DATA     BYTE      AUXR1
      00000090H.4 SFRSYM    DATA     BIT       SPI_SS
      000000A6H   SFRSYM    DATA     BYTE      AUXR2
      00000090H.2 SFRSYM    DATA     BIT       S2RXD
      000000D0H.5 SFRSYM    DATA     BIT       F0
      000000B0H.4 SFRSYM    DATA     BIT       BEEP_OUT
      00000090H.3 SFRSYM    DATA     BIT       S2TXD
      000000D0H.1 SFRSYM    DATA     BIT       F1
      00000090H.1 SFRSYM    DATA     BIT       LED1_LE
      00000090H.5 SFRSYM    DATA     BIT       LED2_LE
      000000F2H   SFRSYM    DATA     BYTE      PCAPWM0
      000000D0H   SFRSYM    DATA     BYTE      PSW
      000000F3H   SFRSYM    DATA     BYTE      PCAPWM1
      000000A0H.2 SFRSYM    DATA     BIT       mV_SDA
      000000D8H   SFRSYM    DATA     BIT       CCF0
      00000098H.2 SFRSYM    DATA     BIT       RB80
      000000F4H   SFRSYM    DATA     BYTE      PCAPWM2
      000000D8H.1 SFRSYM    DATA     BIT       CCF1
      00000098H.2 SFRSYM    DATA     BIT       RB81
      000000F5H   SFRSYM    DATA     BYTE      PCAPWM3
      00000086H   SFRSYM    DATA     BYTE      SPDAT
      00000093H   SFRSYM    DATA     BYTE      P0M0
      000000ADH   SFRSYM    DATA     BYTE      AUXIE

      0100575CH   BLOCK     CODE     ---       LVL=0
      0100575CH   BLOCK     CODE     NEAR LAB  LVL=1
      00000007H   SYMBOL    DATA     BYTE      i
      ---         BLOCKEND  ---      ---       LVL=1
      0100575CH   LINE      CODE     ---       #27
      0100575CH   LINE      CODE     ---       #28
      0100575CH   LINE      CODE     ---       #31
      01005762H   LINE      CODE     ---       #32
      ---         BLOCKEND  ---      ---       LVL=0
      00000006H   SYMBOL    DATA     WORD      i

      01005663H   BLOCK     CODE     ---       LVL=0
      01005663H   LINE      CODE     ---       #49
      01005663H   LINE      CODE     ---       #50
      01005663H   LINE      CODE     ---       #51
      01005665H   LINE      CODE     ---       #52
      01005668H   LINE      CODE     ---       #53
      0100566AH   LINE      CODE     ---       #54
      0100566DH   LINE      CODE     ---       #55
      0100566FH   LINE      CODE     ---       #56
      01005672H   LINE      CODE     ---       #57
      01005674H   LINE      CODE     ---       #58
      ---         BLOCKEND  ---      ---       LVL=0

      01005729H   BLOCK     CODE     ---       LVL=0
      01005729H   LINE      CODE     ---       #60
      01005729H   LINE      CODE     ---       #61
      01005729H   LINE      CODE     ---       #62
      0100572BH   LINE      CODE     ---       #63
      0100572EH   LINE      CODE     ---       #64
      01005730H   LINE      CODE     ---       #65
      ---         BLOCKEND  ---      ---       LVL=0

      010052F4H   BLOCK     CODE     ---       LVL=0
LX51 LINKER/LOCATER V4.47a                                                            12/31/2014  11:09:05  PAGE 83


      00000006H   SYMBOL    DATA     BYTE      bt
      010052F6H   BLOCK     CODE     NEAR LAB  LVL=1
      00000010H   SYMBOL    IDATA    BYTE      i
      ---         BLOCKEND  ---      ---       LVL=1
      010052F4H   LINE      CODE     ---       #68
      010052F6H   LINE      CODE     ---       #69
      010052F6H   LINE      CODE     ---       #72
      010052F9H   LINE      CODE     ---       #74
      010052FDH   LINE      CODE     ---       #75
      010052FDH   LINE      CODE     ---       #76
      01005301H   LINE      CODE     ---       #77
      01005305H   LINE      CODE     ---       #79
      01005307H   LINE      CODE     ---       #80
      01005309H   LINE      CODE     ---       #81
      0100530CH   LINE      CODE     ---       #82
      0100530EH   LINE      CODE     ---       #83
      01005311H   LINE      CODE     ---       #84
      01005315H   LINE      CODE     ---       #85
      0100531EH   LINE      CODE     ---       #87
      01005320H   LINE      CODE     ---       #88
      01005322H   LINE      CODE     ---       #89
      01005325H   LINE      CODE     ---       #90
      01005328H   LINE      CODE     ---       #91
      0100532BH   LINE      CODE     ---       #92
      0100532DH   LINE      CODE     ---       #93
      ---         BLOCKEND  ---      ---       LVL=0

      0100548DH   BLOCK     CODE     ---       LVL=0
      00000006H   SYMBOL    DATA     WORD      mV_V
      0100548DH   BLOCK     CODE     NEAR LAB  LVL=1
      00000003H   SYMBOL    DATA     BYTE      HI_CODE
      00000002H   SYMBOL    DATA     BYTE      LO_CODE
      ---         BLOCKEND  ---      ---       LVL=1
      0100548DH   LINE      CODE     ---       #96
      0100548DH   LINE      CODE     ---       #97
      0100548DH   LINE      CODE     ---       #101
      0100548DH   LINE      CODE     ---       #103
      01005491H   LINE      CODE     ---       #104
      01005497H   LINE      CODE     ---       #105
      01005499H   LINE      CODE     ---       #106
      0100549BH   LINE      CODE     ---       #107
      010054A0H   LINE      CODE     ---       #109
      010054A3H   LINE      CODE     ---       #110
      010054A8H   LINE      CODE     ---       #111
      010054ADH   LINE      CODE     ---       #112
      010054B2H   LINE      CODE     ---       #113
      ---         BLOCKEND  ---      ---       LVL=0
      00000006H   SYMBOL    DATA     WORD      n

      ---         MODULE    ---      ---       DAC6571_MA
      0000000EH   PUBLIC    DATA     BYTE      _mA_ack
      010053DEH   PUBLIC    CODE     ---       _Set_mA
      01005330H   PUBLIC    CODE     ---       _DAC6571mA_write_byte
      01005733H   PUBLIC    CODE     ---       DAC6571mA_stop
      01005675H   PUBLIC    CODE     ---       DAC6571mA_start
      01005763H   PUBLIC    CODE     ---       _mABitDly
      000000B0H   SFRSYM    DATA     BIT       R485_RX
      000000D8H.2 SFRSYM    DATA     BIT       CCF2
      00000098H.3 SFRSYM    DATA     BIT       TB80
      000000F6H   SFRSYM    DATA     BYTE      PCAPWM4
      00000091H   SFRSYM    DATA     BYTE      P1M0
      00000094H   SFRSYM    DATA     BYTE      P0M1
      000000D8H.3 SFRSYM    DATA     BIT       CCF3
      00000098H.3 SFRSYM    DATA     BIT       TB81
      000000F7H   SFRSYM    DATA     BYTE      PCAPWM5
LX51 LINKER/LOCATER V4.47a                                                            12/31/2014  11:09:05  PAGE 84


      00000095H   SFRSYM    DATA     BYTE      P2M0
      00000092H   SFRSYM    DATA     BYTE      P1M1
      00000080H   SFRSYM    DATA     BYTE      P0
      000000B0H.1 SFRSYM    DATA     BIT       R485_TX
      000000D8H.4 SFRSYM    DATA     BIT       CCF4
      00000098H.7 SFRSYM    DATA     BIT       SM00
      000000B1H   SFRSYM    DATA     BYTE      P3M0
      00000096H   SFRSYM    DATA     BYTE      P2M1
      00000090H   SFRSYM    DATA     BYTE      P1
      000000D8H.5 SFRSYM    DATA     BIT       CCF5
      00000098H.7 SFRSYM    DATA     BIT       SM01
      00000098H.6 SFRSYM    DATA     BIT       SM10
      000000B3H   SFRSYM    DATA     BYTE      P4M0
      000000B2H   SFRSYM    DATA     BYTE      P3M1
      000000A0H   SFRSYM    DATA     BYTE      P2
      00000098H.6 SFRSYM    DATA     BIT       SM11
      00000098H.5 SFRSYM    DATA     BIT       SM20
      000000E7H   SFRSYM    DATA     BYTE      ISPCR
      000000B5H   SFRSYM    DATA     BYTE      P5M0
      000000B4H   SFRSYM    DATA     BYTE      P4M1
      000000B0H   SFRSYM    DATA     BYTE      P3
      000000C0H   SFRSYM    DATA     BYTE      XICON
      000000A0H.2 SFRSYM    DATA     BIT       EEPROM_SDA
      00000080H.7 SFRSYM    DATA     BIT       DOWN_KEY
      000000B0H.4 SFRSYM    DATA     BIT       T0
      00000098H.5 SFRSYM    DATA     BIT       SM21
      000000D0H.6 SFRSYM    DATA     BIT       AC
      00000097H   SFRSYM    DATA     BYTE      EVRCR
      000000B6H   SFRSYM    DATA     BYTE      P5M1
      000000E8H   SFRSYM    DATA     BYTE      P4
      000000B0H.5 SFRSYM    DATA     BIT       T1
      00000085H   SFRSYM    DATA     BYTE      SPCON
      000000F8H   SFRSYM    DATA     BYTE      P5
      000000ADH   SFRSYM    DATA     BYTE      EIE1
      00000090H   SFRSYM    DATA     BIT       T2
      000000A8H.7 SFRSYM    DATA     BIT       EA
      000000ACH   SFRSYM    DATA     BYTE      SFRPI
      000000E1H   SFRSYM    DATA     BYTE      WDTCR
      000000C8H   SFRSYM    DATA     BYTE      P6
      000000A0H.4 SFRSYM    DATA     BIT       mV_SCL
      000000A0H   SFRSYM    DATA     BIT       KBI0
      00000090H.5 SFRSYM    DATA     BIT       SPI_MOSI
      00000090H.6 SFRSYM    DATA     BIT       SPI_MISO
      00000080H.5 SFRSYM    DATA     BIT       mA_OUT
      000000A0H.1 SFRSYM    DATA     BIT       KBI1
      00000085H   SFRSYM    DATA     BYTE      SPCTL
      000000A0H.2 SFRSYM    DATA     BIT       KBI2
      00000090H   SFRSYM    DATA     BIT       AIN0
      000000D8H.7 SFRSYM    DATA     BIT       CF
      000000AEH   SFRSYM    DATA     BYTE      AUXIP
      000000A0H.3 SFRSYM    DATA     BIT       KBI3
      00000090H.1 SFRSYM    DATA     BIT       AIN1
      000000A0H.4 SFRSYM    DATA     BIT       KBI4
      00000090H.2 SFRSYM    DATA     BIT       AIN2
      00000098H.7 SFRSYM    DATA     BIT       FE
      000000F9H   SFRSYM    DATA     BYTE      CH
      000000A0H.5 SFRSYM    DATA     BIT       KBI5
      00000090H.3 SFRSYM    DATA     BIT       AIN3
      000000A0H.6 SFRSYM    DATA     BIT       KBI6
      00000090H.4 SFRSYM    DATA     BIT       AIN4
      000000A0H.3 SFRSYM    DATA     BIT       EEPROM_SCL
      00000080H.1 SFRSYM    DATA     BIT       RTD_C
      000000A0H.7 SFRSYM    DATA     BIT       KBI7
      00000090H.5 SFRSYM    DATA     BIT       AIN5
      000000A8H   SFRSYM    DATA     BYTE      IE
LX51 LINKER/LOCATER V4.47a                                                            12/31/2014  11:09:05  PAGE 85


      00000090H.6 SFRSYM    DATA     BIT       AIN6
      000000E9H   SFRSYM    DATA     BYTE      CL
      00000090H.7 SFRSYM    DATA     BIT       AIN7
      00000090H.2 SFRSYM    DATA     BIT       CEX0
      000000FAH   SFRSYM    DATA     BYTE      CCAP0H
      000000C6H   SFRSYM    DATA     BYTE      ADCH
      00000090H.3 SFRSYM    DATA     BIT       CEX1
      000000FBH   SFRSYM    DATA     BYTE      CCAP1H
      000000B7H   SFRSYM    DATA     BYTE      IP0H
      000000A0H.2 SFRSYM    DATA     BIT       ALL_SDA
      00000090H.4 SFRSYM    DATA     BIT       CEX2
      000000FCH   SFRSYM    DATA     BYTE      CCAP2H
      000000B0H.3 SFRSYM    DATA     BIT       OFFSET_KEY
      00000090H.5 SFRSYM    DATA     BIT       CEX3
      000000FDH   SFRSYM    DATA     BYTE      CCAP3H
      00000090H.6 SFRSYM    DATA     BIT       CEX4
      000000D8H.6 SFRSYM    DATA     BIT       CR
      000000FEH   SFRSYM    DATA     BYTE      CCAP4H
      000000EAH   SFRSYM    DATA     BYTE      CCAP0L
      000000BEH   SFRSYM    DATA     BYTE      ADCL
      000000B0H.7 SFRSYM    DATA     BIT       RD
      00000090H.7 SFRSYM    DATA     BIT       CEX5
      000000C8H.6 SFRSYM    DATA     BIT       EXF2
      00000098H.4 SFRSYM    DATA     BIT       REN0
      000000FFH   SFRSYM    DATA     BYTE      CCAP5H
      000000EBH   SFRSYM    DATA     BYTE      CCAP1L
      000000DAH   SFRSYM    DATA     BYTE      CCAPM0
      000000B8H   SFRSYM    DATA     BYTE      IP0L
      00000098H.4 SFRSYM    DATA     BIT       REN1
      000000ECH   SFRSYM    DATA     BYTE      CCAP2L
      000000DBH   SFRSYM    DATA     BYTE      CCAPM1
      000000C0H.3 SFRSYM    DATA     BIT       IT2H
      000000A8H.4 SFRSYM    DATA     BIT       ES
      00000097H   SFRSYM    DATA     BYTE      TSTWD
      000000EDH   SFRSYM    DATA     BYTE      CCAP3L
      000000DCH   SFRSYM    DATA     BYTE      CCAPM2
      000000C0H.7 SFRSYM    DATA     BIT       IT3H
      000000EEH   SFRSYM    DATA     BYTE      CCAP4L
      000000DDH   SFRSYM    DATA     BYTE      CCAPM3
      000000B8H   SFRSYM    DATA     BYTE      IP
      000000EFH   SFRSYM    DATA     BYTE      CCAP5L
      000000DEH   SFRSYM    DATA     BYTE      CCAPM4
      00000098H   SFRSYM    DATA     BIT       RI
      000000DFH   SFRSYM    DATA     BYTE      CCAPM5
      000000B0H.2 SFRSYM    DATA     BIT       INT0
      000000D0H.7 SFRSYM    DATA     BIT       CY
      000000B0H.4 SFRSYM    DATA     BIT       BEEP
      00000080H.4 SFRSYM    DATA     BIT       mV_OUT
      000000B0H.3 SFRSYM    DATA     BIT       INT1
      00000098H.1 SFRSYM    DATA     BIT       TI
      000000A0H.3 SFRSYM    DATA     BIT       EEP_SCL
      000000E8H.3 SFRSYM    DATA     BIT       INT2
      000000E8H.2 SFRSYM    DATA     BIT       INT3
      000000C6H   SFRSYM    DATA     BYTE      ADCV
      0000008FH   SFRSYM    DATA     BYTE      STRETCH
      000000B8H.1 SFRSYM    DATA     BIT       PT0L
      000000B8H.3 SFRSYM    DATA     BIT       PT1L
      000000CBH   SFRSYM    DATA     BYTE      RCAP2H
      000000A0H.2 SFRSYM    DATA     BIT       RTC_SDA
      000000B8H.4 SFRSYM    DATA     BIT       PS
      000000B8H.5 SFRSYM    DATA     BIT       PT2L
      00000081H   SFRSYM    DATA     BYTE      SP
      00000090H.1 SFRSYM    DATA     BIT       T2EX
      000000D9H   SFRSYM    DATA     BYTE      CMOD
      000000D8H   SFRSYM    DATA     BYTE      CCON
LX51 LINKER/LOCATER V4.47a                                                            12/31/2014  11:09:05  PAGE 86


      0000009AH   SFRSYM    DATA     BYTE      SCFG
      000000B8H   SFRSYM    DATA     BIT       PX0L
      000000D0H.2 SFRSYM    DATA     BIT       OV
      000000B8H.2 SFRSYM    DATA     BIT       PX1L
      000000CAH   SFRSYM    DATA     BYTE      RCAP2L
      000000B8H.6 SFRSYM    DATA     BIT       PX2L
      00000090H.7 SFRSYM    DATA     BIT       SPI_CLK
      000000B8H.7 SFRSYM    DATA     BIT       PX3L
      000000E6H   SFRSYM    DATA     BYTE      SCMD
      000000B0H.6 SFRSYM    DATA     BIT       WR
      000000C8H.1 SFRSYM    DATA     BIT       C_T2
      00000084H   SFRSYM    DATA     BYTE      SPISTAT
      00000090H.6 SFRSYM    DATA     BIT       RTC_SCL
      000000C8H.5 SFRSYM    DATA     BIT       RCLK
      000000C8H.4 SFRSYM    DATA     BIT       TCLK
      00000080H   SFRSYM    DATA     BIT       P00
      000000E3H   SFRSYM    DATA     BYTE      IFADRH
      00000090H   SFRSYM    DATA     BIT       P10
      00000080H.1 SFRSYM    DATA     BIT       P01
      000000E5H   SFRSYM    DATA     BYTE      IFMT
      00000087H   SFRSYM    DATA     BYTE      PCON
      00000099H   SFRSYM    DATA     BYTE      SBUF
      000000A0H   SFRSYM    DATA     BIT       P20
      00000090H.1 SFRSYM    DATA     BIT       P11
      00000080H.2 SFRSYM    DATA     BIT       P02
      000000B0H   SFRSYM    DATA     BIT       P30
      000000A0H.1 SFRSYM    DATA     BIT       P21
      00000090H.2 SFRSYM    DATA     BIT       P12
      00000080H.3 SFRSYM    DATA     BIT       P03
      000000B0H.2 SFRSYM    DATA     BIT       FUNCTION_KEY
      000000E8H   SFRSYM    DATA     BIT       P40
      000000B0H.1 SFRSYM    DATA     BIT       P31
      000000A0H.2 SFRSYM    DATA     BIT       P22
      00000090H.3 SFRSYM    DATA     BIT       P13
      00000080H.4 SFRSYM    DATA     BIT       P04
      000000E4H   SFRSYM    DATA     BYTE      IFADRL
      00000098H   SFRSYM    DATA     BYTE      SCON
      000000F8H   SFRSYM    DATA     BIT       P50
      000000E8H.1 SFRSYM    DATA     BIT       P41
      000000B0H.2 SFRSYM    DATA     BIT       P32
      000000A0H.3 SFRSYM    DATA     BIT       P23
      00000090H.4 SFRSYM    DATA     BIT       P14
      00000080H.5 SFRSYM    DATA     BIT       P05
      00000089H   SFRSYM    DATA     BYTE      TMOD
      00000088H   SFRSYM    DATA     BYTE      TCON
      000000C8H   SFRSYM    DATA     BIT       P60
      000000F8H.1 SFRSYM    DATA     BIT       P51
      000000E8H.2 SFRSYM    DATA     BIT       P42
      000000B0H.3 SFRSYM    DATA     BIT       P33
      000000A0H.4 SFRSYM    DATA     BIT       P24
      00000090H.5 SFRSYM    DATA     BIT       P15
      00000080H.6 SFRSYM    DATA     BIT       P06
      000000C8H.1 SFRSYM    DATA     BIT       P61
      000000F8H.2 SFRSYM    DATA     BIT       P52
      000000E8H.3 SFRSYM    DATA     BIT       P43
      000000B0H.4 SFRSYM    DATA     BIT       P34
      000000A0H.5 SFRSYM    DATA     BIT       P25
      00000090H.6 SFRSYM    DATA     BIT       P16
      00000080H.7 SFRSYM    DATA     BIT       P07
      000000F8H.3 SFRSYM    DATA     BIT       P53
      000000E8H.4 SFRSYM    DATA     BIT       P44
      000000B0H.5 SFRSYM    DATA     BIT       P35
      000000A0H.6 SFRSYM    DATA     BIT       P26
      00000090H.7 SFRSYM    DATA     BIT       P17
      000000A0H   SFRSYM    DATA     BIT       Value_SDA
LX51 LINKER/LOCATER V4.47a                                                            12/31/2014  11:09:05  PAGE 87


      000000E8H.5 SFRSYM    DATA     BIT       P45
      000000B0H.6 SFRSYM    DATA     BIT       P36
      000000A0H.7 SFRSYM    DATA     BIT       P27
      00000080H   SFRSYM    DATA     BIT       TC_C
      000000E8H.6 SFRSYM    DATA     BIT       P46
      000000B0H.7 SFRSYM    DATA     BIT       P37
      000000E8H.7 SFRSYM    DATA     BIT       P47
      000000D7H   SFRSYM    DATA     BYTE      KBMASK
      000000A0H.4 SFRSYM    DATA     BIT       OUT_SCL
      000000A0H   SFRSYM    DATA     BIT       AD_SDA
      00000088H.1 SFRSYM    DATA     BIT       IE0
      00000088H.3 SFRSYM    DATA     BIT       IE1
      00000090H   SFRSYM    DATA     BIT       LED1_SDA
      000000C0H.1 SFRSYM    DATA     BIT       IE2
      00000090H.3 SFRSYM    DATA     BIT       LED2_SDA
      000000C0H.5 SFRSYM    DATA     BIT       IE3
      000000A8H.6 SFRSYM    DATA     BIT       GF4
      0000008EH   SFRSYM    DATA     BYTE      AUXR
      000000F0H   SFRSYM    DATA     BYTE      B
      000000D5H   SFRSYM    DATA     BYTE      KBPATN
      000000A0H.1 SFRSYM    DATA     BIT       Value_SCL
      000000C8H   SFRSYM    DATA     BIT       CP_RL2
      000000A0H.6 SFRSYM    DATA     BIT       NONE_4
      000000A0H.7 SFRSYM    DATA     BIT       NONE_5
      000000B0H.6 SFRSYM    DATA     BIT       NONE_6
      00000086H   SFRSYM    DATA     BYTE      SPIDAT
      000000E0H   SFRSYM    DATA     BYTE      ACC
      000000B0H.7 SFRSYM    DATA     BIT       NONE_7
      000000A0H.1 SFRSYM    DATA     BIT       AD_SCL
      000000A8H.4 SFRSYM    DATA     BIT       ES0
      000000A8H.1 SFRSYM    DATA     BIT       ET0
      00000090H.2 SFRSYM    DATA     BIT       LED1_SCL
      00000088H.5 SFRSYM    DATA     BIT       TF0
      000000A8H.3 SFRSYM    DATA     BIT       ET1
      00000090H.4 SFRSYM    DATA     BIT       LED2_SCL
      00000088H.7 SFRSYM    DATA     BIT       TF1
      00000098H   SFRSYM    DATA     BIT       RI0
      000000A8H.5 SFRSYM    DATA     BIT       ET2
      000000C8H.7 SFRSYM    DATA     BIT       TF2
      00000098H   SFRSYM    DATA     BIT       RI1
      00000098H.2 SFRSYM    DATA     BIT       RB8
      0000008CH   SFRSYM    DATA     BYTE      TH0
      00000088H   SFRSYM    DATA     BIT       IT0
      00000098H.1 SFRSYM    DATA     BIT       TI0
      000000A8H   SFRSYM    DATA     BIT       EX0
      0000008DH   SFRSYM    DATA     BYTE      TH1
      00000088H.2 SFRSYM    DATA     BIT       IT1
      00000098H.1 SFRSYM    DATA     BIT       TI1
      00000098H.3 SFRSYM    DATA     BIT       TB8
      000000A8H.2 SFRSYM    DATA     BIT       EX1
      00000085H   SFRSYM    DATA     BYTE      SPICON
      000000CDH   SFRSYM    DATA     BYTE      TH2
      000000C0H   SFRSYM    DATA     BIT       IT2
      000000C0H.2 SFRSYM    DATA     BIT       EX2
      000000D0H   SFRSYM    DATA     BIT       P
      000000C0H.4 SFRSYM    DATA     BIT       IT3
      000000C0H.6 SFRSYM    DATA     BIT       EX3
      00000098H.7 SFRSYM    DATA     BIT       SM0
      0000008AH   SFRSYM    DATA     BYTE      TL0
      00000080H.3 SFRSYM    DATA     BIT       mA_C
      000000C8H   SFRSYM    DATA     BIT       XOUT
      00000090H.1 SFRSYM    DATA     BIT       ECI
      00000098H.6 SFRSYM    DATA     BIT       SM1
      00000085H   SFRSYM    DATA     BYTE      SPICTL
      0000008BH   SFRSYM    DATA     BYTE      TL1
LX51 LINKER/LOCATER V4.47a                                                            12/31/2014  11:09:05  PAGE 88


      000000AFH   SFRSYM    DATA     BYTE      AUXIPH
      000000E8H.6 SFRSYM    DATA     BIT       ALE
      00000098H.5 SFRSYM    DATA     BIT       SM2
      000000CCH   SFRSYM    DATA     BYTE      TL2
      000000E2H   SFRSYM    DATA     BYTE      IFD
      000000B8H.1 SFRSYM    DATA     BIT       PT0
      000000B0H.5 SFRSYM    DATA     BIT       R485_DE_RE
      000000B8H.3 SFRSYM    DATA     BIT       PT1
      000000D0H.3 SFRSYM    DATA     BIT       RS0
      00000088H.4 SFRSYM    DATA     BIT       TR0
      000000B8H.5 SFRSYM    DATA     BIT       PT2
      000000D0H.4 SFRSYM    DATA     BIT       RS1
      00000088H.6 SFRSYM    DATA     BIT       TR1
      000000C8H.2 SFRSYM    DATA     BIT       TR2
      000000B8H   SFRSYM    DATA     BIT       PX0
      000000AFH   SFRSYM    DATA     BYTE      EIP1H
      000000B8H.2 SFRSYM    DATA     BIT       PX1
      000000C0H.3 SFRSYM    DATA     BIT       PX2
      000000C0H.7 SFRSYM    DATA     BIT       PX3
      000000AEH   SFRSYM    DATA     BYTE      EIP1L
      00000083H   SFRSYM    DATA     BYTE      DPH
      000000C8H   SFRSYM    DATA     BIT       CKO
      00000082H   SFRSYM    DATA     BYTE      DPL
      00000087H   SFRSYM    DATA     BYTE      PCON0
      00000084H   SFRSYM    DATA     BYTE      SPSTAT
      00000099H   SFRSYM    DATA     BYTE      SBUF0
      000000B7H   SFRSYM    DATA     BYTE      IPH
      000000B0H.4 SFRSYM    DATA     BIT       T0CKO
      00000097H   SFRSYM    DATA     BYTE      PCON1
      00000099H   SFRSYM    DATA     BYTE      SBUF1
      000000B0H.5 SFRSYM    DATA     BIT       T1CKO
      000000C8H.3 SFRSYM    DATA     BIT       EXEN2
      000000C7H   SFRSYM    DATA     BYTE      PCON2
      0000009AH   SFRSYM    DATA     BYTE      S2BUF
      000000A0H.5 SFRSYM    DATA     BIT       NONE3
      00000090H.7 SFRSYM    DATA     BIT       none2
      00000098H   SFRSYM    DATA     BYTE      SCON0
      00000098H.4 SFRSYM    DATA     BIT       REN
      00000098H   SFRSYM    DATA     BYTE      SCON1
      00000080H.2 SFRSYM    DATA     BIT       mV_C
      000000C5H   SFRSYM    DATA     BYTE      ADCON
      000000A0H.2 SFRSYM    DATA     BIT       mA_SDA
      000000C9H   SFRSYM    DATA     BYTE      T2MOD
      000000C8H   SFRSYM    DATA     BYTE      T2CON
      000000C5H   SFRSYM    DATA     BYTE      ADCTL
      000000BEH   SFRSYM    DATA     BYTE      ADCVL
      000000B9H   SFRSYM    DATA     BYTE      SADEN
      0000009AH   SFRSYM    DATA     BYTE      S1BRT
      000000B0H   SFRSYM    DATA     BIT       RXD
      000000D6H   SFRSYM    DATA     BYTE      KBCON
      00000080H.6 SFRSYM    DATA     BIT       UP_KEY
      000000C8H.1 SFRSYM    DATA     BIT       XIN
      000000B8H.4 SFRSYM    DATA     BIT       PSL
      000000A9H   SFRSYM    DATA     BYTE      SADDR
      000000B0H.1 SFRSYM    DATA     BIT       TXD
      000000A0H.4 SFRSYM    DATA     BIT       mA_SCL
      0000008EH   SFRSYM    DATA     BYTE      AUXR0
      000000A2H   SFRSYM    DATA     BYTE      AUXR1
      00000090H.4 SFRSYM    DATA     BIT       SPI_SS
      000000A6H   SFRSYM    DATA     BYTE      AUXR2
      00000090H.2 SFRSYM    DATA     BIT       S2RXD
      000000D0H.5 SFRSYM    DATA     BIT       F0
      000000B0H.4 SFRSYM    DATA     BIT       BEEP_OUT
      00000090H.3 SFRSYM    DATA     BIT       S2TXD
      000000D0H.1 SFRSYM    DATA     BIT       F1
LX51 LINKER/LOCATER V4.47a                                                            12/31/2014  11:09:05  PAGE 89


      00000090H.1 SFRSYM    DATA     BIT       LED1_LE
      00000090H.5 SFRSYM    DATA     BIT       LED2_LE
      000000F2H   SFRSYM    DATA     BYTE      PCAPWM0
      000000D0H   SFRSYM    DATA     BYTE      PSW
      000000F3H   SFRSYM    DATA     BYTE      PCAPWM1
      000000A0H.2 SFRSYM    DATA     BIT       mV_SDA
      000000D8H   SFRSYM    DATA     BIT       CCF0
      00000098H.2 SFRSYM    DATA     BIT       RB80
      000000F4H   SFRSYM    DATA     BYTE      PCAPWM2
      000000D8H.1 SFRSYM    DATA     BIT       CCF1
      00000098H.2 SFRSYM    DATA     BIT       RB81
      000000F5H   SFRSYM    DATA     BYTE      PCAPWM3
      00000086H   SFRSYM    DATA     BYTE      SPDAT
      00000093H   SFRSYM    DATA     BYTE      P0M0
      000000ADH   SFRSYM    DATA     BYTE      AUXIE

      01005763H   BLOCK     CODE     ---       LVL=0
      01005763H   BLOCK     CODE     NEAR LAB  LVL=1
      00000007H   SYMBOL    DATA     BYTE      k
      ---         BLOCKEND  ---      ---       LVL=1
      01005763H   LINE      CODE     ---       #28
      01005763H   LINE      CODE     ---       #29
      01005763H   LINE      CODE     ---       #32
      01005769H   LINE      CODE     ---       #33
      ---         BLOCKEND  ---      ---       LVL=0
      00000006H   SYMBOL    DATA     WORD      i

      01005675H   BLOCK     CODE     ---       LVL=0
      01005675H   LINE      CODE     ---       #50
      01005675H   LINE      CODE     ---       #51
      01005675H   LINE      CODE     ---       #52
      01005677H   LINE      CODE     ---       #53
      0100567AH   LINE      CODE     ---       #54
      0100567CH   LINE      CODE     ---       #55
      0100567FH   LINE      CODE     ---       #56
      01005681H   LINE      CODE     ---       #57
      01005684H   LINE      CODE     ---       #58
      01005686H   LINE      CODE     ---       #59
      ---         BLOCKEND  ---      ---       LVL=0

      01005733H   BLOCK     CODE     ---       LVL=0
      01005733H   LINE      CODE     ---       #61
      01005733H   LINE      CODE     ---       #62
      01005733H   LINE      CODE     ---       #63
      01005735H   LINE      CODE     ---       #64
      01005738H   LINE      CODE     ---       #65
      0100573AH   LINE      CODE     ---       #66
      ---         BLOCKEND  ---      ---       LVL=0

      01005330H   BLOCK     CODE     ---       LVL=0
      00000006H   SYMBOL    DATA     BYTE      bt
      01005332H   BLOCK     CODE     NEAR LAB  LVL=1
      00000010H   SYMBOL    IDATA    BYTE      i
      ---         BLOCKEND  ---      ---       LVL=1
      01005330H   LINE      CODE     ---       #69
      01005332H   LINE      CODE     ---       #70
      01005332H   LINE      CODE     ---       #73
      01005335H   LINE      CODE     ---       #75
      01005339H   LINE      CODE     ---       #76
      01005339H   LINE      CODE     ---       #77
      0100533DH   LINE      CODE     ---       #78
      01005341H   LINE      CODE     ---       #80
      01005343H   LINE      CODE     ---       #81
      01005345H   LINE      CODE     ---       #82
      01005348H   LINE      CODE     ---       #83
LX51 LINKER/LOCATER V4.47a                                                            12/31/2014  11:09:05  PAGE 90


      0100534AH   LINE      CODE     ---       #84
      0100534DH   LINE      CODE     ---       #85
      01005351H   LINE      CODE     ---       #86
      0100535AH   LINE      CODE     ---       #88
      0100535CH   LINE      CODE     ---       #89
      0100535EH   LINE      CODE     ---       #90
      01005361H   LINE      CODE     ---       #91
      01005364H   LINE      CODE     ---       #92
      01005367H   LINE      CODE     ---       #93
      01005369H   LINE      CODE     ---       #94
      ---         BLOCKEND  ---      ---       LVL=0

      010053DEH   BLOCK     CODE     ---       LVL=0
      00000002H   SYMBOL    DATA     WORD      mA_Value
      010053E2H   BLOCK     CODE     NEAR LAB  LVL=1
      00000004H   SYMBOL    DATA     BYTE      HI_CODE
      00000005H   SYMBOL    DATA     BYTE      LO_CODE
      ---         BLOCKEND  ---      ---       LVL=1
      010053DEH   LINE      CODE     ---       #97
      010053E2H   LINE      CODE     ---       #98
      010053E2H   LINE      CODE     ---       #101
      010053E6H   LINE      CODE     ---       #102
      010053F0H   LINE      CODE     ---       #104
      010053F4H   LINE      CODE     ---       #105
      010053F8H   LINE      CODE     ---       #106
      010053FBH   LINE      CODE     ---       #107
      010053FEH   LINE      CODE     ---       #108
      01005403H   LINE      CODE     ---       #109
      01005408H   LINE      CODE     ---       #110
      0100540DH   LINE      CODE     ---       #111
      ---         BLOCKEND  ---      ---       LVL=0
      00000006H   SYMBOL    DATA     WORD      n

      ---         MODULE    ---      ---       TYPE_SLOPE
      0000000AH   PUBLIC    DATA     BYTE      ng_flog
      00000009H   PUBLIC    DATA     BYTE      NP_COD
      0200004AH   PUBLIC    XDATA    ---       RTD_Slope
      00000008H   PUBLIC    DATA     BYTE      AV_COD
      02000040H   PUBLIC    XDATA    ---       T_Slope
      02000030H   PUBLIC    XDATA    ---       S_Slope
      02000020H   PUBLIC    XDATA    ---       R_Slope
      02000015H   PUBLIC    XDATA    ---       K_Slope
      0200000CH   PUBLIC    XDATA    ---       J_Slope
      02000000H   PUBLIC    XDATA    ---       E_Slope
      01002EC0H   PUBLIC    CODE     ---       _Get_RTD_Slope
      01003EF1H   PUBLIC    CODE     ---       _Get_S_Slope
      01003BA8H   PUBLIC    CODE     ---       _Get_R_Slope
      01000AC1H   PUBLIC    CODE     ---       _Get_E_Slope
      01002950H   PUBLIC    CODE     ---       _Get_T_Slope
      0100335DH   PUBLIC    CODE     ---       _Get_J_Slope
      01001312H   PUBLIC    CODE     ---       _Get_K_Slope
      000000D8H.2 SFRSYM    DATA     BIT       CCF2
      00000098H.3 SFRSYM    DATA     BIT       TB80
      000000F6H   SFRSYM    DATA     BYTE      PCAPWM4
      00000091H   SFRSYM    DATA     BYTE      P1M0
      00000094H   SFRSYM    DATA     BYTE      P0M1
      000000D8H.3 SFRSYM    DATA     BIT       CCF3
      00000098H.3 SFRSYM    DATA     BIT       TB81
      000000F7H   SFRSYM    DATA     BYTE      PCAPWM5
      00000095H   SFRSYM    DATA     BYTE      P2M0
      00000092H   SFRSYM    DATA     BYTE      P1M1
      00000080H   SFRSYM    DATA     BYTE      P0
      000000D8H.4 SFRSYM    DATA     BIT       CCF4
      00000098H.7 SFRSYM    DATA     BIT       SM00
      000000B1H   SFRSYM    DATA     BYTE      P3M0
LX51 LINKER/LOCATER V4.47a                                                            12/31/2014  11:09:05  PAGE 91


      00000096H   SFRSYM    DATA     BYTE      P2M1
      00000090H   SFRSYM    DATA     BYTE      P1
      000000D8H.5 SFRSYM    DATA     BIT       CCF5
      00000098H.7 SFRSYM    DATA     BIT       SM01
      00000098H.6 SFRSYM    DATA     BIT       SM10
      000000B3H   SFRSYM    DATA     BYTE      P4M0
      000000B2H   SFRSYM    DATA     BYTE      P3M1
      000000A0H   SFRSYM    DATA     BYTE      P2
      00000098H.6 SFRSYM    DATA     BIT       SM11
      00000098H.5 SFRSYM    DATA     BIT       SM20
      000000E7H   SFRSYM    DATA     BYTE      ISPCR
      000000B5H   SFRSYM    DATA     BYTE      P5M0
      000000B4H   SFRSYM    DATA     BYTE      P4M1
      000000B0H   SFRSYM    DATA     BYTE      P3
      000000C0H   SFRSYM    DATA     BYTE      XICON
      000000B0H.4 SFRSYM    DATA     BIT       T0
      00000098H.5 SFRSYM    DATA     BIT       SM21
      000000D0H.6 SFRSYM    DATA     BIT       AC
      00000097H   SFRSYM    DATA     BYTE      EVRCR
      000000B6H   SFRSYM    DATA     BYTE      P5M1
      000000E8H   SFRSYM    DATA     BYTE      P4
      000000B0H.5 SFRSYM    DATA     BIT       T1
      00000085H   SFRSYM    DATA     BYTE      SPCON
      000000F8H   SFRSYM    DATA     BYTE      P5
      000000ADH   SFRSYM    DATA     BYTE      EIE1
      00000090H   SFRSYM    DATA     BIT       T2
      000000A8H.7 SFRSYM    DATA     BIT       EA
      000000ACH   SFRSYM    DATA     BYTE      SFRPI
      000000E1H   SFRSYM    DATA     BYTE      WDTCR
      000000C8H   SFRSYM    DATA     BYTE      P6
      000000A0H   SFRSYM    DATA     BIT       KBI0
      00000090H.5 SFRSYM    DATA     BIT       SPI_MOSI
      00000090H.6 SFRSYM    DATA     BIT       SPI_MISO
      000000A0H.1 SFRSYM    DATA     BIT       KBI1
      00000085H   SFRSYM    DATA     BYTE      SPCTL
      000000A0H.2 SFRSYM    DATA     BIT       KBI2
      00000090H   SFRSYM    DATA     BIT       AIN0
      000000D8H.7 SFRSYM    DATA     BIT       CF
      000000AEH   SFRSYM    DATA     BYTE      AUXIP
      000000A0H.3 SFRSYM    DATA     BIT       KBI3
      00000090H.1 SFRSYM    DATA     BIT       AIN1
      000000A0H.4 SFRSYM    DATA     BIT       KBI4
      00000090H.2 SFRSYM    DATA     BIT       AIN2
      00000098H.7 SFRSYM    DATA     BIT       FE
      000000F9H   SFRSYM    DATA     BYTE      CH
      000000A0H.5 SFRSYM    DATA     BIT       KBI5
      00000090H.3 SFRSYM    DATA     BIT       AIN3
      000000A0H.6 SFRSYM    DATA     BIT       KBI6
      00000090H.4 SFRSYM    DATA     BIT       AIN4
      000000A0H.7 SFRSYM    DATA     BIT       KBI7
      00000090H.5 SFRSYM    DATA     BIT       AIN5
      000000A8H   SFRSYM    DATA     BYTE      IE
      00000090H.6 SFRSYM    DATA     BIT       AIN6
      000000E9H   SFRSYM    DATA     BYTE      CL
      00000090H.7 SFRSYM    DATA     BIT       AIN7
      00000090H.2 SFRSYM    DATA     BIT       CEX0
      000000FAH   SFRSYM    DATA     BYTE      CCAP0H
      000000C6H   SFRSYM    DATA     BYTE      ADCH
      00000090H.3 SFRSYM    DATA     BIT       CEX1
      000000FBH   SFRSYM    DATA     BYTE      CCAP1H
      000000B7H   SFRSYM    DATA     BYTE      IP0H
      00000090H.4 SFRSYM    DATA     BIT       CEX2
      000000FCH   SFRSYM    DATA     BYTE      CCAP2H
      00000090H.5 SFRSYM    DATA     BIT       CEX3
      000000FDH   SFRSYM    DATA     BYTE      CCAP3H
LX51 LINKER/LOCATER V4.47a                                                            12/31/2014  11:09:05  PAGE 92


      00000090H.6 SFRSYM    DATA     BIT       CEX4
      000000D8H.6 SFRSYM    DATA     BIT       CR
      000000FEH   SFRSYM    DATA     BYTE      CCAP4H
      000000EAH   SFRSYM    DATA     BYTE      CCAP0L
      000000BEH   SFRSYM    DATA     BYTE      ADCL
      000000B0H.7 SFRSYM    DATA     BIT       RD
      00000090H.7 SFRSYM    DATA     BIT       CEX5
      000000C8H.6 SFRSYM    DATA     BIT       EXF2
      00000098H.4 SFRSYM    DATA     BIT       REN0
      000000FFH   SFRSYM    DATA     BYTE      CCAP5H
      000000EBH   SFRSYM    DATA     BYTE      CCAP1L
      000000DAH   SFRSYM    DATA     BYTE      CCAPM0
      000000B8H   SFRSYM    DATA     BYTE      IP0L
      00000098H.4 SFRSYM    DATA     BIT       REN1
      000000ECH   SFRSYM    DATA     BYTE      CCAP2L
      000000DBH   SFRSYM    DATA     BYTE      CCAPM1
      000000C0H.3 SFRSYM    DATA     BIT       IT2H
      000000A8H.4 SFRSYM    DATA     BIT       ES
      00000097H   SFRSYM    DATA     BYTE      TSTWD
      000000EDH   SFRSYM    DATA     BYTE      CCAP3L
      000000DCH   SFRSYM    DATA     BYTE      CCAPM2
      000000C0H.7 SFRSYM    DATA     BIT       IT3H
      000000EEH   SFRSYM    DATA     BYTE      CCAP4L
      000000DDH   SFRSYM    DATA     BYTE      CCAPM3
      000000B8H   SFRSYM    DATA     BYTE      IP
      000000EFH   SFRSYM    DATA     BYTE      CCAP5L
      000000DEH   SFRSYM    DATA     BYTE      CCAPM4
      00000098H   SFRSYM    DATA     BIT       RI
      000000DFH   SFRSYM    DATA     BYTE      CCAPM5
      000000B0H.2 SFRSYM    DATA     BIT       INT0
      000000D0H.7 SFRSYM    DATA     BIT       CY
      000000B0H.3 SFRSYM    DATA     BIT       INT1
      00000098H.1 SFRSYM    DATA     BIT       TI
      000000E8H.3 SFRSYM    DATA     BIT       INT2
      000000E8H.2 SFRSYM    DATA     BIT       INT3
      000000C6H   SFRSYM    DATA     BYTE      ADCV
      0000008FH   SFRSYM    DATA     BYTE      STRETCH
      000000B8H.1 SFRSYM    DATA     BIT       PT0L
      000000B8H.3 SFRSYM    DATA     BIT       PT1L
      000000CBH   SFRSYM    DATA     BYTE      RCAP2H
      000000B8H.4 SFRSYM    DATA     BIT       PS
      000000B8H.5 SFRSYM    DATA     BIT       PT2L
      00000081H   SFRSYM    DATA     BYTE      SP
      00000090H.1 SFRSYM    DATA     BIT       T2EX
      000000D9H   SFRSYM    DATA     BYTE      CMOD
      000000D8H   SFRSYM    DATA     BYTE      CCON
      0000009AH   SFRSYM    DATA     BYTE      SCFG
      000000B8H   SFRSYM    DATA     BIT       PX0L
      000000D0H.2 SFRSYM    DATA     BIT       OV
      000000B8H.2 SFRSYM    DATA     BIT       PX1L
      000000CAH   SFRSYM    DATA     BYTE      RCAP2L
      000000B8H.6 SFRSYM    DATA     BIT       PX2L
      00000090H.7 SFRSYM    DATA     BIT       SPI_CLK
      000000B8H.7 SFRSYM    DATA     BIT       PX3L
      000000E6H   SFRSYM    DATA     BYTE      SCMD
      000000B0H.6 SFRSYM    DATA     BIT       WR
      000000C8H.1 SFRSYM    DATA     BIT       C_T2
      00000084H   SFRSYM    DATA     BYTE      SPISTAT
      000000C8H.5 SFRSYM    DATA     BIT       RCLK
      000000C8H.4 SFRSYM    DATA     BIT       TCLK
      00000080H   SFRSYM    DATA     BIT       P00
      000000E3H   SFRSYM    DATA     BYTE      IFADRH
      00000090H   SFRSYM    DATA     BIT       P10
      00000080H.1 SFRSYM    DATA     BIT       P01
      000000E5H   SFRSYM    DATA     BYTE      IFMT
LX51 LINKER/LOCATER V4.47a                                                            12/31/2014  11:09:05  PAGE 93


      00000087H   SFRSYM    DATA     BYTE      PCON
      00000099H   SFRSYM    DATA     BYTE      SBUF
      000000A0H   SFRSYM    DATA     BIT       P20
      00000090H.1 SFRSYM    DATA     BIT       P11
      00000080H.2 SFRSYM    DATA     BIT       P02
      000000B0H   SFRSYM    DATA     BIT       P30
      000000A0H.1 SFRSYM    DATA     BIT       P21
      00000090H.2 SFRSYM    DATA     BIT       P12
      00000080H.3 SFRSYM    DATA     BIT       P03
      000000E8H   SFRSYM    DATA     BIT       P40
      000000B0H.1 SFRSYM    DATA     BIT       P31
      000000A0H.2 SFRSYM    DATA     BIT       P22
      00000090H.3 SFRSYM    DATA     BIT       P13
      00000080H.4 SFRSYM    DATA     BIT       P04
      000000E4H   SFRSYM    DATA     BYTE      IFADRL
      00000098H   SFRSYM    DATA     BYTE      SCON
      000000F8H   SFRSYM    DATA     BIT       P50
      000000E8H.1 SFRSYM    DATA     BIT       P41
      000000B0H.2 SFRSYM    DATA     BIT       P32
      000000A0H.3 SFRSYM    DATA     BIT       P23
      00000090H.4 SFRSYM    DATA     BIT       P14
      00000080H.5 SFRSYM    DATA     BIT       P05
      00000089H   SFRSYM    DATA     BYTE      TMOD
      00000088H   SFRSYM    DATA     BYTE      TCON
      000000C8H   SFRSYM    DATA     BIT       P60
      000000F8H.1 SFRSYM    DATA     BIT       P51
      000000E8H.2 SFRSYM    DATA     BIT       P42
      000000B0H.3 SFRSYM    DATA     BIT       P33
      000000A0H.4 SFRSYM    DATA     BIT       P24
      00000090H.5 SFRSYM    DATA     BIT       P15
      00000080H.6 SFRSYM    DATA     BIT       P06
      000000C8H.1 SFRSYM    DATA     BIT       P61
      000000F8H.2 SFRSYM    DATA     BIT       P52
      000000E8H.3 SFRSYM    DATA     BIT       P43
      000000B0H.4 SFRSYM    DATA     BIT       P34
      000000A0H.5 SFRSYM    DATA     BIT       P25
      00000090H.6 SFRSYM    DATA     BIT       P16
      00000080H.7 SFRSYM    DATA     BIT       P07
      000000F8H.3 SFRSYM    DATA     BIT       P53
      000000E8H.4 SFRSYM    DATA     BIT       P44
      000000B0H.5 SFRSYM    DATA     BIT       P35
      000000A0H.6 SFRSYM    DATA     BIT       P26
      00000090H.7 SFRSYM    DATA     BIT       P17
      000000E8H.5 SFRSYM    DATA     BIT       P45
      000000B0H.6 SFRSYM    DATA     BIT       P36
      000000A0H.7 SFRSYM    DATA     BIT       P27
      000000E8H.6 SFRSYM    DATA     BIT       P46
      000000B0H.7 SFRSYM    DATA     BIT       P37
      000000E8H.7 SFRSYM    DATA     BIT       P47
      000000D7H   SFRSYM    DATA     BYTE      KBMASK
      00000088H.1 SFRSYM    DATA     BIT       IE0
      00000088H.3 SFRSYM    DATA     BIT       IE1
      000000C0H.1 SFRSYM    DATA     BIT       IE2
      000000C0H.5 SFRSYM    DATA     BIT       IE3
      000000A8H.6 SFRSYM    DATA     BIT       GF4
      0000008EH   SFRSYM    DATA     BYTE      AUXR
      000000F0H   SFRSYM    DATA     BYTE      B
      000000D5H   SFRSYM    DATA     BYTE      KBPATN
      000000C8H   SFRSYM    DATA     BIT       CP_RL2
      00000086H   SFRSYM    DATA     BYTE      SPIDAT
      000000E0H   SFRSYM    DATA     BYTE      ACC
      000000A8H.4 SFRSYM    DATA     BIT       ES0
      000000A8H.1 SFRSYM    DATA     BIT       ET0
      00000088H.5 SFRSYM    DATA     BIT       TF0
      000000A8H.3 SFRSYM    DATA     BIT       ET1
LX51 LINKER/LOCATER V4.47a                                                            12/31/2014  11:09:05  PAGE 94


      00000088H.7 SFRSYM    DATA     BIT       TF1
      00000098H   SFRSYM    DATA     BIT       RI0
      000000A8H.5 SFRSYM    DATA     BIT       ET2
      000000C8H.7 SFRSYM    DATA     BIT       TF2
      00000098H   SFRSYM    DATA     BIT       RI1
      00000098H.2 SFRSYM    DATA     BIT       RB8
      0000008CH   SFRSYM    DATA     BYTE      TH0
      00000088H   SFRSYM    DATA     BIT       IT0
      00000098H.1 SFRSYM    DATA     BIT       TI0
      000000A8H   SFRSYM    DATA     BIT       EX0
      0000008DH   SFRSYM    DATA     BYTE      TH1
      00000088H.2 SFRSYM    DATA     BIT       IT1
      00000098H.1 SFRSYM    DATA     BIT       TI1
      00000098H.3 SFRSYM    DATA     BIT       TB8
      000000A8H.2 SFRSYM    DATA     BIT       EX1
      00000085H   SFRSYM    DATA     BYTE      SPICON
      000000CDH   SFRSYM    DATA     BYTE      TH2
      000000C0H   SFRSYM    DATA     BIT       IT2
      000000C0H.2 SFRSYM    DATA     BIT       EX2
      000000D0H   SFRSYM    DATA     BIT       P
      000000C0H.4 SFRSYM    DATA     BIT       IT3
      000000C0H.6 SFRSYM    DATA     BIT       EX3
      00000098H.7 SFRSYM    DATA     BIT       SM0
      0000008AH   SFRSYM    DATA     BYTE      TL0
      000000C8H   SFRSYM    DATA     BIT       XOUT
      00000090H.1 SFRSYM    DATA     BIT       ECI
      00000098H.6 SFRSYM    DATA     BIT       SM1
      00000085H   SFRSYM    DATA     BYTE      SPICTL
      0000008BH   SFRSYM    DATA     BYTE      TL1
      000000AFH   SFRSYM    DATA     BYTE      AUXIPH
      000000E8H.6 SFRSYM    DATA     BIT       ALE
      00000098H.5 SFRSYM    DATA     BIT       SM2
      000000CCH   SFRSYM    DATA     BYTE      TL2
      000000E2H   SFRSYM    DATA     BYTE      IFD
      000000B8H.1 SFRSYM    DATA     BIT       PT0
      000000B8H.3 SFRSYM    DATA     BIT       PT1
      000000D0H.3 SFRSYM    DATA     BIT       RS0
      00000088H.4 SFRSYM    DATA     BIT       TR0
      000000B8H.5 SFRSYM    DATA     BIT       PT2
      000000D0H.4 SFRSYM    DATA     BIT       RS1
      00000088H.6 SFRSYM    DATA     BIT       TR1
      000000C8H.2 SFRSYM    DATA     BIT       TR2
      000000B8H   SFRSYM    DATA     BIT       PX0
      000000AFH   SFRSYM    DATA     BYTE      EIP1H
      000000B8H.2 SFRSYM    DATA     BIT       PX1
      000000C0H.3 SFRSYM    DATA     BIT       PX2
      000000C0H.7 SFRSYM    DATA     BIT       PX3
      000000AEH   SFRSYM    DATA     BYTE      EIP1L
      00000083H   SFRSYM    DATA     BYTE      DPH
      000000C8H   SFRSYM    DATA     BIT       CKO
      00000082H   SFRSYM    DATA     BYTE      DPL
      00000087H   SFRSYM    DATA     BYTE      PCON0
      00000084H   SFRSYM    DATA     BYTE      SPSTAT
      00000099H   SFRSYM    DATA     BYTE      SBUF0
      000000B7H   SFRSYM    DATA     BYTE      IPH
      000000B0H.4 SFRSYM    DATA     BIT       T0CKO
      00000097H   SFRSYM    DATA     BYTE      PCON1
      00000099H   SFRSYM    DATA     BYTE      SBUF1
      000000B0H.5 SFRSYM    DATA     BIT       T1CKO
      000000C8H.3 SFRSYM    DATA     BIT       EXEN2
      000000C7H   SFRSYM    DATA     BYTE      PCON2
      0000009AH   SFRSYM    DATA     BYTE      S2BUF
      00000098H   SFRSYM    DATA     BYTE      SCON0
      00000098H.4 SFRSYM    DATA     BIT       REN
      00000098H   SFRSYM    DATA     BYTE      SCON1
LX51 LINKER/LOCATER V4.47a                                                            12/31/2014  11:09:05  PAGE 95


      000000C5H   SFRSYM    DATA     BYTE      ADCON
      000000C9H   SFRSYM    DATA     BYTE      T2MOD
      000000C8H   SFRSYM    DATA     BYTE      T2CON
      000000C5H   SFRSYM    DATA     BYTE      ADCTL
      000000BEH   SFRSYM    DATA     BYTE      ADCVL
      000000B9H   SFRSYM    DATA     BYTE      SADEN
      0000009AH   SFRSYM    DATA     BYTE      S1BRT
      000000B0H   SFRSYM    DATA     BIT       RXD
      000000D6H   SFRSYM    DATA     BYTE      KBCON
      000000C8H.1 SFRSYM    DATA     BIT       XIN
      000000B8H.4 SFRSYM    DATA     BIT       PSL
      000000A9H   SFRSYM    DATA     BYTE      SADDR
      000000B0H.1 SFRSYM    DATA     BIT       TXD
      0000008EH   SFRSYM    DATA     BYTE      AUXR0
      000000A2H   SFRSYM    DATA     BYTE      AUXR1
      00000090H.4 SFRSYM    DATA     BIT       SPI_SS
      000000A6H   SFRSYM    DATA     BYTE      AUXR2
      00000090H.2 SFRSYM    DATA     BIT       S2RXD
      000000D0H.5 SFRSYM    DATA     BIT       F0
      00000090H.3 SFRSYM    DATA     BIT       S2TXD
      000000D0H.1 SFRSYM    DATA     BIT       F1
      000000F2H   SFRSYM    DATA     BYTE      PCAPWM0
      000000D0H   SFRSYM    DATA     BYTE      PSW
      000000F3H   SFRSYM    DATA     BYTE      PCAPWM1
      000000D8H   SFRSYM    DATA     BIT       CCF0
      00000098H.2 SFRSYM    DATA     BIT       RB80
      000000F4H   SFRSYM    DATA     BYTE      PCAPWM2
      000000D8H.1 SFRSYM    DATA     BIT       CCF1
      00000098H.2 SFRSYM    DATA     BIT       RB81
      000000F5H   SFRSYM    DATA     BYTE      PCAPWM3
      00000086H   SFRSYM    DATA     BYTE      SPDAT
      00000093H   SFRSYM    DATA     BYTE      P0M0
      000000ADH   SFRSYM    DATA     BYTE      AUXIE

      01001312H   BLOCK     CODE     ---       LVL=0
      00000062H   SYMBOL    DATA     WORD      Code_Value
      01001316H   BLOCK     CODE     NEAR LAB  LVL=1
      00000064H   SYMBOL    DATA     WORD      out_Value
      ---         BLOCKEND  ---      ---       LVL=1
      01001312H   LINE      CODE     ---       #50
      01001316H   LINE      CODE     ---       #51
      01001316H   LINE      CODE     ---       #54
      01001319H   LINE      CODE     ---       #55
      01001322H   LINE      CODE     ---       #56
      01001322H   LINE      CODE     ---       #57
      01001331H   LINE      CODE     ---       #58
      01001331H   LINE      CODE     ---       #59
      01001359H   LINE      CODE     ---       #60
      01001375H   LINE      CODE     ---       #61
      01001378H   LINE      CODE     ---       #62
      0100137BH   LINE      CODE     ---       #64
      0100137BH   LINE      CODE     ---       #65
      0100139BH   LINE      CODE     ---       #66
      010013B5H   LINE      CODE     ---       #67
      010013B5H   LINE      CODE     ---       #68
      010013B8H   LINE      CODE     ---       #70
      010013B8H   LINE      CODE     ---       #71
      010013DCH   LINE      CODE     ---       #73
      010013E7H   LINE      CODE     ---       #74
      010013E7H   LINE      CODE     ---       #75
      01001406H   LINE      CODE     ---       #76
      01001406H   LINE      CODE     ---       #77
      01001411H   LINE      CODE     ---       #78
      01001411H   LINE      CODE     ---       #79
      01001430H   LINE      CODE     ---       #80
LX51 LINKER/LOCATER V4.47a                                                            12/31/2014  11:09:05  PAGE 96


      01001430H   LINE      CODE     ---       #81
      0100143BH   LINE      CODE     ---       #82
      0100143BH   LINE      CODE     ---       #83
      01001459H   LINE      CODE     ---       #84
      01001459H   LINE      CODE     ---       #85
      01001464H   LINE      CODE     ---       #86
      01001464H   LINE      CODE     ---       #87
      01001483H   LINE      CODE     ---       #88
      01001483H   LINE      CODE     ---       #89
      0100148EH   LINE      CODE     ---       #90
      0100148EH   LINE      CODE     ---       #91
      010014ACH   LINE      CODE     ---       #92
      010014ACH   LINE      CODE     ---       #93
      010014B7H   LINE      CODE     ---       #94
      010014B7H   LINE      CODE     ---       #95
      010014D5H   LINE      CODE     ---       #96
      010014D5H   LINE      CODE     ---       #97
      010014E0H   LINE      CODE     ---       #98
      010014E0H   LINE      CODE     ---       #99
      010014FFH   LINE      CODE     ---       #100
      010014FFH   LINE      CODE     ---       #101
      0100150AH   LINE      CODE     ---       #102
      0100150AH   LINE      CODE     ---       #103
      01001529H   LINE      CODE     ---       #104
      01001529H   LINE      CODE     ---       #105
      01001534H   LINE      CODE     ---       #106
      01001534H   LINE      CODE     ---       #107
      01001553H   LINE      CODE     ---       #108
      01001553H   LINE      CODE     ---       #109
      0100155EH   LINE      CODE     ---       #110
      0100155EH   LINE      CODE     ---       #111
      0100157DH   LINE      CODE     ---       #112
      0100157DH   LINE      CODE     ---       #114
      01001588H   LINE      CODE     ---       #115
      01001588H   LINE      CODE     ---       #116
      010015A7H   LINE      CODE     ---       #117
      010015A7H   LINE      CODE     ---       #118
      010015B2H   LINE      CODE     ---       #119
      010015B2H   LINE      CODE     ---       #120
      010015D0H   LINE      CODE     ---       #121
      010015D0H   LINE      CODE     ---       #122
      010015DBH   LINE      CODE     ---       #123
      010015DBH   LINE      CODE     ---       #124
      010015FAH   LINE      CODE     ---       #125
      010015FAH   LINE      CODE     ---       #126
      01001605H   LINE      CODE     ---       #127
      01001605H   LINE      CODE     ---       #128
      01001624H   LINE      CODE     ---       #129
      01001624H   LINE      CODE     ---       #130
      0100162FH   LINE      CODE     ---       #131
      0100162FH   LINE      CODE     ---       #132
      0100164DH   LINE      CODE     ---       #133
      0100164DH   LINE      CODE     ---       #134
      01001658H   LINE      CODE     ---       #135
      01001658H   LINE      CODE     ---       #136
      01001677H   LINE      CODE     ---       #137
      01001677H   LINE      CODE     ---       #138
      01001682H   LINE      CODE     ---       #139
      01001682H   LINE      CODE     ---       #140
      010016A0H   LINE      CODE     ---       #141
      010016A0H   LINE      CODE     ---       #142
      010016ABH   LINE      CODE     ---       #143
      010016ABH   LINE      CODE     ---       #144
      010016C9H   LINE      CODE     ---       #145
      010016C9H   LINE      CODE     ---       #146
LX51 LINKER/LOCATER V4.47a                                                            12/31/2014  11:09:05  PAGE 97


      010016D4H   LINE      CODE     ---       #147
      010016D4H   LINE      CODE     ---       #148
      010016F3H   LINE      CODE     ---       #149
      010016F3H   LINE      CODE     ---       #150
      010016FEH   LINE      CODE     ---       #151
      010016FEH   LINE      CODE     ---       #152
      0100171CH   LINE      CODE     ---       #153
      0100171CH   LINE      CODE     ---       #154
      0100172FH   LINE      CODE     ---       #155
      0100172FH   LINE      CODE     ---       #156
      0100175AH   LINE      CODE     ---       #157
      0100175AH   LINE      CODE     ---       #158
      0100176DH   LINE      CODE     ---       #159
      0100176DH   LINE      CODE     ---       #160
      01001798H   LINE      CODE     ---       #161
      01001798H   LINE      CODE     ---       #162
      010017ABH   LINE      CODE     ---       #163
      010017ABH   LINE      CODE     ---       #164
      010017D6H   LINE      CODE     ---       #165
      010017D6H   LINE      CODE     ---       #166
      010017E9H   LINE      CODE     ---       #167
      010017E9H   LINE      CODE     ---       #168
      01001814H   LINE      CODE     ---       #169
      01001814H   LINE      CODE     ---       #170
      01001827H   LINE      CODE     ---       #171
      01001827H   LINE      CODE     ---       #172
      01001852H   LINE      CODE     ---       #173
      01001852H   LINE      CODE     ---       #174
      01001865H   LINE      CODE     ---       #175
      01001865H   LINE      CODE     ---       #176
      01001890H   LINE      CODE     ---       #177
      01001890H   LINE      CODE     ---       #178
      010018A3H   LINE      CODE     ---       #179
      010018A3H   LINE      CODE     ---       #180
      010018CEH   LINE      CODE     ---       #181
      010018CEH   LINE      CODE     ---       #182
      010018E1H   LINE      CODE     ---       #183
      010018E1H   LINE      CODE     ---       #184
      0100190BH   LINE      CODE     ---       #185
      0100190BH   LINE      CODE     ---       #186
      0100191EH   LINE      CODE     ---       #187
      0100191EH   LINE      CODE     ---       #188
      01001949H   LINE      CODE     ---       #189
      01001949H   LINE      CODE     ---       #190
      0100195CH   LINE      CODE     ---       #191
      0100195CH   LINE      CODE     ---       #192
      01001987H   LINE      CODE     ---       #193
      01001987H   LINE      CODE     ---       #194
      0100199AH   LINE      CODE     ---       #195
      0100199AH   LINE      CODE     ---       #196
      010019C5H   LINE      CODE     ---       #197
      010019C5H   LINE      CODE     ---       #198
      010019D8H   LINE      CODE     ---       #199
      010019D8H   LINE      CODE     ---       #200
      01001A03H   LINE      CODE     ---       #201
      01001A03H   LINE      CODE     ---       #202
      01001A16H   LINE      CODE     ---       #203
      01001A16H   LINE      CODE     ---       #204
      01001A41H   LINE      CODE     ---       #205
      01001A41H   LINE      CODE     ---       #206
      01001A54H   LINE      CODE     ---       #207
      01001A54H   LINE      CODE     ---       #208
      01001A7FH   LINE      CODE     ---       #209
      01001A7FH   LINE      CODE     ---       #210
      01001A92H   LINE      CODE     ---       #211
LX51 LINKER/LOCATER V4.47a                                                            12/31/2014  11:09:05  PAGE 98


      01001A92H   LINE      CODE     ---       #212
      01001ABDH   LINE      CODE     ---       #213
      01001ABDH   LINE      CODE     ---       #214
      01001AD0H   LINE      CODE     ---       #215
      01001AD0H   LINE      CODE     ---       #216
      01001AD6H   LINE      CODE     ---       #217
      01001AD6H   LINE      CODE     ---       #218
      01001AD6H   LINE      CODE     ---       #220
      01001ADAH   LINE      CODE     ---       #221
      ---         BLOCKEND  ---      ---       LVL=0

      0100335DH   BLOCK     CODE     ---       LVL=0
      00000062H   SYMBOL    DATA     WORD      Code_Value
      01003361H   BLOCK     CODE     NEAR LAB  LVL=1
      00000064H   SYMBOL    DATA     WORD      out_Value
      ---         BLOCKEND  ---      ---       LVL=1
      0100335DH   LINE      CODE     ---       #225
      01003361H   LINE      CODE     ---       #226
      01003361H   LINE      CODE     ---       #229
      01003364H   LINE      CODE     ---       #230
      0100336AH   LINE      CODE     ---       #231
      0100336AH   LINE      CODE     ---       #232
      01003379H   LINE      CODE     ---       #233
      01003379H   LINE      CODE     ---       #234
      010033A1H   LINE      CODE     ---       #235
      010033A4H   LINE      CODE     ---       #236
      010033A7H   LINE      CODE     ---       #237
      010033AAH   LINE      CODE     ---       #239
      010033AAH   LINE      CODE     ---       #240
      010033CAH   LINE      CODE     ---       #241
      010033CDH   LINE      CODE     ---       #243
      010033CDH   LINE      CODE     ---       #244
      010033D0H   LINE      CODE     ---       #246
      010033D0H   LINE      CODE     ---       #247
      010033F4H   LINE      CODE     ---       #249
      010033FFH   LINE      CODE     ---       #250
      010033FFH   LINE      CODE     ---       #251
      0100341EH   LINE      CODE     ---       #252
      0100341EH   LINE      CODE     ---       #253
      01003429H   LINE      CODE     ---       #254
      01003429H   LINE      CODE     ---       #255
      01003448H   LINE      CODE     ---       #256
      01003448H   LINE      CODE     ---       #257
      01003453H   LINE      CODE     ---       #258
      01003453H   LINE      CODE     ---       #259
      01003472H   LINE      CODE     ---       #260
      01003472H   LINE      CODE     ---       #261
      0100347DH   LINE      CODE     ---       #262
      0100347DH   LINE      CODE     ---       #263
      0100349BH   LINE      CODE     ---       #264
      0100349BH   LINE      CODE     ---       #265
      010034A6H   LINE      CODE     ---       #266
      010034A6H   LINE      CODE     ---       #267
      010034C5H   LINE      CODE     ---       #268
      010034C5H   LINE      CODE     ---       #269
      010034D0H   LINE      CODE     ---       #270
      010034D0H   LINE      CODE     ---       #271
      010034EEH   LINE      CODE     ---       #272
      010034EEH   LINE      CODE     ---       #273
      010034F9H   LINE      CODE     ---       #274
      010034F9H   LINE      CODE     ---       #275
      01003518H   LINE      CODE     ---       #276
      01003518H   LINE      CODE     ---       #277
      01003523H   LINE      CODE     ---       #278
      01003523H   LINE      CODE     ---       #279
LX51 LINKER/LOCATER V4.47a                                                            12/31/2014  11:09:05  PAGE 99


      01003541H   LINE      CODE     ---       #280
      01003541H   LINE      CODE     ---       #281
      0100354CH   LINE      CODE     ---       #282
      0100354CH   LINE      CODE     ---       #283
      0100356BH   LINE      CODE     ---       #284
      0100356BH   LINE      CODE     ---       #285
      01003576H   LINE      CODE     ---       #286
      01003576H   LINE      CODE     ---       #287
      01003594H   LINE      CODE     ---       #288
      01003594H   LINE      CODE     ---       #289
      0100359FH   LINE      CODE     ---       #290
      0100359FH   LINE      CODE     ---       #291
      010035BEH   LINE      CODE     ---       #292
      010035BEH   LINE      CODE     ---       #293
      010035C9H   LINE      CODE     ---       #294
      010035C9H   LINE      CODE     ---       #295
      010035E7H   LINE      CODE     ---       #296
      010035E7H   LINE      CODE     ---       #297
      010035F2H   LINE      CODE     ---       #298
      010035F2H   LINE      CODE     ---       #299
      01003611H   LINE      CODE     ---       #300
      01003611H   LINE      CODE     ---       #301
      0100361CH   LINE      CODE     ---       #302
      0100361CH   LINE      CODE     ---       #303
      0100363AH   LINE      CODE     ---       #304
      0100363AH   LINE      CODE     ---       #305
      01003645H   LINE      CODE     ---       #306
      01003645H   LINE      CODE     ---       #307
      01003664H   LINE      CODE     ---       #308
      01003664H   LINE      CODE     ---       #309
      0100366FH   LINE      CODE     ---       #310
      0100366FH   LINE      CODE     ---       #311
      0100368EH   LINE      CODE     ---       #312
      0100368EH   LINE      CODE     ---       #313
      01003699H   LINE      CODE     ---       #314
      01003699H   LINE      CODE     ---       #315
      010036B8H   LINE      CODE     ---       #316
      010036B8H   LINE      CODE     ---       #317
      010036CBH   LINE      CODE     ---       #318
      010036CBH   LINE      CODE     ---       #319
      010036F7H   LINE      CODE     ---       #320
      010036F7H   LINE      CODE     ---       #321
      0100370AH   LINE      CODE     ---       #322
      0100370AH   LINE      CODE     ---       #323
      01003736H   LINE      CODE     ---       #324
      01003736H   LINE      CODE     ---       #325
      01003749H   LINE      CODE     ---       #326
      01003749H   LINE      CODE     ---       #327
      01003775H   LINE      CODE     ---       #328
      01003775H   LINE      CODE     ---       #329
      01003788H   LINE      CODE     ---       #330
      01003788H   LINE      CODE     ---       #331
      010037B4H   LINE      CODE     ---       #332
      010037B4H   LINE      CODE     ---       #333
      010037C7H   LINE      CODE     ---       #334
      010037C7H   LINE      CODE     ---       #335
      010037F3H   LINE      CODE     ---       #336
      010037F3H   LINE      CODE     ---       #337
      010037F3H   LINE      CODE     ---       #339
      010037F7H   LINE      CODE     ---       #341
      ---         BLOCKEND  ---      ---       LVL=0

      01002950H   BLOCK     CODE     ---       LVL=0
      00000062H   SYMBOL    DATA     WORD      Code_Value
      01002954H   BLOCK     CODE     NEAR LAB  LVL=1
LX51 LINKER/LOCATER V4.47a                                                            12/31/2014  11:09:05  PAGE 100


      00000064H   SYMBOL    DATA     WORD      outlo_Value
      00000066H   SYMBOL    DATA     WORD      out_Value
      ---         BLOCKEND  ---      ---       LVL=1
      01002950H   LINE      CODE     ---       #345
      01002954H   LINE      CODE     ---       #346
      01002954H   LINE      CODE     ---       #350
      0100295AH   LINE      CODE     ---       #351
      0100295DH   LINE      CODE     ---       #353
      01002966H   LINE      CODE     ---       #354
      01002966H   LINE      CODE     ---       #355
      01002975H   LINE      CODE     ---       #356
      01002975H   LINE      CODE     ---       #357
      0100299DH   LINE      CODE     ---       #358
      010029A0H   LINE      CODE     ---       #359
      010029A3H   LINE      CODE     ---       #360
      010029A5H   LINE      CODE     ---       #362
      010029A5H   LINE      CODE     ---       #363
      010029C5H   LINE      CODE     ---       #364
      010029C8H   LINE      CODE     ---       #365
      010029CBH   LINE      CODE     ---       #366
      010029CBH   LINE      CODE     ---       #368
      010029DAH   LINE      CODE     ---       #369
      010029DAH   LINE      CODE     ---       #370
      010029F8H   LINE      CODE     ---       #371
      010029F8H   LINE      CODE     ---       #372
      01002A07H   LINE      CODE     ---       #373
      01002A07H   LINE      CODE     ---       #374
      01002A25H   LINE      CODE     ---       #375
      01002A25H   LINE      CODE     ---       #376
      01002A34H   LINE      CODE     ---       #377
      01002A34H   LINE      CODE     ---       #378
      01002A52H   LINE      CODE     ---       #379
      01002A52H   LINE      CODE     ---       #380
      01002A61H   LINE      CODE     ---       #381
      01002A61H   LINE      CODE     ---       #382
      01002A7FH   LINE      CODE     ---       #383
      01002A7FH   LINE      CODE     ---       #384
      01002A8EH   LINE      CODE     ---       #385
      01002A8EH   LINE      CODE     ---       #386
      01002AACH   LINE      CODE     ---       #387
      01002AACH   LINE      CODE     ---       #388
      01002ABBH   LINE      CODE     ---       #389
      01002ABBH   LINE      CODE     ---       #390
      01002AD9H   LINE      CODE     ---       #391
      01002AD9H   LINE      CODE     ---       #392
      01002AE8H   LINE      CODE     ---       #393
      01002AE8H   LINE      CODE     ---       #394
      01002B06H   LINE      CODE     ---       #395
      01002B06H   LINE      CODE     ---       #396
      01002B15H   LINE      CODE     ---       #397
      01002B15H   LINE      CODE     ---       #398
      01002B33H   LINE      CODE     ---       #399
      01002B33H   LINE      CODE     ---       #400
      01002B42H   LINE      CODE     ---       #401
      01002B42H   LINE      CODE     ---       #402
      01002B60H   LINE      CODE     ---       #403
      01002B60H   LINE      CODE     ---       #404
      01002B6FH   LINE      CODE     ---       #405
      01002B6FH   LINE      CODE     ---       #406
      01002B8DH   LINE      CODE     ---       #407
      01002B8DH   LINE      CODE     ---       #408
      01002B9CH   LINE      CODE     ---       #409
      01002B9CH   LINE      CODE     ---       #410
      01002BBAH   LINE      CODE     ---       #411
      01002BBAH   LINE      CODE     ---       #412
LX51 LINKER/LOCATER V4.47a                                                            12/31/2014  11:09:05  PAGE 101


      01002BC9H   LINE      CODE     ---       #413
      01002BC9H   LINE      CODE     ---       #414
      01002BE7H   LINE      CODE     ---       #415
      01002BE7H   LINE      CODE     ---       #416
      01002BF6H   LINE      CODE     ---       #417
      01002BF6H   LINE      CODE     ---       #418
      01002C14H   LINE      CODE     ---       #419
      01002C14H   LINE      CODE     ---       #420
      01002C23H   LINE      CODE     ---       #421
      01002C23H   LINE      CODE     ---       #422
      01002C41H   LINE      CODE     ---       #423
      01002C41H   LINE      CODE     ---       #424
      01002C50H   LINE      CODE     ---       #425
      01002C50H   LINE      CODE     ---       #426
      01002C6EH   LINE      CODE     ---       #427
      01002C6EH   LINE      CODE     ---       #428
      01002C7DH   LINE      CODE     ---       #429
      01002C7DH   LINE      CODE     ---       #430
      01002C9BH   LINE      CODE     ---       #431
      01002C9BH   LINE      CODE     ---       #432
      01002CAAH   LINE      CODE     ---       #433
      01002CAAH   LINE      CODE     ---       #434
      01002CC8H   LINE      CODE     ---       #435
      01002CC8H   LINE      CODE     ---       #436
      01002CDCH   LINE      CODE     ---       #437
      01002CDFH   LINE      CODE     ---       #439
      01002CDFH   LINE      CODE     ---       #440
      01002CE5H   LINE      CODE     ---       #442
      01002D09H   LINE      CODE     ---       #444
      01002D14H   LINE      CODE     ---       #445
      01002D14H   LINE      CODE     ---       #446
      01002D33H   LINE      CODE     ---       #447
      01002D33H   LINE      CODE     ---       #448
      01002D3EH   LINE      CODE     ---       #449
      01002D3EH   LINE      CODE     ---       #450
      01002D5DH   LINE      CODE     ---       #451
      01002D5DH   LINE      CODE     ---       #452
      01002D68H   LINE      CODE     ---       #453
      01002D68H   LINE      CODE     ---       #454
      01002D87H   LINE      CODE     ---       #455
      01002D87H   LINE      CODE     ---       #456
      01002D92H   LINE      CODE     ---       #457
      01002D92H   LINE      CODE     ---       #458
      01002DB1H   LINE      CODE     ---       #459
      01002DB1H   LINE      CODE     ---       #460
      01002DBCH   LINE      CODE     ---       #461
      01002DBCH   LINE      CODE     ---       #462
      01002DDBH   LINE      CODE     ---       #463
      01002DDBH   LINE      CODE     ---       #464
      01002DE6H   LINE      CODE     ---       #465
      01002DE6H   LINE      CODE     ---       #466
      01002E02H   LINE      CODE     ---       #467
      01002E02H   LINE      CODE     ---       #468
      01002E0DH   LINE      CODE     ---       #469
      01002E0DH   LINE      CODE     ---       #470
      01002E2CH   LINE      CODE     ---       #471
      01002E2CH   LINE      CODE     ---       #472
      01002E37H   LINE      CODE     ---       #473
      01002E37H   LINE      CODE     ---       #474
      01002E56H   LINE      CODE     ---       #475
      01002E56H   LINE      CODE     ---       #476
      01002E61H   LINE      CODE     ---       #477
      01002E61H   LINE      CODE     ---       #478
      01002E80H   LINE      CODE     ---       #479
      01002E80H   LINE      CODE     ---       #480
LX51 LINKER/LOCATER V4.47a                                                            12/31/2014  11:09:05  PAGE 102


      01002E8BH   LINE      CODE     ---       #481
      01002E8BH   LINE      CODE     ---       #482
      01002EAAH   LINE      CODE     ---       #483
      01002EAAH   LINE      CODE     ---       #484
      01002EBBH   LINE      CODE     ---       #485
      01002EBBH   LINE      CODE     ---       #486
      01002EBFH   LINE      CODE     ---       #487
      ---         BLOCKEND  ---      ---       LVL=0

      01000AC1H   BLOCK     CODE     ---       LVL=0
      00000062H   SYMBOL    DATA     WORD      Code_Value
      01000AC5H   BLOCK     CODE     NEAR LAB  LVL=1
      00000064H   SYMBOL    DATA     WORD      out_Value
      ---         BLOCKEND  ---      ---       LVL=1
      01000AC1H   LINE      CODE     ---       #491
      01000AC5H   LINE      CODE     ---       #492
      01000AC5H   LINE      CODE     ---       #495
      01000ACBH   LINE      CODE     ---       #496
      01000ACEH   LINE      CODE     ---       #497
      01000AD4H   LINE      CODE     ---       #498
      01000AD4H   LINE      CODE     ---       #499
      01000AE3H   LINE      CODE     ---       #500
      01000AE3H   LINE      CODE     ---       #501
      01000B04H   LINE      CODE     ---       #504
      01000B06H   LINE      CODE     ---       #506
      01000B06H   LINE      CODE     ---       #507
      01000B26H   LINE      CODE     ---       #510
      01000B26H   LINE      CODE     ---       #511
      01000B29H   LINE      CODE     ---       #513
      01000B29H   LINE      CODE     ---       #514
      01000B4DH   LINE      CODE     ---       #516
      01000B58H   LINE      CODE     ---       #517
      01000B58H   LINE      CODE     ---       #518
      01000B77H   LINE      CODE     ---       #519
      01000B77H   LINE      CODE     ---       #520
      01000B82H   LINE      CODE     ---       #521
      01000B82H   LINE      CODE     ---       #522
      01000BA1H   LINE      CODE     ---       #523
      01000BA1H   LINE      CODE     ---       #524
      01000BACH   LINE      CODE     ---       #525
      01000BACH   LINE      CODE     ---       #526
      01000BCBH   LINE      CODE     ---       #527
      01000BCBH   LINE      CODE     ---       #528
      01000BD6H   LINE      CODE     ---       #529
      01000BD6H   LINE      CODE     ---       #530
      01000BF5H   LINE      CODE     ---       #531
      01000BF5H   LINE      CODE     ---       #532
      01000C00H   LINE      CODE     ---       #533
      01000C00H   LINE      CODE     ---       #534
      01000C1FH   LINE      CODE     ---       #535
      01000C1FH   LINE      CODE     ---       #536
      01000C2AH   LINE      CODE     ---       #537
      01000C2AH   LINE      CODE     ---       #538
      01000C49H   LINE      CODE     ---       #539
      01000C49H   LINE      CODE     ---       #540
      01000C54H   LINE      CODE     ---       #541
      01000C54H   LINE      CODE     ---       #542
      01000C73H   LINE      CODE     ---       #543
      01000C73H   LINE      CODE     ---       #544
      01000C7EH   LINE      CODE     ---       #545
      01000C7EH   LINE      CODE     ---       #546
      01000C9DH   LINE      CODE     ---       #547
      01000C9DH   LINE      CODE     ---       #548
      01000CA8H   LINE      CODE     ---       #549
      01000CA8H   LINE      CODE     ---       #550
LX51 LINKER/LOCATER V4.47a                                                            12/31/2014  11:09:05  PAGE 103


      01000CC6H   LINE      CODE     ---       #551
      01000CC6H   LINE      CODE     ---       #552
      01000CD1H   LINE      CODE     ---       #553
      01000CD1H   LINE      CODE     ---       #554
      01000CF0H   LINE      CODE     ---       #555
      01000CF0H   LINE      CODE     ---       #556
      01000CFBH   LINE      CODE     ---       #557
      01000CFBH   LINE      CODE     ---       #558
      01000D19H   LINE      CODE     ---       #559
      01000D19H   LINE      CODE     ---       #560
      01000D24H   LINE      CODE     ---       #561
      01000D24H   LINE      CODE     ---       #562
      01000D43H   LINE      CODE     ---       #563
      01000D43H   LINE      CODE     ---       #564
      01000D4EH   LINE      CODE     ---       #565
      01000D4EH   LINE      CODE     ---       #566
      01000D6DH   LINE      CODE     ---       #567
      01000D6DH   LINE      CODE     ---       #568
      01000D78H   LINE      CODE     ---       #569
      01000D78H   LINE      CODE     ---       #570
      01000D96H   LINE      CODE     ---       #571
      01000D96H   LINE      CODE     ---       #572
      01000DA1H   LINE      CODE     ---       #573
      01000DA1H   LINE      CODE     ---       #574
      01000DC0H   LINE      CODE     ---       #575
      01000DC0H   LINE      CODE     ---       #576
      01000DCBH   LINE      CODE     ---       #577
      01000DCBH   LINE      CODE     ---       #578
      01000DE9H   LINE      CODE     ---       #579
      01000DE9H   LINE      CODE     ---       #580
      01000DF4H   LINE      CODE     ---       #581
      01000DF4H   LINE      CODE     ---       #582
      01000E13H   LINE      CODE     ---       #583
      01000E13H   LINE      CODE     ---       #584
      01000E26H   LINE      CODE     ---       #585
      01000E26H   LINE      CODE     ---       #586
      01000E51H   LINE      CODE     ---       #587
      01000E51H   LINE      CODE     ---       #588
      01000E64H   LINE      CODE     ---       #589
      01000E64H   LINE      CODE     ---       #590
      01000E90H   LINE      CODE     ---       #591
      01000E90H   LINE      CODE     ---       #592
      01000EA3H   LINE      CODE     ---       #593
      01000EA3H   LINE      CODE     ---       #594
      01000ECEH   LINE      CODE     ---       #595
      01000ECEH   LINE      CODE     ---       #596
      01000EE1H   LINE      CODE     ---       #597
      01000EE1H   LINE      CODE     ---       #598
      01000F0DH   LINE      CODE     ---       #599
      01000F0DH   LINE      CODE     ---       #600
      01000F20H   LINE      CODE     ---       #601
      01000F20H   LINE      CODE     ---       #602
      01000F4BH   LINE      CODE     ---       #603
      01000F4BH   LINE      CODE     ---       #604
      01000F5EH   LINE      CODE     ---       #605
      01000F5EH   LINE      CODE     ---       #606
      01000F8AH   LINE      CODE     ---       #607
      01000F8AH   LINE      CODE     ---       #608
      01000F9DH   LINE      CODE     ---       #609
      01000F9DH   LINE      CODE     ---       #610
      01000FC8H   LINE      CODE     ---       #611
      01000FC8H   LINE      CODE     ---       #612
      01000FDBH   LINE      CODE     ---       #613
      01000FDBH   LINE      CODE     ---       #614
      01001007H   LINE      CODE     ---       #615
LX51 LINKER/LOCATER V4.47a                                                            12/31/2014  11:09:05  PAGE 104


      01001007H   LINE      CODE     ---       #616
      0100101AH   LINE      CODE     ---       #617
      0100101AH   LINE      CODE     ---       #618
      01001045H   LINE      CODE     ---       #619
      01001045H   LINE      CODE     ---       #620
      01001058H   LINE      CODE     ---       #621
      01001058H   LINE      CODE     ---       #622
      01001084H   LINE      CODE     ---       #623
      01001084H   LINE      CODE     ---       #624
      01001097H   LINE      CODE     ---       #625
      01001097H   LINE      CODE     ---       #626
      010010C2H   LINE      CODE     ---       #627
      010010C2H   LINE      CODE     ---       #628
      010010D5H   LINE      CODE     ---       #629
      010010D5H   LINE      CODE     ---       #630
      01001101H   LINE      CODE     ---       #631
      01001101H   LINE      CODE     ---       #632
      01001114H   LINE      CODE     ---       #633
      01001114H   LINE      CODE     ---       #634
      0100113FH   LINE      CODE     ---       #635
      0100113FH   LINE      CODE     ---       #636
      01001152H   LINE      CODE     ---       #637
      01001152H   LINE      CODE     ---       #638
      0100117EH   LINE      CODE     ---       #639
      0100117EH   LINE      CODE     ---       #640
      01001191H   LINE      CODE     ---       #641
      01001191H   LINE      CODE     ---       #642
      010011BCH   LINE      CODE     ---       #643
      010011BCH   LINE      CODE     ---       #644
      010011CFH   LINE      CODE     ---       #645
      010011CFH   LINE      CODE     ---       #646
      010011FAH   LINE      CODE     ---       #647
      010011FAH   LINE      CODE     ---       #648
      0100120DH   LINE      CODE     ---       #649
      0100120DH   LINE      CODE     ---       #650
      01001239H   LINE      CODE     ---       #651
      01001239H   LINE      CODE     ---       #652
      0100124CH   LINE      CODE     ---       #653
      0100124CH   LINE      CODE     ---       #654
      01001277H   LINE      CODE     ---       #655
      01001277H   LINE      CODE     ---       #656
      0100128AH   LINE      CODE     ---       #657
      0100128AH   LINE      CODE     ---       #658
      010012B6H   LINE      CODE     ---       #659
      010012B6H   LINE      CODE     ---       #660
      010012C9H   LINE      CODE     ---       #661
      010012C9H   LINE      CODE     ---       #662
      010012F4H   LINE      CODE     ---       #663
      010012F4H   LINE      CODE     ---       #665
      01001308H   LINE      CODE     ---       #666
      01001308H   LINE      CODE     ---       #667
      0100130DH   LINE      CODE     ---       #668
      0100130DH   LINE      CODE     ---       #669
      0100130DH   LINE      CODE     ---       #670
      01001311H   LINE      CODE     ---       #672
      ---         BLOCKEND  ---      ---       LVL=0

      01003BA8H   BLOCK     CODE     ---       LVL=0
      00000062H   SYMBOL    DATA     WORD      Code_Value
      01003BACH   BLOCK     CODE     NEAR LAB  LVL=1
      00000064H   SYMBOL    DATA     WORD      out_Value
      00000002H   SYMBOL    DATA     WORD      B_code
      ---         BLOCKEND  ---      ---       LVL=1
      01003BA8H   LINE      CODE     ---       #676
      01003BACH   LINE      CODE     ---       #677
LX51 LINKER/LOCATER V4.47a                                                            12/31/2014  11:09:05  PAGE 105


      01003BACH   LINE      CODE     ---       #680
      01003BB2H   LINE      CODE     ---       #681
      01003BB2H   LINE      CODE     ---       #682
      01003BBDH   LINE      CODE     ---       #683
      01003BBDH   LINE      CODE     ---       #684
      01003BE8H   LINE      CODE     ---       #685
      01003BEBH   LINE      CODE     ---       #686
      01003BEEH   LINE      CODE     ---       #688
      01003BEEH   LINE      CODE     ---       #689
      01003BF3H   LINE      CODE     ---       #690
      01003BF3H   LINE      CODE     ---       #691
      01003BF6H   LINE      CODE     ---       #693
      01003BF6H   LINE      CODE     ---       #694
      01003C19H   LINE      CODE     ---       #695
      01003C1DH   LINE      CODE     ---       #697
      01003C26H   LINE      CODE     ---       #698
      01003C26H   LINE      CODE     ---       #699
      01003C43H   LINE      CODE     ---       #700
      01003C43H   LINE      CODE     ---       #701
      01003C4CH   LINE      CODE     ---       #702
      01003C4CH   LINE      CODE     ---       #703
      01003C69H   LINE      CODE     ---       #704
      01003C69H   LINE      CODE     ---       #705
      01003C72H   LINE      CODE     ---       #706
      01003C72H   LINE      CODE     ---       #707
      01003C8FH   LINE      CODE     ---       #708
      01003C8FH   LINE      CODE     ---       #709
      01003C98H   LINE      CODE     ---       #710
      01003C98H   LINE      CODE     ---       #711
      01003CB5H   LINE      CODE     ---       #712
      01003CB5H   LINE      CODE     ---       #713
      01003CBEH   LINE      CODE     ---       #714
      01003CBEH   LINE      CODE     ---       #715
      01003CDBH   LINE      CODE     ---       #716
      01003CDBH   LINE      CODE     ---       #717
      01003CE4H   LINE      CODE     ---       #718
      01003CE4H   LINE      CODE     ---       #719
      01003D01H   LINE      CODE     ---       #720
      01003D01H   LINE      CODE     ---       #721
      01003D07H   LINE      CODE     ---       #722
      01003D07H   LINE      CODE     ---       #723
      01003D24H   LINE      CODE     ---       #724
      01003D24H   LINE      CODE     ---       #725
      01003D2DH   LINE      CODE     ---       #726
      01003D2DH   LINE      CODE     ---       #727
      01003D4AH   LINE      CODE     ---       #728
      01003D4AH   LINE      CODE     ---       #729
      01003D53H   LINE      CODE     ---       #730
      01003D53H   LINE      CODE     ---       #731
      01003D70H   LINE      CODE     ---       #732
      01003D70H   LINE      CODE     ---       #733
      01003D79H   LINE      CODE     ---       #734
      01003D79H   LINE      CODE     ---       #735
      01003D96H   LINE      CODE     ---       #736
      01003D96H   LINE      CODE     ---       #737
      01003D9FH   LINE      CODE     ---       #738
      01003D9FH   LINE      CODE     ---       #739
      01003DBCH   LINE      CODE     ---       #740
      01003DBCH   LINE      CODE     ---       #741
      01003DC5H   LINE      CODE     ---       #742
      01003DC5H   LINE      CODE     ---       #743
      01003DE2H   LINE      CODE     ---       #744
      01003DE2H   LINE      CODE     ---       #745
      01003DEBH   LINE      CODE     ---       #746
      01003DEBH   LINE      CODE     ---       #747
LX51 LINKER/LOCATER V4.47a                                                            12/31/2014  11:09:05  PAGE 106


      01003E08H   LINE      CODE     ---       #748
      01003E08H   LINE      CODE     ---       #749
      01003E11H   LINE      CODE     ---       #750
      01003E11H   LINE      CODE     ---       #751
      01003E2EH   LINE      CODE     ---       #752
      01003E2EH   LINE      CODE     ---       #753
      01003E37H   LINE      CODE     ---       #754
      01003E37H   LINE      CODE     ---       #755
      01003E54H   LINE      CODE     ---       #756
      01003E54H   LINE      CODE     ---       #757
      01003E5DH   LINE      CODE     ---       #758
      01003E5DH   LINE      CODE     ---       #759
      01003E7AH   LINE      CODE     ---       #760
      01003E7AH   LINE      CODE     ---       #761
      01003E83H   LINE      CODE     ---       #762
      01003E83H   LINE      CODE     ---       #763
      01003EA0H   LINE      CODE     ---       #764
      01003EA0H   LINE      CODE     ---       #765
      01003EA9H   LINE      CODE     ---       #766
      01003EA9H   LINE      CODE     ---       #767
      01003EC6H   LINE      CODE     ---       #768
      01003EC6H   LINE      CODE     ---       #769
      01003ECFH   LINE      CODE     ---       #770
      01003ECFH   LINE      CODE     ---       #771
      01003EECH   LINE      CODE     ---       #772
      01003EECH   LINE      CODE     ---       #773
      01003EECH   LINE      CODE     ---       #774
      01003EF0H   LINE      CODE     ---       #776
      ---         BLOCKEND  ---      ---       LVL=0

      01003EF1H   BLOCK     CODE     ---       LVL=0
      00000062H   SYMBOL    DATA     WORD      Code_Value
      01003EF5H   BLOCK     CODE     NEAR LAB  LVL=1
      00000064H   SYMBOL    DATA     WORD      out_Value
      00000002H   SYMBOL    DATA     WORD      B_code
      ---         BLOCKEND  ---      ---       LVL=1
      01003EF1H   LINE      CODE     ---       #780
      01003EF5H   LINE      CODE     ---       #781
      01003EF5H   LINE      CODE     ---       #784
      01003EFAH   LINE      CODE     ---       #785
      01003EFAH   LINE      CODE     ---       #786
      01003F05H   LINE      CODE     ---       #787
      01003F05H   LINE      CODE     ---       #788
      01003F30H   LINE      CODE     ---       #791
      01003F33H   LINE      CODE     ---       #793
      01003F33H   LINE      CODE     ---       #794
      01003F38H   LINE      CODE     ---       #795
      01003F38H   LINE      CODE     ---       #796
      01003F3BH   LINE      CODE     ---       #798
      01003F3BH   LINE      CODE     ---       #799
      01003F5EH   LINE      CODE     ---       #801
      01003F62H   LINE      CODE     ---       #803
      01003F6BH   LINE      CODE     ---       #804
      01003F6BH   LINE      CODE     ---       #805
      01003F88H   LINE      CODE     ---       #806
      01003F88H   LINE      CODE     ---       #807
      01003F91H   LINE      CODE     ---       #808
      01003F91H   LINE      CODE     ---       #809
      01003FAEH   LINE      CODE     ---       #810
      01003FAEH   LINE      CODE     ---       #811
      01003FB7H   LINE      CODE     ---       #812
      01003FB7H   LINE      CODE     ---       #813
      01003FD4H   LINE      CODE     ---       #814
      01003FD4H   LINE      CODE     ---       #815
      01003FDDH   LINE      CODE     ---       #816
LX51 LINKER/LOCATER V4.47a                                                            12/31/2014  11:09:05  PAGE 107


      01003FDDH   LINE      CODE     ---       #817
      01003FFAH   LINE      CODE     ---       #818
      01003FFAH   LINE      CODE     ---       #819
      01004003H   LINE      CODE     ---       #820
      01004003H   LINE      CODE     ---       #821
      01004020H   LINE      CODE     ---       #822
      01004020H   LINE      CODE     ---       #823
      01004029H   LINE      CODE     ---       #824
      01004029H   LINE      CODE     ---       #825
      01004046H   LINE      CODE     ---       #826
      01004046H   LINE      CODE     ---       #827
      0100404FH   LINE      CODE     ---       #828
      0100404FH   LINE      CODE     ---       #829
      0100406CH   LINE      CODE     ---       #830
      0100406CH   LINE      CODE     ---       #831
      01004075H   LINE      CODE     ---       #832
      01004075H   LINE      CODE     ---       #833
      01004092H   LINE      CODE     ---       #834
      01004092H   LINE      CODE     ---       #835
      0100409BH   LINE      CODE     ---       #836
      0100409BH   LINE      CODE     ---       #837
      010040B8H   LINE      CODE     ---       #838
      010040B8H   LINE      CODE     ---       #839
      010040C1H   LINE      CODE     ---       #840
      010040C1H   LINE      CODE     ---       #841
      010040DEH   LINE      CODE     ---       #842
      010040DEH   LINE      CODE     ---       #843
      010040E7H   LINE      CODE     ---       #844
      010040E7H   LINE      CODE     ---       #845
      01004104H   LINE      CODE     ---       #846
      01004104H   LINE      CODE     ---       #847
      0100410DH   LINE      CODE     ---       #848
      0100410DH   LINE      CODE     ---       #849
      0100412AH   LINE      CODE     ---       #850
      0100412AH   LINE      CODE     ---       #851
      01004133H   LINE      CODE     ---       #852
      01004133H   LINE      CODE     ---       #853
      01004150H   LINE      CODE     ---       #854
      01004150H   LINE      CODE     ---       #855
      01004159H   LINE      CODE     ---       #856
      01004159H   LINE      CODE     ---       #857
      01004176H   LINE      CODE     ---       #858
      01004176H   LINE      CODE     ---       #859
      0100417FH   LINE      CODE     ---       #860
      0100417FH   LINE      CODE     ---       #861
      0100419CH   LINE      CODE     ---       #862
      0100419CH   LINE      CODE     ---       #863
      010041A5H   LINE      CODE     ---       #864
      010041A5H   LINE      CODE     ---       #865
      010041C2H   LINE      CODE     ---       #866
      010041C2H   LINE      CODE     ---       #867
      010041CBH   LINE      CODE     ---       #868
      010041CBH   LINE      CODE     ---       #869
      010041E8H   LINE      CODE     ---       #870
      010041E8H   LINE      CODE     ---       #871
      010041F1H   LINE      CODE     ---       #872
      010041F1H   LINE      CODE     ---       #873
      0100420DH   LINE      CODE     ---       #874
      0100420DH   LINE      CODE     ---       #875
      01004216H   LINE      CODE     ---       #876
      01004216H   LINE      CODE     ---       #877
      01004232H   LINE      CODE     ---       #878
      01004232H   LINE      CODE     ---       #879
      01004232H   LINE      CODE     ---       #880
      01004236H   LINE      CODE     ---       #882
LX51 LINKER/LOCATER V4.47a                                                            12/31/2014  11:09:05  PAGE 108


      ---         BLOCKEND  ---      ---       LVL=0

      01002EC0H   BLOCK     CODE     ---       LVL=0
      00000060H   SYMBOL    DATA     WORD      Code_Value
      01002EC4H   BLOCK     CODE     NEAR LAB  LVL=1
      00000062H   SYMBOL    DATA     WORD      RTD_Value
      00000064H   SYMBOL    DATA     WORD      out_Value
      ---         BLOCKEND  ---      ---       LVL=1
      01002EC0H   LINE      CODE     ---       #999
      01002EC4H   LINE      CODE     ---       #1000
      01002EC4H   LINE      CODE     ---       #1004
      01002EC7H   LINE      CODE     ---       #1006
      01002ED0H   LINE      CODE     ---       #1007
      01002ED0H   LINE      CODE     ---       #1008
      01002EDFH   LINE      CODE     ---       #1009
      01002EDFH   LINE      CODE     ---       #1010
      01002F07H   LINE      CODE     ---       #1011
      01002F0AH   LINE      CODE     ---       #1012
      01002F0DH   LINE      CODE     ---       #1013
      01002F0FH   LINE      CODE     ---       #1015
      01002F0FH   LINE      CODE     ---       #1016
      01002F2FH   LINE      CODE     ---       #1017
      01002F32H   LINE      CODE     ---       #1018
      01002F35H   LINE      CODE     ---       #1019
      01002F35H   LINE      CODE     ---       #1021
      01002F3BH   LINE      CODE     ---       #1023
      01002F4AH   LINE      CODE     ---       #1024
      01002F4AH   LINE      CODE     ---       #1025
      01002F68H   LINE      CODE     ---       #1026
      01002F68H   LINE      CODE     ---       #1027
      01002F77H   LINE      CODE     ---       #1028
      01002F77H   LINE      CODE     ---       #1029
      01002F96H   LINE      CODE     ---       #1030
      01002F96H   LINE      CODE     ---       #1031
      01002FA5H   LINE      CODE     ---       #1032
      01002FA5H   LINE      CODE     ---       #1033
      01002FC4H   LINE      CODE     ---       #1034
      01002FC4H   LINE      CODE     ---       #1035
      01002FD3H   LINE      CODE     ---       #1036
      01002FD3H   LINE      CODE     ---       #1037
      01002FF2H   LINE      CODE     ---       #1038
      01002FF2H   LINE      CODE     ---       #1039
      01003007H   LINE      CODE     ---       #1040
      01003007H   LINE      CODE     ---       #1041
      01003026H   LINE      CODE     ---       #1042
      01003026H   LINE      CODE     ---       #1043
      01003029H   LINE      CODE     ---       #1045
      01003029H   LINE      CODE     ---       #1046
      0100304DH   LINE      CODE     ---       #1048
      01003053H   LINE      CODE     ---       #1050
      0100305EH   LINE      CODE     ---       #1051
      0100305EH   LINE      CODE     ---       #1052
      0100307BH   LINE      CODE     ---       #1053
      0100307BH   LINE      CODE     ---       #1054
      01003086H   LINE      CODE     ---       #1055
      01003086H   LINE      CODE     ---       #1056
      010030A4H   LINE      CODE     ---       #1057
      010030A4H   LINE      CODE     ---       #1058
      010030AFH   LINE      CODE     ---       #1059
      010030AFH   LINE      CODE     ---       #1060
      010030CDH   LINE      CODE     ---       #1061
      010030CDH   LINE      CODE     ---       #1062
      010030D8H   LINE      CODE     ---       #1063
      010030D8H   LINE      CODE     ---       #1064
      010030F6H   LINE      CODE     ---       #1065
LX51 LINKER/LOCATER V4.47a                                                            12/31/2014  11:09:05  PAGE 109


      010030F6H   LINE      CODE     ---       #1066
      01003101H   LINE      CODE     ---       #1067
      01003101H   LINE      CODE     ---       #1068
      0100311FH   LINE      CODE     ---       #1069
      0100311FH   LINE      CODE     ---       #1070
      0100312AH   LINE      CODE     ---       #1071
      0100312AH   LINE      CODE     ---       #1072
      01003148H   LINE      CODE     ---       #1073
      01003148H   LINE      CODE     ---       #1074
      0100314FH   LINE      CODE     ---       #1075
      0100314FH   LINE      CODE     ---       #1076
      0100316CH   LINE      CODE     ---       #1077
      0100316CH   LINE      CODE     ---       #1078
      01003177H   LINE      CODE     ---       #1079
      01003177H   LINE      CODE     ---       #1080
      01003195H   LINE      CODE     ---       #1081
      01003195H   LINE      CODE     ---       #1082
      010031A0H   LINE      CODE     ---       #1083
      010031A0H   LINE      CODE     ---       #1084
      010031BEH   LINE      CODE     ---       #1085
      010031BEH   LINE      CODE     ---       #1086
      010031C9H   LINE      CODE     ---       #1087
      010031C9H   LINE      CODE     ---       #1088
      010031E7H   LINE      CODE     ---       #1089
      010031E7H   LINE      CODE     ---       #1090
      010031F2H   LINE      CODE     ---       #1091
      010031F2H   LINE      CODE     ---       #1092
      01003210H   LINE      CODE     ---       #1093
      01003210H   LINE      CODE     ---       #1094
      0100321BH   LINE      CODE     ---       #1095
      0100321BH   LINE      CODE     ---       #1096
      01003239H   LINE      CODE     ---       #1097
      01003239H   LINE      CODE     ---       #1098
      01003244H   LINE      CODE     ---       #1099
      01003244H   LINE      CODE     ---       #1100
      01003262H   LINE      CODE     ---       #1101
      01003262H   LINE      CODE     ---       #1102
      0100326DH   LINE      CODE     ---       #1103
      0100326DH   LINE      CODE     ---       #1104
      0100328BH   LINE      CODE     ---       #1105
      0100328BH   LINE      CODE     ---       #1106
      01003296H   LINE      CODE     ---       #1107
      01003296H   LINE      CODE     ---       #1108
      010032B4H   LINE      CODE     ---       #1109
      010032B4H   LINE      CODE     ---       #1110
      010032BFH   LINE      CODE     ---       #1111
      010032BFH   LINE      CODE     ---       #1112
      010032DDH   LINE      CODE     ---       #1113
      010032DDH   LINE      CODE     ---       #1114
      010032E8H   LINE      CODE     ---       #1115
      010032E8H   LINE      CODE     ---       #1116
      01003306H   LINE      CODE     ---       #1117
      01003306H   LINE      CODE     ---       #1118
      01003311H   LINE      CODE     ---       #1119
      01003311H   LINE      CODE     ---       #1120
      0100332FH   LINE      CODE     ---       #1121
      0100332FH   LINE      CODE     ---       #1122
      0100333AH   LINE      CODE     ---       #1123
      0100333AH   LINE      CODE     ---       #1124
      01003358H   LINE      CODE     ---       #1125
      01003358H   LINE      CODE     ---       #1126
      01003358H   LINE      CODE     ---       #1127
      0100335CH   LINE      CODE     ---       #1128
      ---         BLOCKEND  ---      ---       LVL=0

LX51 LINKER/LOCATER V4.47a                                                            12/31/2014  11:09:05  PAGE 110


      ---         MODULE    ---      ---       MCP79411
      0000000FH   PUBLIC    DATA     BYTE      RTC_ack
      010054F9H   PUBLIC    CODE     ---       _RTC_read_byte
      01005557H   PUBLIC    CODE     ---       _RTC_write_byte
      0100536CH   PUBLIC    CODE     ---       RTC_read_byte0
      010053A8H   PUBLIC    CODE     ---       _RTC_write_byte0
      0100000EH   PUBLIC    CODE     ---       RTC_restart0
      0100573DH   PUBLIC    CODE     ---       RTC_stop0
      010056F7H   PUBLIC    CODE     ---       RTC_start0
      0100570DH   PUBLIC    CODE     ---       RTC_BitDly
      01005698H   PUBLIC    CODE     ---       _RTC_Delay
      000000B0H   SFRSYM    DATA     BIT       R485_RX
      000000D8H.2 SFRSYM    DATA     BIT       CCF2
      00000098H.3 SFRSYM    DATA     BIT       TB80
      000000F6H   SFRSYM    DATA     BYTE      PCAPWM4
      00000091H   SFRSYM    DATA     BYTE      P1M0
      00000094H   SFRSYM    DATA     BYTE      P0M1
      000000D8H.3 SFRSYM    DATA     BIT       CCF3
      00000098H.3 SFRSYM    DATA     BIT       TB81
      000000F7H   SFRSYM    DATA     BYTE      PCAPWM5
      00000095H   SFRSYM    DATA     BYTE      P2M0
      00000092H   SFRSYM    DATA     BYTE      P1M1
      00000080H   SFRSYM    DATA     BYTE      P0
      000000B0H.1 SFRSYM    DATA     BIT       R485_TX
      000000D8H.4 SFRSYM    DATA     BIT       CCF4
      00000098H.7 SFRSYM    DATA     BIT       SM00
      000000B1H   SFRSYM    DATA     BYTE      P3M0
      00000096H   SFRSYM    DATA     BYTE      P2M1
      00000090H   SFRSYM    DATA     BYTE      P1
      000000D8H.5 SFRSYM    DATA     BIT       CCF5
      00000098H.7 SFRSYM    DATA     BIT       SM01
      00000098H.6 SFRSYM    DATA     BIT       SM10
      000000B3H   SFRSYM    DATA     BYTE      P4M0
      000000B2H   SFRSYM    DATA     BYTE      P3M1
      000000A0H   SFRSYM    DATA     BYTE      P2
      00000098H.6 SFRSYM    DATA     BIT       SM11
      00000098H.5 SFRSYM    DATA     BIT       SM20
      000000E7H   SFRSYM    DATA     BYTE      ISPCR
      000000B5H   SFRSYM    DATA     BYTE      P5M0
      000000B4H   SFRSYM    DATA     BYTE      P4M1
      000000B0H   SFRSYM    DATA     BYTE      P3
      000000C0H   SFRSYM    DATA     BYTE      XICON
      000000A0H.2 SFRSYM    DATA     BIT       EEPROM_SDA
      00000080H.7 SFRSYM    DATA     BIT       DOWN_KEY
      000000B0H.4 SFRSYM    DATA     BIT       T0
      00000098H.5 SFRSYM    DATA     BIT       SM21
      000000D0H.6 SFRSYM    DATA     BIT       AC
      00000097H   SFRSYM    DATA     BYTE      EVRCR
      000000B6H   SFRSYM    DATA     BYTE      P5M1
      000000E8H   SFRSYM    DATA     BYTE      P4
      000000B0H.5 SFRSYM    DATA     BIT       T1
      00000085H   SFRSYM    DATA     BYTE      SPCON
      000000F8H   SFRSYM    DATA     BYTE      P5
      000000ADH   SFRSYM    DATA     BYTE      EIE1
      00000090H   SFRSYM    DATA     BIT       T2
      000000A8H.7 SFRSYM    DATA     BIT       EA
      000000ACH   SFRSYM    DATA     BYTE      SFRPI
      000000E1H   SFRSYM    DATA     BYTE      WDTCR
      000000C8H   SFRSYM    DATA     BYTE      P6
      000000A0H.4 SFRSYM    DATA     BIT       mV_SCL
      000000A0H   SFRSYM    DATA     BIT       KBI0
      00000090H.5 SFRSYM    DATA     BIT       SPI_MOSI
      00000090H.6 SFRSYM    DATA     BIT       SPI_MISO
      00000080H.5 SFRSYM    DATA     BIT       mA_OUT
      000000A0H.1 SFRSYM    DATA     BIT       KBI1
LX51 LINKER/LOCATER V4.47a                                                            12/31/2014  11:09:05  PAGE 111


      00000085H   SFRSYM    DATA     BYTE      SPCTL
      000000A0H.2 SFRSYM    DATA     BIT       KBI2
      00000090H   SFRSYM    DATA     BIT       AIN0
      000000D8H.7 SFRSYM    DATA     BIT       CF
      000000AEH   SFRSYM    DATA     BYTE      AUXIP
      000000A0H.3 SFRSYM    DATA     BIT       KBI3
      00000090H.1 SFRSYM    DATA     BIT       AIN1
      000000A0H.4 SFRSYM    DATA     BIT       KBI4
      00000090H.2 SFRSYM    DATA     BIT       AIN2
      00000098H.7 SFRSYM    DATA     BIT       FE
      000000F9H   SFRSYM    DATA     BYTE      CH
      000000A0H.5 SFRSYM    DATA     BIT       KBI5
      00000090H.3 SFRSYM    DATA     BIT       AIN3
      000000A0H.6 SFRSYM    DATA     BIT       KBI6
      00000090H.4 SFRSYM    DATA     BIT       AIN4
      000000A0H.3 SFRSYM    DATA     BIT       EEPROM_SCL
      00000080H.1 SFRSYM    DATA     BIT       RTD_C
      000000A0H.7 SFRSYM    DATA     BIT       KBI7
      00000090H.5 SFRSYM    DATA     BIT       AIN5
      000000A8H   SFRSYM    DATA     BYTE      IE
      00000090H.6 SFRSYM    DATA     BIT       AIN6
      000000E9H   SFRSYM    DATA     BYTE      CL
      00000090H.7 SFRSYM    DATA     BIT       AIN7
      00000090H.2 SFRSYM    DATA     BIT       CEX0
      000000FAH   SFRSYM    DATA     BYTE      CCAP0H
      000000C6H   SFRSYM    DATA     BYTE      ADCH
      00000090H.3 SFRSYM    DATA     BIT       CEX1
      000000FBH   SFRSYM    DATA     BYTE      CCAP1H
      000000B7H   SFRSYM    DATA     BYTE      IP0H
      000000A0H.2 SFRSYM    DATA     BIT       ALL_SDA
      00000090H.4 SFRSYM    DATA     BIT       CEX2
      000000FCH   SFRSYM    DATA     BYTE      CCAP2H
      000000B0H.3 SFRSYM    DATA     BIT       OFFSET_KEY
      00000090H.5 SFRSYM    DATA     BIT       CEX3
      000000FDH   SFRSYM    DATA     BYTE      CCAP3H
      00000090H.6 SFRSYM    DATA     BIT       CEX4
      000000D8H.6 SFRSYM    DATA     BIT       CR
      000000FEH   SFRSYM    DATA     BYTE      CCAP4H
      000000EAH   SFRSYM    DATA     BYTE      CCAP0L
      000000BEH   SFRSYM    DATA     BYTE      ADCL
      000000B0H.7 SFRSYM    DATA     BIT       RD
      00000090H.7 SFRSYM    DATA     BIT       CEX5
      000000C8H.6 SFRSYM    DATA     BIT       EXF2
      00000098H.4 SFRSYM    DATA     BIT       REN0
      000000FFH   SFRSYM    DATA     BYTE      CCAP5H
      000000EBH   SFRSYM    DATA     BYTE      CCAP1L
      000000DAH   SFRSYM    DATA     BYTE      CCAPM0
      000000B8H   SFRSYM    DATA     BYTE      IP0L
      00000098H.4 SFRSYM    DATA     BIT       REN1
      000000ECH   SFRSYM    DATA     BYTE      CCAP2L
      000000DBH   SFRSYM    DATA     BYTE      CCAPM1
      000000C0H.3 SFRSYM    DATA     BIT       IT2H
      000000A8H.4 SFRSYM    DATA     BIT       ES
      00000097H   SFRSYM    DATA     BYTE      TSTWD
      000000EDH   SFRSYM    DATA     BYTE      CCAP3L
      000000DCH   SFRSYM    DATA     BYTE      CCAPM2
      000000C0H.7 SFRSYM    DATA     BIT       IT3H
      000000EEH   SFRSYM    DATA     BYTE      CCAP4L
      000000DDH   SFRSYM    DATA     BYTE      CCAPM3
      000000B8H   SFRSYM    DATA     BYTE      IP
      000000EFH   SFRSYM    DATA     BYTE      CCAP5L
      000000DEH   SFRSYM    DATA     BYTE      CCAPM4
      00000098H   SFRSYM    DATA     BIT       RI
      000000DFH   SFRSYM    DATA     BYTE      CCAPM5
      000000B0H.2 SFRSYM    DATA     BIT       INT0
LX51 LINKER/LOCATER V4.47a                                                            12/31/2014  11:09:05  PAGE 112


      000000D0H.7 SFRSYM    DATA     BIT       CY
      000000B0H.4 SFRSYM    DATA     BIT       BEEP
      00000080H.4 SFRSYM    DATA     BIT       mV_OUT
      000000B0H.3 SFRSYM    DATA     BIT       INT1
      00000098H.1 SFRSYM    DATA     BIT       TI
      000000A0H.3 SFRSYM    DATA     BIT       EEP_SCL
      000000E8H.3 SFRSYM    DATA     BIT       INT2
      000000E8H.2 SFRSYM    DATA     BIT       INT3
      000000C6H   SFRSYM    DATA     BYTE      ADCV
      0000008FH   SFRSYM    DATA     BYTE      STRETCH
      000000B8H.1 SFRSYM    DATA     BIT       PT0L
      000000B8H.3 SFRSYM    DATA     BIT       PT1L
      000000CBH   SFRSYM    DATA     BYTE      RCAP2H
      000000A0H.2 SFRSYM    DATA     BIT       RTC_SDA
      000000B8H.4 SFRSYM    DATA     BIT       PS
      000000B8H.5 SFRSYM    DATA     BIT       PT2L
      00000081H   SFRSYM    DATA     BYTE      SP
      00000090H.1 SFRSYM    DATA     BIT       T2EX
      000000D9H   SFRSYM    DATA     BYTE      CMOD
      000000D8H   SFRSYM    DATA     BYTE      CCON
      0000009AH   SFRSYM    DATA     BYTE      SCFG
      000000B8H   SFRSYM    DATA     BIT       PX0L
      000000D0H.2 SFRSYM    DATA     BIT       OV
      000000B8H.2 SFRSYM    DATA     BIT       PX1L
      000000CAH   SFRSYM    DATA     BYTE      RCAP2L
      000000B8H.6 SFRSYM    DATA     BIT       PX2L
      00000090H.7 SFRSYM    DATA     BIT       SPI_CLK
      000000B8H.7 SFRSYM    DATA     BIT       PX3L
      000000E6H   SFRSYM    DATA     BYTE      SCMD
      000000B0H.6 SFRSYM    DATA     BIT       WR
      000000C8H.1 SFRSYM    DATA     BIT       C_T2
      00000084H   SFRSYM    DATA     BYTE      SPISTAT
      00000090H.6 SFRSYM    DATA     BIT       RTC_SCL
      000000C8H.5 SFRSYM    DATA     BIT       RCLK
      000000C8H.4 SFRSYM    DATA     BIT       TCLK
      00000080H   SFRSYM    DATA     BIT       P00
      000000E3H   SFRSYM    DATA     BYTE      IFADRH
      00000090H   SFRSYM    DATA     BIT       P10
      00000080H.1 SFRSYM    DATA     BIT       P01
      000000E5H   SFRSYM    DATA     BYTE      IFMT
      00000087H   SFRSYM    DATA     BYTE      PCON
      00000099H   SFRSYM    DATA     BYTE      SBUF
      000000A0H   SFRSYM    DATA     BIT       P20
      00000090H.1 SFRSYM    DATA     BIT       P11
      00000080H.2 SFRSYM    DATA     BIT       P02
      000000B0H   SFRSYM    DATA     BIT       P30
      000000A0H.1 SFRSYM    DATA     BIT       P21
      00000090H.2 SFRSYM    DATA     BIT       P12
      00000080H.3 SFRSYM    DATA     BIT       P03
      000000B0H.2 SFRSYM    DATA     BIT       FUNCTION_KEY
      000000E8H   SFRSYM    DATA     BIT       P40
      000000B0H.1 SFRSYM    DATA     BIT       P31
      000000A0H.2 SFRSYM    DATA     BIT       P22
      00000090H.3 SFRSYM    DATA     BIT       P13
      00000080H.4 SFRSYM    DATA     BIT       P04
      000000E4H   SFRSYM    DATA     BYTE      IFADRL
      00000098H   SFRSYM    DATA     BYTE      SCON
      000000F8H   SFRSYM    DATA     BIT       P50
      000000E8H.1 SFRSYM    DATA     BIT       P41
      000000B0H.2 SFRSYM    DATA     BIT       P32
      000000A0H.3 SFRSYM    DATA     BIT       P23
      00000090H.4 SFRSYM    DATA     BIT       P14
      00000080H.5 SFRSYM    DATA     BIT       P05
      00000089H   SFRSYM    DATA     BYTE      TMOD
      00000088H   SFRSYM    DATA     BYTE      TCON
LX51 LINKER/LOCATER V4.47a                                                            12/31/2014  11:09:05  PAGE 113


      000000C8H   SFRSYM    DATA     BIT       P60
      000000F8H.1 SFRSYM    DATA     BIT       P51
      000000E8H.2 SFRSYM    DATA     BIT       P42
      000000B0H.3 SFRSYM    DATA     BIT       P33
      000000A0H.4 SFRSYM    DATA     BIT       P24
      00000090H.5 SFRSYM    DATA     BIT       P15
      00000080H.6 SFRSYM    DATA     BIT       P06
      000000C8H.1 SFRSYM    DATA     BIT       P61
      000000F8H.2 SFRSYM    DATA     BIT       P52
      000000E8H.3 SFRSYM    DATA     BIT       P43
      000000B0H.4 SFRSYM    DATA     BIT       P34
      000000A0H.5 SFRSYM    DATA     BIT       P25
      00000090H.6 SFRSYM    DATA     BIT       P16
      00000080H.7 SFRSYM    DATA     BIT       P07
      000000F8H.3 SFRSYM    DATA     BIT       P53
      000000E8H.4 SFRSYM    DATA     BIT       P44
      000000B0H.5 SFRSYM    DATA     BIT       P35
      000000A0H.6 SFRSYM    DATA     BIT       P26
      00000090H.7 SFRSYM    DATA     BIT       P17
      000000A0H   SFRSYM    DATA     BIT       Value_SDA
      000000E8H.5 SFRSYM    DATA     BIT       P45
      000000B0H.6 SFRSYM    DATA     BIT       P36
      000000A0H.7 SFRSYM    DATA     BIT       P27
      00000080H   SFRSYM    DATA     BIT       TC_C
      000000E8H.6 SFRSYM    DATA     BIT       P46
      000000B0H.7 SFRSYM    DATA     BIT       P37
      000000E8H.7 SFRSYM    DATA     BIT       P47
      000000D7H   SFRSYM    DATA     BYTE      KBMASK
      000000A0H.4 SFRSYM    DATA     BIT       OUT_SCL
      000000A0H   SFRSYM    DATA     BIT       AD_SDA
      00000088H.1 SFRSYM    DATA     BIT       IE0
      00000088H.3 SFRSYM    DATA     BIT       IE1
      00000090H   SFRSYM    DATA     BIT       LED1_SDA
      000000C0H.1 SFRSYM    DATA     BIT       IE2
      00000090H.3 SFRSYM    DATA     BIT       LED2_SDA
      000000C0H.5 SFRSYM    DATA     BIT       IE3
      000000A8H.6 SFRSYM    DATA     BIT       GF4
      0000008EH   SFRSYM    DATA     BYTE      AUXR
      000000F0H   SFRSYM    DATA     BYTE      B
      000000D5H   SFRSYM    DATA     BYTE      KBPATN
      000000A0H.1 SFRSYM    DATA     BIT       Value_SCL
      000000C8H   SFRSYM    DATA     BIT       CP_RL2
      000000A0H.6 SFRSYM    DATA     BIT       NONE_4
      000000A0H.7 SFRSYM    DATA     BIT       NONE_5
      000000B0H.6 SFRSYM    DATA     BIT       NONE_6
      00000086H   SFRSYM    DATA     BYTE      SPIDAT
      000000E0H   SFRSYM    DATA     BYTE      ACC
      000000B0H.7 SFRSYM    DATA     BIT       NONE_7
      000000A0H.1 SFRSYM    DATA     BIT       AD_SCL
      000000A8H.4 SFRSYM    DATA     BIT       ES0
      000000A8H.1 SFRSYM    DATA     BIT       ET0
      00000090H.2 SFRSYM    DATA     BIT       LED1_SCL
      00000088H.5 SFRSYM    DATA     BIT       TF0
      000000A8H.3 SFRSYM    DATA     BIT       ET1
      00000090H.4 SFRSYM    DATA     BIT       LED2_SCL
      00000088H.7 SFRSYM    DATA     BIT       TF1
      00000098H   SFRSYM    DATA     BIT       RI0
      000000A8H.5 SFRSYM    DATA     BIT       ET2
      000000C8H.7 SFRSYM    DATA     BIT       TF2
      00000098H   SFRSYM    DATA     BIT       RI1
      00000098H.2 SFRSYM    DATA     BIT       RB8
      0000008CH   SFRSYM    DATA     BYTE      TH0
      00000088H   SFRSYM    DATA     BIT       IT0
      00000098H.1 SFRSYM    DATA     BIT       TI0
      000000A8H   SFRSYM    DATA     BIT       EX0
LX51 LINKER/LOCATER V4.47a                                                            12/31/2014  11:09:05  PAGE 114


      0000008DH   SFRSYM    DATA     BYTE      TH1
      00000088H.2 SFRSYM    DATA     BIT       IT1
      00000098H.1 SFRSYM    DATA     BIT       TI1
      00000098H.3 SFRSYM    DATA     BIT       TB8
      000000A8H.2 SFRSYM    DATA     BIT       EX1
      00000085H   SFRSYM    DATA     BYTE      SPICON
      000000CDH   SFRSYM    DATA     BYTE      TH2
      000000C0H   SFRSYM    DATA     BIT       IT2
      000000C0H.2 SFRSYM    DATA     BIT       EX2
      000000D0H   SFRSYM    DATA     BIT       P
      000000C0H.4 SFRSYM    DATA     BIT       IT3
      000000C0H.6 SFRSYM    DATA     BIT       EX3
      00000098H.7 SFRSYM    DATA     BIT       SM0
      0000008AH   SFRSYM    DATA     BYTE      TL0
      00000080H.3 SFRSYM    DATA     BIT       mA_C
      000000C8H   SFRSYM    DATA     BIT       XOUT
      00000090H.1 SFRSYM    DATA     BIT       ECI
      00000098H.6 SFRSYM    DATA     BIT       SM1
      00000085H   SFRSYM    DATA     BYTE      SPICTL
      0000008BH   SFRSYM    DATA     BYTE      TL1
      000000AFH   SFRSYM    DATA     BYTE      AUXIPH
      000000E8H.6 SFRSYM    DATA     BIT       ALE
      00000098H.5 SFRSYM    DATA     BIT       SM2
      000000CCH   SFRSYM    DATA     BYTE      TL2
      000000E2H   SFRSYM    DATA     BYTE      IFD
      000000B8H.1 SFRSYM    DATA     BIT       PT0
      000000B0H.5 SFRSYM    DATA     BIT       R485_DE_RE
      000000B8H.3 SFRSYM    DATA     BIT       PT1
      000000D0H.3 SFRSYM    DATA     BIT       RS0
      00000088H.4 SFRSYM    DATA     BIT       TR0
      000000B8H.5 SFRSYM    DATA     BIT       PT2
      000000D0H.4 SFRSYM    DATA     BIT       RS1
      00000088H.6 SFRSYM    DATA     BIT       TR1
      000000C8H.2 SFRSYM    DATA     BIT       TR2
      000000B8H   SFRSYM    DATA     BIT       PX0
      000000AFH   SFRSYM    DATA     BYTE      EIP1H
      000000B8H.2 SFRSYM    DATA     BIT       PX1
      000000C0H.3 SFRSYM    DATA     BIT       PX2
      000000C0H.7 SFRSYM    DATA     BIT       PX3
      000000AEH   SFRSYM    DATA     BYTE      EIP1L
      00000083H   SFRSYM    DATA     BYTE      DPH
      000000C8H   SFRSYM    DATA     BIT       CKO
      00000082H   SFRSYM    DATA     BYTE      DPL
      00000087H   SFRSYM    DATA     BYTE      PCON0
      00000084H   SFRSYM    DATA     BYTE      SPSTAT
      00000099H   SFRSYM    DATA     BYTE      SBUF0
      000000B7H   SFRSYM    DATA     BYTE      IPH
      000000B0H.4 SFRSYM    DATA     BIT       T0CKO
      00000097H   SFRSYM    DATA     BYTE      PCON1
      00000099H   SFRSYM    DATA     BYTE      SBUF1
      000000B0H.5 SFRSYM    DATA     BIT       T1CKO
      000000C8H.3 SFRSYM    DATA     BIT       EXEN2
      000000C7H   SFRSYM    DATA     BYTE      PCON2
      0000009AH   SFRSYM    DATA     BYTE      S2BUF
      000000A0H.5 SFRSYM    DATA     BIT       NONE3
      00000090H.7 SFRSYM    DATA     BIT       none2
      00000098H   SFRSYM    DATA     BYTE      SCON0
      00000098H.4 SFRSYM    DATA     BIT       REN
      00000098H   SFRSYM    DATA     BYTE      SCON1
      00000080H.2 SFRSYM    DATA     BIT       mV_C
      000000C5H   SFRSYM    DATA     BYTE      ADCON
      000000A0H.2 SFRSYM    DATA     BIT       mA_SDA
      000000C9H   SFRSYM    DATA     BYTE      T2MOD
      000000C8H   SFRSYM    DATA     BYTE      T2CON
      000000C5H   SFRSYM    DATA     BYTE      ADCTL
LX51 LINKER/LOCATER V4.47a                                                            12/31/2014  11:09:05  PAGE 115


      000000BEH   SFRSYM    DATA     BYTE      ADCVL
      000000B9H   SFRSYM    DATA     BYTE      SADEN
      0000009AH   SFRSYM    DATA     BYTE      S1BRT
      000000B0H   SFRSYM    DATA     BIT       RXD
      000000D6H   SFRSYM    DATA     BYTE      KBCON
      00000080H.6 SFRSYM    DATA     BIT       UP_KEY
      000000C8H.1 SFRSYM    DATA     BIT       XIN
      000000B8H.4 SFRSYM    DATA     BIT       PSL
      000000A9H   SFRSYM    DATA     BYTE      SADDR
      000000B0H.1 SFRSYM    DATA     BIT       TXD
      000000A0H.4 SFRSYM    DATA     BIT       mA_SCL
      0000008EH   SFRSYM    DATA     BYTE      AUXR0
      000000A2H   SFRSYM    DATA     BYTE      AUXR1
      00000090H.4 SFRSYM    DATA     BIT       SPI_SS
      000000A6H   SFRSYM    DATA     BYTE      AUXR2
      00000090H.2 SFRSYM    DATA     BIT       S2RXD
      000000D0H.5 SFRSYM    DATA     BIT       F0
      000000B0H.4 SFRSYM    DATA     BIT       BEEP_OUT
      00000090H.3 SFRSYM    DATA     BIT       S2TXD
      000000D0H.1 SFRSYM    DATA     BIT       F1
      00000090H.1 SFRSYM    DATA     BIT       LED1_LE
      00000090H.5 SFRSYM    DATA     BIT       LED2_LE
      000000F2H   SFRSYM    DATA     BYTE      PCAPWM0
      000000D0H   SFRSYM    DATA     BYTE      PSW
      000000F3H   SFRSYM    DATA     BYTE      PCAPWM1
      000000A0H.2 SFRSYM    DATA     BIT       mV_SDA
      000000D8H   SFRSYM    DATA     BIT       CCF0
      00000098H.2 SFRSYM    DATA     BIT       RB80
      000000F4H   SFRSYM    DATA     BYTE      PCAPWM2
      000000D8H.1 SFRSYM    DATA     BIT       CCF1
      00000098H.2 SFRSYM    DATA     BIT       RB81
      000000F5H   SFRSYM    DATA     BYTE      PCAPWM3
      00000086H   SFRSYM    DATA     BYTE      SPDAT
      00000093H   SFRSYM    DATA     BYTE      P0M0
      000000ADH   SFRSYM    DATA     BYTE      AUXIE

      01005698H   BLOCK     CODE     ---       LVL=0
      00000006H   SYMBOL    DATA     WORD      i
      01005698H   BLOCK     CODE     NEAR LAB  LVL=1
      00000007H   SYMBOL    DATA     BYTE      j
      ---         BLOCKEND  ---      ---       LVL=1
      01005698H   LINE      CODE     ---       #38
      01005698H   LINE      CODE     ---       #39
      01005698H   LINE      CODE     ---       #41
      010056A2H   LINE      CODE     ---       #42
      010056A8H   LINE      CODE     ---       #43
      ---         BLOCKEND  ---      ---       LVL=0

      01005706H   BLOCK     CODE     ---       LVL=0
      ---         BLOCKEND  ---      ---       LVL=0

      0100570DH   BLOCK     CODE     ---       LVL=0
      00000007H   SYMBOL    DATA     BYTE      i
      0100570DH   BLOCK     CODE     NEAR LAB  LVL=1
      00000007H   SYMBOL    DATA     BYTE      i
      ---         BLOCKEND  ---      ---       LVL=1
      0100570DH   LINE      CODE     ---       #45
      0100570DH   LINE      CODE     ---       #46
      0100570DH   LINE      CODE     ---       #49
      01005713H   LINE      CODE     ---       #50
      ---         BLOCKEND  ---      ---       LVL=0
      00000006H   SYMBOL    DATA     WORD      i

      010056F7H   BLOCK     CODE     ---       LVL=0
      010056F7H   LINE      CODE     ---       #64
LX51 LINKER/LOCATER V4.47a                                                            12/31/2014  11:09:05  PAGE 116


      010056F7H   LINE      CODE     ---       #65
      010056F7H   LINE      CODE     ---       #66
      010056F9H   LINE      CODE     ---       #67
      010056FCH   LINE      CODE     ---       #68
      010056FEH   LINE      CODE     ---       #69
      01005701H   LINE      CODE     ---       #70
      01005703H   LINE      CODE     ---       #71
      ---         BLOCKEND  ---      ---       LVL=0

      0100573DH   BLOCK     CODE     ---       LVL=0
      0100573DH   LINE      CODE     ---       #74
      0100573DH   LINE      CODE     ---       #75
      0100573DH   LINE      CODE     ---       #76
      0100573FH   LINE      CODE     ---       #77
      0100573FH   LINE      CODE     ---       #78
      0100573FH   LINE      CODE     ---       #79
      01005742H   LINE      CODE     ---       #80
      01005744H   LINE      CODE     ---       #81
      ---         BLOCKEND  ---      ---       LVL=0

      0100000EH   BLOCK     CODE     ---       LVL=0
      0100000EH   LINE      CODE     ---       #84
      0100000EH   LINE      CODE     ---       #85
      0100000EH   LINE      CODE     ---       #86
      0100000EH   LINE      CODE     ---       #87
      0100000EH   LINE      CODE     ---       #88
      0100000EH   LINE      CODE     ---       #89
      01000011H   LINE      CODE     ---       #90
      01000013H   LINE      CODE     ---       #91
      01000016H   LINE      CODE     ---       #92
      01000018H   LINE      CODE     ---       #93
      ---         BLOCKEND  ---      ---       LVL=0

      010053A8H   BLOCK     CODE     ---       LVL=0
      00000006H   SYMBOL    DATA     BYTE      bt
      010053AAH   BLOCK     CODE     NEAR LAB  LVL=1
      00000010H   SYMBOL    IDATA    BYTE      i
      ---         BLOCKEND  ---      ---       LVL=1
      010053A8H   LINE      CODE     ---       #96
      010053AAH   LINE      CODE     ---       #97
      010053AAH   LINE      CODE     ---       #100
      010053ADH   LINE      CODE     ---       #102
      010053B1H   LINE      CODE     ---       #103
      010053B1H   LINE      CODE     ---       #104
      010053B5H   LINE      CODE     ---       #105
      010053B9H   LINE      CODE     ---       #107
      010053BBH   LINE      CODE     ---       #108
      010053BBH   LINE      CODE     ---       #109
      010053BBH   LINE      CODE     ---       #110
      010053BEH   LINE      CODE     ---       #111
      010053C0H   LINE      CODE     ---       #112
      010053C3H   LINE      CODE     ---       #113
      010053C7H   LINE      CODE     ---       #114
      010053D0H   LINE      CODE     ---       #115
      010053D0H   LINE      CODE     ---       #116
      010053D0H   LINE      CODE     ---       #117
      010053D0H   LINE      CODE     ---       #118
      010053D3H   LINE      CODE     ---       #120
      010053D9H   LINE      CODE     ---       #121
      010053DBH   LINE      CODE     ---       #122
      ---         BLOCKEND  ---      ---       LVL=0

      0100536CH   BLOCK     CODE     ---       LVL=0
      0100536CH   BLOCK     CODE     NEAR LAB  LVL=1
      00000010H   SYMBOL    IDATA    BYTE      i
LX51 LINKER/LOCATER V4.47a                                                            12/31/2014  11:09:05  PAGE 117


      00000011H   SYMBOL    IDATA    BYTE      res
      ---         BLOCKEND  ---      ---       LVL=1
      0100536CH   LINE      CODE     ---       #125
      0100536CH   LINE      CODE     ---       #126
      0100536CH   LINE      CODE     ---       #128
      01005370H   LINE      CODE     ---       #129
      01005372H   LINE      CODE     ---       #131
      01005374H   LINE      CODE     ---       #132
      01005374H   LINE      CODE     ---       #133
      01005376H   LINE      CODE     ---       #134
      01005379H   LINE      CODE     ---       #135
      01005380H   LINE      CODE     ---       #136
      01005387H   LINE      CODE     ---       #137
      01005389H   LINE      CODE     ---       #138
      0100538CH   LINE      CODE     ---       #139
      01005395H   LINE      CODE     ---       #140
      01005397H   LINE      CODE     ---       #141
      01005399H   LINE      CODE     ---       #142
      0100539CH   LINE      CODE     ---       #143
      0100539EH   LINE      CODE     ---       #144
      010053A0H   LINE      CODE     ---       #145
      010053A3H   LINE      CODE     ---       #146
      010053A7H   LINE      CODE     ---       #147
      ---         BLOCKEND  ---      ---       LVL=0

      01005557H   BLOCK     CODE     ---       LVL=0
      00000004H   SYMBOL    DATA     BYTE      reg_addr
      00000005H   SYMBOL    DATA     BYTE      reg_data
      01005557H   LINE      CODE     ---       #149
      01005559H   LINE      CODE     ---       #150
      01005559H   LINE      CODE     ---       #151
      0100555CH   LINE      CODE     ---       #152
      01005561H   LINE      CODE     ---       #153
      01005566H   LINE      CODE     ---       #154
      0100556BH   LINE      CODE     ---       #155
      0100556EH   LINE      CODE     ---       #156
      ---         BLOCKEND  ---      ---       LVL=0

      010054F9H   BLOCK     CODE     ---       LVL=0
      00000005H   SYMBOL    DATA     BYTE      reg_addr
      010054FBH   BLOCK     CODE     NEAR LAB  LVL=1
      00000006H   SYMBOL    DATA     BYTE      retb
      ---         BLOCKEND  ---      ---       LVL=1
      010054F9H   LINE      CODE     ---       #159
      010054FBH   LINE      CODE     ---       #160
      010054FBH   LINE      CODE     ---       #163
      010054FEH   LINE      CODE     ---       #164
      01005503H   LINE      CODE     ---       #165
      01005508H   LINE      CODE     ---       #166
      0100550BH   LINE      CODE     ---       #167
      01005510H   LINE      CODE     ---       #168
      01005515H   LINE      CODE     ---       #169
      01005518H   LINE      CODE     ---       #171
      0100551AH   LINE      CODE     ---       #172
      ---         BLOCKEND  ---      ---       LVL=0

      ---         MODULE    ---      ---       ?C?FPADD
      010037FFH   PUBLIC    CODE     ---       ?C?FPADD
      010037FBH   PUBLIC    CODE     ---       ?C?FPSUB

      ---         MODULE    ---      ---       ?C?FPDIV
      010038F3H   PUBLIC    CODE     ---       ?C?FPDIV

      ---         MODULE    ---      ---       ?C?FCAST
      0100399AH   PUBLIC    CODE     ---       ?C?FCASTC
LX51 LINKER/LOCATER V4.47a                                                            12/31/2014  11:09:05  PAGE 118


      01003995H   PUBLIC    CODE     ---       ?C?FCASTI
      01003990H   PUBLIC    CODE     ---       ?C?FCASTL

      ---         MODULE    ---      ---       ?C?CASTF
      010039CEH   PUBLIC    CODE     ---       ?C?CASTF

      ---         MODULE    ---      ---       ?C?FPGETOPN
      01003A05H   PUBLIC    CODE     ---       ?C?FPGETOPN2
      01003A3AH   PUBLIC    CODE     ---       ?C?FPNANRESULT
      01003A44H   PUBLIC    CODE     ---       ?C?FPOVERFLOW
      01003A1CH   PUBLIC    CODE     ---       ?C?FPRESULT
      01003A30H   PUBLIC    CODE     ---       ?C?FPRESULT2
      01003A41H   PUBLIC    CODE     ---       ?C?FPUNDERFLOW

      ---         MODULE    ---      ---       ?C_STARTUP
      01000000H   PUBLIC    CODE     ---       ?C_STARTUP

      ---         MODULE    ---      ---       ?C?IMUL
      01003A4FH   PUBLIC    CODE     ---       ?C?IMUL

      ---         MODULE    ---      ---       ?C?UIDIV
      01003A61H   PUBLIC    CODE     ---       ?C?UIDIV

      ---         MODULE    ---      ---       ?C?SLDIV
      010051B4H   PUBLIC    CODE     ---       ?C?SLDIV

      ---         MODULE    ---      ---       ?C?LNEG
      01003AB6H   PUBLIC    CODE     ---       ?C?LNEG

      ---         MODULE    ---      ---       ?C?SLCMP
      01003AC4H   PUBLIC    CODE     ---       ?C?SLCMP

      ---         MODULE    ---      ---       ?C_INIT
      01004F5EH   PUBLIC    CODE     ---       ?C_START

      ---         MODULE    ---      ---       ?C?ULDIV
      01003B16H   PUBLIC    CODE     ---       ?C?ULDIV

Program Size: data=142.3 xdata=82 const=51 code=22369
LX51 RUN COMPLETE.  0 WARNING(S),  0 ERROR(S)
