LX51 LINKER/LOCATER V4.47a                                                              06/06/2015  09:44:34  PAGE 1


LX51 LINKER/LOCATER V4.47a, INVOKED BY:
C:\KEIL\C51\BIN\LX51.EXE main.obj, LED.obj, AD3421.obj, EEPROM.obj, DAC6571_mV.obj, DAC6571_mA.obj, TYPE_SLOPE.obj, MCP7
>> 9411.obj TO TC_521 REMOVEUNUSED CLASSES (XDATA (X:0X0-X:0X3FF), HDATA (X:0X0-X:0X3FF), ECODE (C:0X0-C:0XFFFF), HCONST
>>  (C:0X0-C:0XFFFF))


CPU MODE:     8051 MODE
MEMORY MODEL: SMALL WITH FLOATING POINT ARITHMETIC


INPUT MODULES INCLUDED:
  main.obj (MAIN)
         COMMENT TYPE 0: C51 V9.02
  LED.obj (LED)
         COMMENT TYPE 0: C51 V9.02
  AD3421.obj (AD3421)
         COMMENT TYPE 0: C51 V9.02
  EEPROM.obj (EEPROM)
         COMMENT TYPE 0: C51 V9.02
  DAC6571_mV.obj (DAC6571_MV)
         COMMENT TYPE 0: C51 V9.02
  DAC6571_mA.obj (DAC6571_MA)
         COMMENT TYPE 0: C51 V9.02
  TYPE_SLOPE.obj (TYPE_SLOPE)
         COMMENT TYPE 0: C51 V9.02
  MCP79411.obj (MCP79411)
         COMMENT TYPE 0: C51 V9.02
  C:\KEIL\C51\LIB\C51FPS.LIB (?C?FPADD)
         COMMENT TYPE 1: A51 / ASM51 Assembler
  C:\KEIL\C51\LIB\C51FPS.LIB (?C?FPDIV)
         COMMENT TYPE 1: A51 / ASM51 Assembler
  C:\KEIL\C51\LIB\C51FPS.LIB (?C?FCAST)
         COMMENT TYPE 1: A51 / ASM51 Assembler
  C:\KEIL\C51\LIB\C51FPS.LIB (?C?CASTF)
         COMMENT TYPE 1: A51 / ASM51 Assembler
  C:\KEIL\C51\LIB\C51FPS.LIB (?C?FPGETOPN)
         COMMENT TYPE 1: A51 / ASM51 Assembler
  C:\KEIL\C51\LIB\C51S.LIB (?C_STARTUP)
         COMMENT TYPE 1: A51 / ASM51 Assembler
  C:\KEIL\C51\LIB\C51S.LIB (?C?IMUL)
         COMMENT TYPE 1: A51 / ASM51 Assembler
  C:\KEIL\C51\LIB\C51S.LIB (?C?UIDIV)
         COMMENT TYPE 1: A51 / ASM51 Assembler
  C:\KEIL\C51\LIB\C51S.LIB (?C?SLDIV)
         COMMENT TYPE 1: A51 / ASM51 Assembler
  C:\KEIL\C51\LIB\C51S.LIB (?C?LNEG)
         COMMENT TYPE 1: A51 / ASM51 Assembler
  C:\KEIL\C51\LIB\C51S.LIB (?C?SLCMP)
         COMMENT TYPE 1: A51 / ASM51 Assembler
  C:\KEIL\C51\LIB\C51S.LIB (?C_INIT)
         COMMENT TYPE 1: A51 / ASM51 Assembler
  C:\KEIL\C51\LIB\C51S.LIB (?C?ULDIV)
         COMMENT TYPE 1: A51 / ASM51 Assembler


ACTIVE MEMORY CLASSES OF MODULE:  TC_521 (MAIN)

BASE        START       END         USED      MEMORY CLASS
==========================================================
X:000000H   X:000000H   X:0003FFH   000052H   XDATA
X:000000H   X:000000H   X:0003FFH             HDATA
C:000000H   C:000000H   C:00FFFFH             ECODE
B00:0000H   C:000000H   C:00FFFFH             HCONST
C:000000H   C:000000H   C:00FFFFH   005CA7H   CODE
I:000000H   I:000000H   I:00007FH   00006FH   DATA
I:000020H.0 I:000020H.0 I:00002FH.7 000000H.4 BIT
LX51 LINKER/LOCATER V4.47a                                                            06/06/2015  09:44:34  PAGE 2


I:000000H   I:000000H   I:0000FFH   000030H   IDATA
C:000000H   C:000000H   C:00FFFFH   000033H   CONST


MEMORY MAP OF MODULE:  TC_521 (MAIN)


START     STOP      LENGTH    ALIGN  RELOC    MEMORY CLASS   SEGMENT NAME
=========================================================================

* * * * * * * * * * *   D A T A   M E M O R Y   * * * * * * * * * * * * *
000000H   000007H   000008H   ---    AT..     DATA           "REG BANK 0"
000008H   00000AH   000003H   BYTE   UNIT     DATA           ?DT?TYPE_SLOPE
00000BH   00000BH   000001H   BYTE   UNIT     DATA           ?DT?AD3421
00000CH   00000CH   000001H   BYTE   UNIT     DATA           ?DT?EEPROM
00000DH   00000DH   000001H   BYTE   UNIT     DATA           ?DT?DAC6571_MV
00000EH   00000EH   000001H   BYTE   UNIT     DATA           ?DT?DAC6571_MA
00000FH   00000FH   000001H   BYTE   UNIT     DATA           ?DT?MCP79411
000010H   000012H   000003H   BYTE   UNIT     IDATA          _IDATA_GROUP_
000013H.0 00001FH.7 00000DH.0 ---    ---      **GAP**
000020H.0 000020H.3 000000H.4 BIT    UNIT     BIT            ?BI?MAIN
000020H.4 000020H   000000H.4 ---    ---      **GAP**
000021H   000061H   000041H   BYTE   UNIT     DATA           ?DT?MAIN
000062H   00007FH   00001EH   BYTE   UNIT     DATA           _DATA_GROUP_
000080H   0000ABH   00002CH   BYTE   UNIT     IDATA          ?ID?MAIN
0000ACH   0000ACH   000001H   BYTE   UNIT     IDATA          ?STACK

* * * * * * * * * * *   C O D E   M E M O R Y   * * * * * * * * * * * * *
000000H   000002H   000003H   ---    OFFS..   CODE           ?CO??C_STARTUP?0
000003H   000005H   000003H   BYTE   OFFS..   CODE           ?MAIN?00003
000006H   000006H   000001H   BYTE   UNIT     CODE           ?PR?EX_INT0?MAIN
000007H   00000AH   000004H   ---    ---      **GAP**
00000BH   00000DH   000003H   BYTE   OFFS..   CODE           ?MAIN?0000B
00000EH   00001AH   00000DH   BYTE   UNIT     CODE           ?PR?RTC_RESTART0?MCP79411
00001BH   00001DH   000003H   BYTE   OFFS..   CODE           ?MAIN?0001B
00001EH   000022H   000005H   ---    ---      **GAP**
000023H   000025H   000003H   BYTE   OFFS..   CODE           ?MAIN?00023
000026H   000BC2H   000B9DH   BYTE   UNIT     CODE           ?PR?DO_SETUP_TYPE?MAIN
000BC3H   001424H   000862H   BYTE   UNIT     CODE           ?PR?_GET_E_SLOPE?TYPE_SLOPE
001425H   001C01H   0007DDH   BYTE   UNIT     CODE           ?PR?_GET_K_SLOPE?TYPE_SLOPE
001C02H   002391H   000790H   BYTE   UNIT     CODE           ?PR?_LED_DISP?LED
002392H   002A76H   0006E5H   BYTE   UNIT     CODE           ?PR?_SETUP_LED_DISP?LED
002A77H   002FE6H   000570H   BYTE   UNIT     CODE           ?PR?_GET_T_SLOPE?TYPE_SLOPE
002FE7H   003483H   00049DH   BYTE   UNIT     CODE           ?PR?_GET_RTD_SLOPE?TYPE_SLOPE
003484H   00391EH   00049BH   BYTE   UNIT     CODE           ?PR?_GET_J_SLOPE?TYPE_SLOPE
00391FH   003CCFH   0003B1H   BYTE   UNIT     CODE           ?PR?DO_TC_TYPE?MAIN
003CD0H   00407FH   0003B0H   BYTE   UNIT     CODE           ?C?LIB_CODE
004080H   0043CEH   00034FH   BYTE   UNIT     CODE           ?PR?_GET_S_SLOPE?TYPE_SLOPE
0043CFH   00471CH   00034EH   BYTE   UNIT     CODE           ?PR?_GET_R_SLOPE?TYPE_SLOPE
00471DH   004994H   000278H   BYTE   UNIT     CODE           ?PR?MAIN?MAIN
004995H   004AFAH   000166H   BYTE   UNIT     CODE           ?PR?DO_MV_TYPE?MAIN
004AFBH   004C60H   000166H   BYTE   UNIT     CODE           ?PR?DO_MA_TYPE?MAIN
004C61H   004DC2H   000162H   BYTE   UNIT     CODE           ?PR?DO_RTD_TYPE?MAIN
004DC3H   004F1FH   00015DH   BYTE   UNIT     CODE           ?PR?_CHECK_TYPE_OFFSET?MAIN
004F20H   004FFDH   0000DEH   BYTE   UNIT     CODE           ?PR?EEPROM_WRITEDEFAULT?MAIN
004FFEH   0050DBH   0000DEH   BYTE   UNIT     CODE           ?PR?DO_RESET_TYPE?MAIN
0050DCH   0051A6H   0000CBH   BYTE   UNIT     CODE           ?C_INITSEG
0051A7H   00526DH   0000C7H   BYTE   UNIT     CODE           ?PR?_LED_DATA_WRITE?LED
00526EH   005326H   0000B9H   BYTE   UNIT     CODE           ?PR?_TEMP_F_TO_C?MAIN
005327H   0053D2H   0000ACH   BYTE   UNIT     CODE           ?PR?READ_AD3421_VALUE?MAIN
0053D3H   005465H   000093H   BYTE   UNIT     CODE           ?PR?TEMP_READ?MAIN
005466H   0054F1H   00008CH   BYTE   UNIT     CODE           ?C_C51STARTUP
0054F2H   00557AH   000089H   BYTE   UNIT     CODE           ?PR?CHECK_PCB?MAIN
00557BH   0055EBH   000071H   BYTE   UNIT     CODE           ?PR?RTC_READ_SET?MAIN
0055ECH   005659H   00006EH   BYTE   UNIT     CODE           ?PR?GET_KEY?MAIN
LX51 LINKER/LOCATER V4.47a                                                            06/06/2015  09:44:34  PAGE 3


00565AH   0056BCH   000063H   BYTE   UNIT     CODE           ?PR?TIME1?MAIN
0056BDH   005711H   000055H   BYTE   UNIT     CODE           ?PR?RTC_ON?MAIN
005712H   005755H   000044H   BYTE   UNIT     CODE           ?C?LDIV
005756H   005798H   000043H   BYTE   UNIT     CODE           ?PR?_AD3421_WRITE_BYTE?AD3421
005799H   0057D9H   000041H   BYTE   UNIT     CODE           ?PR?_AD3421_READ_BYTE?AD3421
0057DAH   005815H   00003CH   BYTE   UNIT     CODE           ?PR?_EEPROM_WRITE_BYTE0?EEPROM
005816H   005851H   00003CH   BYTE   UNIT     CODE           ?PR?EEPROM_READ_BYTE0?EEPROM
005852H   00588DH   00003CH   BYTE   UNIT     CODE           ?PR?_DAC6571MV_WRITE_BYTE?DAC6571_MV
00588EH   0058C9H   00003CH   BYTE   UNIT     CODE           ?PR?_DAC6571MA_WRITE_BYTE?DAC6571_MA
0058CAH   005905H   00003CH   BYTE   UNIT     CODE           ?PR?RTC_READ_BYTE0?MCP79411
005906H   00593BH   000036H   BYTE   UNIT     CODE           ?PR?_RTC_WRITE_BYTE0?MCP79411
00593CH   00596DH   000032H   BYTE   UNIT     CODE           ?PR?_SET_MA?DAC6571_MA
00596EH   005999H   00002CH   BYTE   UNIT     CODE           ?PR?TIME0?MAIN
00599AH   0059C2H   000029H   BYTE   UNIT     CODE           ?PR?LED_INIT?LED
0059C3H   0059EAH   000028H   BYTE   UNIT     CODE           ?PR?_AD3421_READ_COM?AD3421
0059EBH   005A12H   000028H   BYTE   UNIT     CODE           ?PR?_SET_MV?DAC6571_MV
005A13H   005A39H   000027H   BYTE   UNIT     CODE           ?PR?_EEPROM_READ_BYTE?EEPROM
005A3AH   005A5CH   000023H   BYTE   UNIT     CODE           ?PR?_EEPROM_WRITE_BYTE?EEPROM
005A5DH   005A7EH   000022H   BYTE   UNIT     CODE           ?PR?_RTC_READ_BYTE?MCP79411
005A7FH   005A9CH   00001EH   BYTE   UNIT     CODE           ?PR?EEPROM_INIT?EEPROM
005A9DH   005ABAH   00001EH   BYTE   UNIT     CODE           ?PR?_RTC_WRITE_BYTE?MCP79411
005ABBH   005AD6H   00001CH   BYTE   UNIT     CODE           ?PR?AD3421_INIT?AD3421
005AD7H   005AF2H   00001CH   BYTE   UNIT     CODE           ?PR?_EEPROM_READ_WORD?EEPROM
005AF3H   005B0DH   00001BH   BYTE   UNIT     CODE           ?PR?_DELAY?MAIN
005B0EH   005B27H   00001AH   BYTE   UNIT     CODE           ?PR?INITUART?MAIN
005B28H   005B41H   00001AH   BYTE   UNIT     CODE           ?PR?LED_FILL?LED
005B42H   005B59H   000018H   BYTE   UNIT     CODE           ?PR?GET_AD3421_VALUE?AD3421
005B5AH   005B70H   000017H   BYTE   UNIT     CODE           ?PR?_EEPROM_DELAY?EEPROM
005B71H   005B84H   000014H   BYTE   UNIT     CODE           ?PR?EEPROM_RESTART0?EEPROM
005B85H   005B96H   000012H   BYTE   UNIT     CODE           ?PR?_BUZZER?MAIN
005B97H   005BA8H   000012H   BYTE   UNIT     CODE           ?PR?AD3421_START?AD3421
005BA9H   005BBAH   000012H   BYTE   UNIT     CODE           ?PR?DAC6571MV_START?DAC6571_MV
005BBBH   005BCCH   000012H   BYTE   UNIT     CODE           ?PR?DAC6571MA_START?DAC6571_MA
005BCDH   005BDDH   000011H   BYTE   UNIT     CODE           ?PR?_EEPROM_WRITE_WORD?EEPROM
005BDEH   005BEEH   000011H   BYTE   UNIT     CODE           ?PR?_RTC_DELAY?MCP79411
005BEFH   005BFEH   000010H   BYTE   UNIT     CODE           ?PR?T0_INIT?MAIN
005BFFH   005C0EH   000010H   BYTE   UNIT     CODE           ?PR?T1_INIT?MAIN
005C0FH   005C1EH   000010H   BYTE   UNIT     CODE           ?PR?SERIAL?MAIN
005C1FH   005C2DH   00000FH   BYTE   UNIT     CODE           ?PR?EEPROM_START0?EEPROM
005C2EH   005C3CH   00000FH   BYTE   UNIT     CODE           ?PR?EEPROM_STOP0?EEPROM
005C3DH   005C4BH   00000FH   BYTE   UNIT     CODE           ?PR?RTC_START0?MCP79411
005C4CH   005C59H   00000EH   BYTE   UNIT     CODE           ?PR?RTC_BITDLY?MCP79411
005C5AH   005C64H   00000BH   BYTE   UNIT     CODE           ?PR?_AD3421_WRITE_COM?AD3421
005C65H   005C6EH   00000AH   BYTE   UNIT     CODE           ?PR?AD3421_STOP?AD3421
005C6FH   005C78H   00000AH   BYTE   UNIT     CODE           ?PR?DAC6571MV_STOP?DAC6571_MV
005C79H   005C82H   00000AH   BYTE   UNIT     CODE           ?PR?DAC6571MA_STOP?DAC6571_MA
005C83H   005C8CH   00000AH   BYTE   UNIT     CODE           ?PR?RTC_STOP0?MCP79411
005C8DH   005C93H   000007H   BYTE   UNIT     CODE           ?PR?_BITDLY?LED
005C94H   005C9AH   000007H   BYTE   UNIT     CODE           ?PR?AD_BITDLY?AD3421
005C9BH   005CA1H   000007H   BYTE   UNIT     CODE           ?PR?EEPROM_BITDLY?EEPROM
005CA2H   005CA8H   000007H   BYTE   UNIT     CODE           ?PR?_MVBITDLY?DAC6571_MV
005CA9H   005CAFH   000007H   BYTE   UNIT     CODE           ?PR?_MABITDLY?DAC6571_MA
005CB0H   005CE2H   000033H   BYTE   UNIT     CONST          ?CO?LED

* * * * * * * * * * *  X D A T A   M E M O R Y  * * * * * * * * * * * * *
000000H   000051H   000052H   BYTE   UNIT     XDATA          ?XD?TYPE_SLOPE

* * * * * * * * *   R E M O V E D     S E G M E N T S   * * * * * * * *
   *DEL*:           000023H   BYTE   UNIT     CODE           ?PR?PORT_INIT?MAIN
   *DEL*:           000010H   BYTE   UNIT     CODE           ?PR?T2_INIT?MAIN
   *DEL*:           00000BH   BYTE   UNIT     CODE           ?PR?INT0_INIT?MAIN
   *DEL*:           000001H   BYTE   UNIT     CODE           ?PR?VOLT_CTRL?MAIN
   *DEL*:           00003EH   BYTE   UNIT     CODE           ?PR?RTC_WRITE_SET?MAIN
   *DEL*:           00004FH   BYTE   UNIT     CODE           ?PR?_DAY_LED_DISP?LED
   *DEL*:           000003H   BYTE   UNIT     DATA           ?DT?_DAY_LED_DISP?LED
LX51 LINKER/LOCATER V4.47a                                                            06/06/2015  09:44:34  PAGE 4


   *DEL*:           000008H   BYTE   UNIT     CODE           ?PR?LED_CLS?LED
   *DEL*:           000026H   BYTE   UNIT     CODE           ?PR?DAC6571MV_INIT?DAC6571_MV
   *DEL*:           00000BH   BYTE   UNIT     CODE           ?PR?_MV_DELAY?DAC6571_MV
   *DEL*:           000026H   BYTE   UNIT     CODE           ?PR?DAC6571MA_INIT?DAC6571_MA
   *DEL*:           00000BH   BYTE   UNIT     CODE           ?PR?_MA_DELAY?DAC6571_MA
   *DEL*:           00001EH   BYTE   UNIT     CODE           ?PR?RTC_INIT?MCP79411



OVERLAY MAP OF MODULE:   TC_521 (MAIN)


FUNCTION/MODULE                        BIT_GROUP   DATA_GROUP   IDATA_GROUP
--> CALLED FUNCTION/MODULE            START  STOP  START  STOP  START  STOP
===========================================================================
EX_INT0/MAIN                          ----- -----  ----- -----  ----- -----

*** NEW ROOT ************************

TIME0/MAIN                            ----- -----  0062H 0063H  ----- -----

*** NEW ROOT ************************

TIME1/MAIN                            ----- -----  ----- -----  ----- -----

*** NEW ROOT ************************

SERIAL/MAIN                           ----- -----  ----- -----  ----- -----

*** NEW ROOT ************************

?C_C51STARTUP                         ----- -----  ----- -----  ----- -----
  +--> MAIN/MAIN
  +--> ?C_INITSEG

MAIN/MAIN                             ----- -----  ----- -----  ----- -----
  +--> EEPROM_INIT/EEPROM
  +--> LED_INIT/LED
  +--> T0_INIT/MAIN
  +--> T1_INIT/MAIN
  +--> AD3421_INIT/AD3421
  +--> INITUART/MAIN
  +--> _SET_MA/DAC6571_MA
  +--> LED_FILL/LED
  +--> _SET_MV/DAC6571_MV
  +--> _BUZZER/MAIN
  +--> _EEPROM_READ_BYTE/EEPROM
  +--> _EEPROM_WRITE_BYTE/EEPROM
  +--> RTC_ON/MAIN
  +--> EEPROM_WRITEDEFAULT/MAIN
  +--> _EEPROM_READ_WORD/EEPROM
  +--> CHECK_PCB/MAIN
  +--> DO_TC_TYPE/MAIN
  +--> DO_RTD_TYPE/MAIN
  +--> DO_MV_TYPE/MAIN
  +--> DO_MA_TYPE/MAIN
  +--> DO_SETUP_TYPE/MAIN
  +--> DO_RESET_TYPE/MAIN

EEPROM_INIT/EEPROM                    ----- -----  ----- -----  ----- -----
  +--> EEPROM_BITDLY/EEPROM

EEPROM_BITDLY/EEPROM                  ----- -----  ----- -----  ----- -----

LED_INIT/LED                          ----- -----  ----- -----  ----- -----
LX51 LINKER/LOCATER V4.47a                                                            06/06/2015  09:44:34  PAGE 5


  +--> _BITDLY/LED

_BITDLY/LED                           ----- -----  ----- -----  ----- -----

T0_INIT/MAIN                          ----- -----  ----- -----  ----- -----

T1_INIT/MAIN                          ----- -----  ----- -----  ----- -----

AD3421_INIT/AD3421                    ----- -----  ----- -----  ----- -----
  +--> AD_BITDLY/AD3421

AD_BITDLY/AD3421                      ----- -----  ----- -----  ----- -----

INITUART/MAIN                         ----- -----  ----- -----  ----- -----

_SET_MA/DAC6571_MA                    ----- -----  ----- -----  ----- -----
  +--> DAC6571MA_START/DAC6571_MA
  +--> _DAC6571MA_WRITE_BYTE/DAC6571_MA
  +--> DAC6571MA_STOP/DAC6571_MA

DAC6571MA_START/DAC6571_MA            ----- -----  ----- -----  ----- -----
  +--> _MABITDLY/DAC6571_MA

_MABITDLY/DAC6571_MA                  ----- -----  ----- -----  ----- -----

_DAC6571MA_WRITE_BYTE/DAC6571_MA      ----- -----  ----- -----  0010H 0010H
  +--> _MABITDLY/DAC6571_MA

DAC6571MA_STOP/DAC6571_MA             ----- -----  ----- -----  ----- -----
  +--> _MABITDLY/DAC6571_MA

LED_FILL/LED                          ----- -----  0064H 0065H  ----- -----
  +--> ?CO?LED
  +--> _LED_DATA_WRITE/LED

?CO?LED                               ----- -----  ----- -----  ----- -----

_LED_DATA_WRITE/LED                   ----- -----  0079H 007FH  ----- -----
  +--> _BITDLY/LED

_SET_MV/DAC6571_MV                    ----- -----  ----- -----  ----- -----
  +--> DAC6571MV_START/DAC6571_MV
  +--> _DAC6571MV_WRITE_BYTE/DAC6571_MV
  +--> DAC6571MV_STOP/DAC6571_MV

DAC6571MV_START/DAC6571_MV            ----- -----  ----- -----  ----- -----
  +--> _MVBITDLY/DAC6571_MV

_MVBITDLY/DAC6571_MV                  ----- -----  ----- -----  ----- -----

_DAC6571MV_WRITE_BYTE/DAC6571_MV      ----- -----  ----- -----  0010H 0010H
  +--> _MVBITDLY/DAC6571_MV

DAC6571MV_STOP/DAC6571_MV             ----- -----  ----- -----  ----- -----
  +--> _MVBITDLY/DAC6571_MV

_BUZZER/MAIN                          ----- -----  ----- -----  ----- -----

_EEPROM_READ_BYTE/EEPROM              ----- -----  ----- -----  ----- -----
  +--> EEPROM_START0/EEPROM
  +--> _EEPROM_WRITE_BYTE0/EEPROM
  +--> EEPROM_RESTART0/EEPROM
  +--> EEPROM_READ_BYTE0/EEPROM
  +--> EEPROM_STOP0/EEPROM

LX51 LINKER/LOCATER V4.47a                                                            06/06/2015  09:44:34  PAGE 6


EEPROM_START0/EEPROM                  ----- -----  ----- -----  ----- -----
  +--> EEPROM_BITDLY/EEPROM

_EEPROM_WRITE_BYTE0/EEPROM            ----- -----  ----- -----  0010H 0010H
  +--> EEPROM_BITDLY/EEPROM

EEPROM_RESTART0/EEPROM                ----- -----  ----- -----  ----- -----
  +--> EEPROM_BITDLY/EEPROM

EEPROM_READ_BYTE0/EEPROM              ----- -----  ----- -----  0010H 0011H
  +--> EEPROM_BITDLY/EEPROM

EEPROM_STOP0/EEPROM                   ----- -----  ----- -----  ----- -----
  +--> EEPROM_BITDLY/EEPROM

_EEPROM_WRITE_BYTE/EEPROM             ----- -----  ----- -----  ----- -----
  +--> EEPROM_START0/EEPROM
  +--> _EEPROM_WRITE_BYTE0/EEPROM
  +--> EEPROM_STOP0/EEPROM
  +--> _EEPROM_DELAY/EEPROM

_EEPROM_DELAY/EEPROM                  ----- -----  ----- -----  ----- -----

RTC_ON/MAIN                           ----- -----  ----- -----  ----- -----
  +--> _RTC_READ_BYTE/MCP79411
  +--> _RTC_WRITE_BYTE/MCP79411

_RTC_READ_BYTE/MCP79411               ----- -----  ----- -----  ----- -----
  +--> RTC_START0/MCP79411
  +--> _RTC_WRITE_BYTE0/MCP79411
  +--> RTC_RESTART0/MCP79411
  +--> RTC_READ_BYTE0/MCP79411
  +--> RTC_STOP0/MCP79411

RTC_START0/MCP79411                   ----- -----  ----- -----  ----- -----
  +--> RTC_BITDLY/MCP79411

RTC_BITDLY/MCP79411                   ----- -----  ----- -----  ----- -----

_RTC_WRITE_BYTE0/MCP79411             ----- -----  ----- -----  0010H 0010H
  +--> RTC_BITDLY/MCP79411

RTC_RESTART0/MCP79411                 ----- -----  ----- -----  ----- -----
  +--> RTC_BITDLY/MCP79411

RTC_READ_BYTE0/MCP79411               ----- -----  ----- -----  0010H 0011H
  +--> RTC_BITDLY/MCP79411

RTC_STOP0/MCP79411                    ----- -----  ----- -----  ----- -----
  +--> RTC_BITDLY/MCP79411

_RTC_WRITE_BYTE/MCP79411              ----- -----  ----- -----  ----- -----
  +--> RTC_START0/MCP79411
  +--> _RTC_WRITE_BYTE0/MCP79411
  +--> RTC_STOP0/MCP79411
  +--> _RTC_DELAY/MCP79411

_RTC_DELAY/MCP79411                   ----- -----  ----- -----  ----- -----

EEPROM_WRITEDEFAULT/MAIN              ----- -----  ----- -----  ----- -----
  +--> CHECK_PCB/MAIN
  +--> _EEPROM_WRITE_BYTE/EEPROM
  +--> _EEPROM_WRITE_WORD/EEPROM
  +--> RTC_ON/MAIN

LX51 LINKER/LOCATER V4.47a                                                            06/06/2015  09:44:34  PAGE 7


CHECK_PCB/MAIN                        ----- -----  ----- -----  ----- -----

_EEPROM_WRITE_WORD/EEPROM             ----- -----  ----- -----  ----- -----
  +--> _EEPROM_WRITE_BYTE/EEPROM

_EEPROM_READ_WORD/EEPROM              ----- -----  ----- -----  ----- -----
  +--> _EEPROM_READ_BYTE/EEPROM

DO_TC_TYPE/MAIN                       ----- -----  0064H 006BH  ----- -----
  +--> GET_KEY/MAIN
  +--> TEMP_READ/MAIN
  +--> READ_AD3421_VALUE/MAIN
  +--> _CHECK_TYPE_OFFSET/MAIN
  +--> _GET_K_SLOPE/TYPE_SLOPE
  +--> _GET_J_SLOPE/TYPE_SLOPE
  +--> _GET_T_SLOPE/TYPE_SLOPE
  +--> _GET_E_SLOPE/TYPE_SLOPE
  +--> _GET_R_SLOPE/TYPE_SLOPE
  +--> _GET_S_SLOPE/TYPE_SLOPE
  +--> _TEMP_F_TO_C/MAIN
  +--> RTC_READ_SET/MAIN
  +--> _LED_DISP/LED
  +--> _SET_MV/DAC6571_MV
  +--> _SET_MA/DAC6571_MA

GET_KEY/MAIN                          ----- -----  ----- -----  ----- -----

TEMP_READ/MAIN                        ----- -----  006CH 006DH  ----- -----
  +--> _DELAY/MAIN

_DELAY/MAIN                           ----- -----  ----- -----  ----- -----

READ_AD3421_VALUE/MAIN                ----- -----  006DH 006EH  ----- -----
  +--> GET_AD3421_VALUE/AD3421

GET_AD3421_VALUE/AD3421               ----- -----  ----- -----  0010H 0010H
  +--> AD3421_INIT/AD3421
  +--> _AD3421_WRITE_COM/AD3421
  +--> _AD3421_READ_COM/AD3421

_AD3421_WRITE_COM/AD3421              ----- -----  ----- -----  ----- -----
  +--> _AD3421_WRITE_BYTE/AD3421
  +--> AD3421_STOP/AD3421

_AD3421_WRITE_BYTE/AD3421             ----- -----  ----- -----  0011H 0011H
  +--> AD3421_START/AD3421
  +--> AD_BITDLY/AD3421

AD3421_START/AD3421                   ----- -----  ----- -----  ----- -----
  +--> AD_BITDLY/AD3421

AD3421_STOP/AD3421                    ----- -----  ----- -----  ----- -----
  +--> AD_BITDLY/AD3421

_AD3421_READ_COM/AD3421               ----- -----  ----- -----  ----- -----
  +--> _AD3421_WRITE_BYTE/AD3421
  +--> _AD3421_READ_BYTE/AD3421
  +--> AD3421_STOP/AD3421

_AD3421_READ_BYTE/AD3421              ----- -----  ----- -----  0011H 0012H
  +--> AD_BITDLY/AD3421

_CHECK_TYPE_OFFSET/MAIN               ----- -----  ----- -----  ----- -----

_GET_K_SLOPE/TYPE_SLOPE               ----- -----  006CH 006FH  ----- -----
LX51 LINKER/LOCATER V4.47a                                                            06/06/2015  09:44:34  PAGE 8



_GET_J_SLOPE/TYPE_SLOPE               ----- -----  006CH 006FH  ----- -----

_GET_T_SLOPE/TYPE_SLOPE               ----- -----  006CH 0071H  ----- -----

_GET_E_SLOPE/TYPE_SLOPE               ----- -----  006CH 006FH  ----- -----

_GET_R_SLOPE/TYPE_SLOPE               ----- -----  006CH 006FH  ----- -----

_GET_S_SLOPE/TYPE_SLOPE               ----- -----  006CH 006FH  ----- -----

_TEMP_F_TO_C/MAIN                     ----- -----  006CH 006FH  ----- -----

RTC_READ_SET/MAIN                     ----- -----  ----- -----  ----- -----
  +--> _RTC_READ_BYTE/MCP79411
  +--> _EEPROM_WRITE_BYTE/EEPROM

_LED_DISP/LED                         ----- -----  006CH 0073H  ----- -----
  +--> ?CO?LED
  +--> _LED_DATA_WRITE/LED

DO_RTD_TYPE/MAIN                      ----- -----  0064H 0065H  ----- -----
  +--> GET_KEY/MAIN
  +--> READ_AD3421_VALUE/MAIN
  +--> _GET_RTD_SLOPE/TYPE_SLOPE
  +--> _TEMP_F_TO_C/MAIN
  +--> _LED_DISP/LED
  +--> _SET_MV/DAC6571_MV
  +--> _SET_MA/DAC6571_MA
  +--> RTC_READ_SET/MAIN

_GET_RTD_SLOPE/TYPE_SLOPE             ----- -----  0066H 006BH  ----- -----

DO_MV_TYPE/MAIN                       ----- -----  0064H 0065H  ----- -----
  +--> GET_KEY/MAIN
  +--> READ_AD3421_VALUE/MAIN
  +--> _LED_DISP/LED
  +--> _SET_MV/DAC6571_MV
  +--> _SET_MA/DAC6571_MA
  +--> RTC_READ_SET/MAIN

DO_MA_TYPE/MAIN                       ----- -----  0064H 0065H  ----- -----
  +--> GET_KEY/MAIN
  +--> READ_AD3421_VALUE/MAIN
  +--> _LED_DISP/LED
  +--> _SET_MV/DAC6571_MV
  +--> _SET_MA/DAC6571_MA
  +--> RTC_READ_SET/MAIN

DO_SETUP_TYPE/MAIN                    ----- -----  0064H 006CH  ----- -----
  +--> _SETUP_LED_DISP/LED
  +--> GET_KEY/MAIN
  +--> READ_AD3421_VALUE/MAIN
  +--> _EEPROM_WRITE_BYTE/EEPROM
  +--> _DELAY/MAIN
  +--> _EEPROM_WRITE_WORD/EEPROM
  +--> _RTC_WRITE_BYTE/MCP79411
  +--> CHECK_PCB/MAIN

_SETUP_LED_DISP/LED                   ----- -----  006DH 0078H  ----- -----
  +--> ?CO?LED
  +--> _LED_DATA_WRITE/LED

DO_RESET_TYPE/MAIN                    ----- -----  ----- -----  ----- -----
  +--> EEPROM_WRITEDEFAULT/MAIN
LX51 LINKER/LOCATER V4.47a                                                            06/06/2015  09:44:34  PAGE 9


  +--> LED_FILL/LED
  +--> _EEPROM_READ_BYTE/EEPROM
  +--> _EEPROM_READ_WORD/EEPROM

?C_INITSEG                            ----- -----  ----- -----  ----- -----



PUBLIC SYMBOLS OF MODULE:  TC_521 (MAIN)


      VALUE       CLASS    TYPE      PUBLIC SYMBOL NAME
      =================================================
      00000079H   DATA     BYTE      ?_LED_DATA_Write?BYTE
      01003EA6H   CODE     ---       ?C?CASTF
      00000000H   NUMBER   ---       ?C?CODESEG
      01003E72H   CODE     ---       ?C?FCASTC
      01003E6DH   CODE     ---       ?C?FCASTI
      01003E68H   CODE     ---       ?C?FCASTL
      01003CD7H   CODE     ---       ?C?FPADD
      01003DCBH   CODE     ---       ?C?FPDIV
      01003EDDH   CODE     ---       ?C?FPGETOPN2
      01003F12H   CODE     ---       ?C?FPNANRESULT
      01003F1CH   CODE     ---       ?C?FPOVERFLOW
      01003EF4H   CODE     ---       ?C?FPRESULT
      01003F08H   CODE     ---       ?C?FPRESULT2
      01003CD3H   CODE     ---       ?C?FPSUB
      01003F19H   CODE     ---       ?C?FPUNDERFLOW
      01003F27H   CODE     ---       ?C?IMUL
      01003F8EH   CODE     ---       ?C?LNEG
      01003F9CH   CODE     ---       ?C?SLCMP
      01005712H   CODE     ---       ?C?SLDIV
      01003F39H   CODE     ---       ?C?UIDIV
      01003FEEH   CODE     ---       ?C?ULDIV
      00000000H   NUMBER   ---       ?C?XDATASEG
      010054ADH   CODE     ---       ?C_START
      01000000H   CODE     ---       ?C_STARTUP
      01005799H   CODE     ---       _AD3421_read_byte
      010059C3H   CODE     ---       _AD3421_read_com
      0100575DH   CODE     ---       _AD3421_write_byte
      01005C5AH   CODE     ---       _AD3421_write_com
      01005C8DH   CODE     ---       _BitDly
      01005B85H   CODE     ---       _Buzzer
      01004DDDH   CODE     ---       _Check_Type_Offset
      0100588EH   CODE     ---       _DAC6571mA_write_byte
      01005852H   CODE     ---       _DAC6571mV_write_byte
*DEL*:00000000H   CODE     ---       _DAY_LED_Disp
      01005AF7H   CODE     ---       _delay
      01005B5AH   CODE     ---       _EEPROM_Delay
      01005A13H   CODE     ---       _EEPROM_read_byte
      01005AD7H   CODE     ---       _EEPROM_read_word
      01005A3AH   CODE     ---       _EEPROM_write_byte
      010057DAH   CODE     ---       _EEPROM_write_byte0
      01005BCDH   CODE     ---       _EEPROM_write_word
      01000BC3H   CODE     ---       _Get_E_Slope
      01003484H   CODE     ---       _Get_J_Slope
      01001425H   CODE     ---       _Get_K_Slope
      010043CFH   CODE     ---       _Get_R_Slope
      01002FE7H   CODE     ---       _Get_RTD_Slope
      01004080H   CODE     ---       _Get_S_Slope
      01002A77H   CODE     ---       _Get_T_Slope
      010051A7H   CODE     ---       _LED_DATA_Write
      01001C02H   CODE     ---       _LED_Disp
      0000000EH   DATA     BYTE      _mA_ack
*DEL*:00000000H   CODE     ---       _mA_Delay
LX51 LINKER/LOCATER V4.47a                                                            06/06/2015  09:44:34  PAGE 10


      01005CA9H   CODE     ---       _mABitDly
      0000000DH   DATA     BYTE      _mV_ack
*DEL*:00000000H   CODE     ---       _mV_Delay
      01005CA2H   CODE     ---       _mVBitDly
      01005BDEH   CODE     ---       _RTC_Delay
      01005A5DH   CODE     ---       _RTC_read_byte
      01005A9DH   CODE     ---       _RTC_write_byte
      01005906H   CODE     ---       _RTC_write_byte0
      0100593CH   CODE     ---       _Set_mA
      010059EBH   CODE     ---       _Set_mV
      01002392H   CODE     ---       _SETUP_LED_Disp
      0100526EH   CODE     ---       _TEMP_F_TO_C
*SFR* 000000D0H.6 DATA     BIT       AC
*SFR* 000000E0H   DATA     BYTE      ACC
      01005ABBH   CODE     ---       AD3421_Init
      01005B97H   CODE     ---       AD3421_start
      01005C65H   CODE     ---       AD3421_stop
      0000000BH   DATA     BYTE      ad_ack
      01005C94H   CODE     ---       AD_BitDly
      0000002DH   DATA     BYTE      AD_Hi
      00000033H   DATA     BYTE      AD_Lo
      00000021H   DATA     BYTE      AD_Mid
*SFR* 000000A0H.1 DATA     BIT       AD_SCL
*SFR* 000000A0H   DATA     BIT       AD_SDA
      00000059H   DATA     BYTE      AD_Status
*SFR* 000000C6H   DATA     BYTE      ADCH
*SFR* 000000BEH   DATA     BYTE      ADCL
*SFR* 000000C5H   DATA     BYTE      ADCON
*SFR* 000000C5H   DATA     BYTE      ADCTL
*SFR* 000000C6H   DATA     BYTE      ADCV
*SFR* 000000BEH   DATA     BYTE      ADCVL
      00000022H   DATA     BYTE      ADD_COD
*SFR* 00000090H   DATA     BIT       AIN0
*SFR* 00000090H.1 DATA     BIT       AIN1
*SFR* 00000090H.2 DATA     BIT       AIN2
*SFR* 00000090H.3 DATA     BIT       AIN3
*SFR* 00000090H.4 DATA     BIT       AIN4
*SFR* 00000090H.5 DATA     BIT       AIN5
*SFR* 00000090H.6 DATA     BIT       AIN6
*SFR* 00000090H.7 DATA     BIT       AIN7
      00000048H   DATA     WORD      alarm_Hi_set
      0000004AH   DATA     WORD      alarm_Low_set
*SFR* 000000E8H.6 DATA     BIT       ALE
*SFR* 000000A0H.2 DATA     BIT       ALL_SDA
*SFR* 000000ADH   DATA     BYTE      AUXIE
*SFR* 000000AEH   DATA     BYTE      AUXIP
*SFR* 000000AFH   DATA     BYTE      AUXIPH
*SFR* 0000008EH   DATA     BYTE      AUXR
*SFR* 0000008EH   DATA     BYTE      AUXR0
*SFR* 000000A2H   DATA     BYTE      AUXR1
*SFR* 000000A6H   DATA     BYTE      AUXR2
      00000008H   DATA     BYTE      AV_COD
*SFR* 000000F0H   DATA     BYTE      B
*SFR* 000000B0H.4 DATA     BIT       BEEP
*SFR* 000000B0H.4 DATA     BIT       BEEP_OUT
      0000005AH   DATA     BYTE      C_F_Type
*SFR* 000000C8H.1 DATA     BIT       C_T2
      00000034H   DATA     BYTE      CAIT
*SFR* 000000FAH   DATA     BYTE      CCAP0H
*SFR* 000000EAH   DATA     BYTE      CCAP0L
*SFR* 000000FBH   DATA     BYTE      CCAP1H
*SFR* 000000EBH   DATA     BYTE      CCAP1L
*SFR* 000000FCH   DATA     BYTE      CCAP2H
*SFR* 000000ECH   DATA     BYTE      CCAP2L
*SFR* 000000FDH   DATA     BYTE      CCAP3H
LX51 LINKER/LOCATER V4.47a                                                            06/06/2015  09:44:34  PAGE 11


*SFR* 000000EDH   DATA     BYTE      CCAP3L
*SFR* 000000FEH   DATA     BYTE      CCAP4H
*SFR* 000000EEH   DATA     BYTE      CCAP4L
*SFR* 000000FFH   DATA     BYTE      CCAP5H
*SFR* 000000EFH   DATA     BYTE      CCAP5L
*SFR* 000000DAH   DATA     BYTE      CCAPM0
*SFR* 000000DBH   DATA     BYTE      CCAPM1
*SFR* 000000DCH   DATA     BYTE      CCAPM2
*SFR* 000000DDH   DATA     BYTE      CCAPM3
*SFR* 000000DEH   DATA     BYTE      CCAPM4
*SFR* 000000DFH   DATA     BYTE      CCAPM5
*SFR* 000000D8H   DATA     BIT       CCF0
*SFR* 000000D8H.1 DATA     BIT       CCF1
*SFR* 000000D8H.2 DATA     BIT       CCF2
*SFR* 000000D8H.3 DATA     BIT       CCF3
*SFR* 000000D8H.4 DATA     BIT       CCF4
*SFR* 000000D8H.5 DATA     BIT       CCF5
*SFR* 000000D8H   DATA     BYTE      CCON
*SFR* 00000090H.2 DATA     BIT       CEX0
*SFR* 00000090H.3 DATA     BIT       CEX1
*SFR* 00000090H.4 DATA     BIT       CEX2
*SFR* 00000090H.5 DATA     BIT       CEX3
*SFR* 00000090H.6 DATA     BIT       CEX4
*SFR* 00000090H.7 DATA     BIT       CEX5
*SFR* 000000D8H.7 DATA     BIT       CF
*SFR* 000000F9H   DATA     BYTE      CH
      010054F2H   CODE     ---       Check_PCB
*SFR* 000000C8H   DATA     BIT       CKO
*SFR* 000000E9H   DATA     BYTE      CL
*SFR* 000000D9H   DATA     BYTE      CMOD
*SFR* 000000C8H   DATA     BIT       CP_RL2
*SFR* 000000D8H.6 DATA     BIT       CR
*SFR* 000000D0H.7 DATA     BIT       CY
*DEL*:00000000H   CODE     ---       DAC6571mA_Init
      01005BBBH   CODE     ---       DAC6571mA_start
      01005C79H   CODE     ---       DAC6571mA_stop
*DEL*:00000000H   CODE     ---       DAC6571mV_Init
      01005BA9H   CODE     ---       DAC6571mV_start
      01005C6FH   CODE     ---       DAC6571mV_stop
      0000008CH   IDATA    ---       Data_Value
      00000037H   DATA     WORD      Disp_year
      01004AFBH   CODE     ---       DO_mA_TYPE
      01004995H   CODE     ---       DO_mV_TYPE
      01004FFEH   CODE     ---       DO_RESET_TYPE
      01004C61H   CODE     ---       DO_RTD_TYPE
      01000026H   CODE     ---       DO_SETUP_TYPE
      0100391FH   CODE     ---       DO_TC_TYPE
*SFR* 00000080H.7 DATA     BIT       DOWN_KEY
*SFR* 00000083H   DATA     BYTE      DPH
*SFR* 00000082H   DATA     BYTE      DPL
      02000000H   XDATA    ---       E_Slope
*SFR* 000000A8H.7 DATA     BIT       EA
*SFR* 00000090H.1 DATA     BIT       ECI
*SFR* 000000A0H.3 DATA     BIT       EEP_SCL
      0000000CH   DATA     BYTE      EEPROM_ack
      01005C9BH   CODE     ---       EEPROM_BitDly
      01005A7FH   CODE     ---       EEPROM_Init
      01005816H   CODE     ---       EEPROM_read_byte0
      01005B71H   CODE     ---       EEPROM_restart0
*SFR* 000000A0H.3 DATA     BIT       EEPROM_SCL
*SFR* 000000A0H.2 DATA     BIT       EEPROM_SDA
      01005C1FH   CODE     ---       EEPROM_start0
      01005C2EH   CODE     ---       EEPROM_stop0
      01004F20H   CODE     ---       EEPROM_WriteDefault
*SFR* 000000ADH   DATA     BYTE      EIE1
LX51 LINKER/LOCATER V4.47a                                                            06/06/2015  09:44:34  PAGE 12


*SFR* 000000AFH   DATA     BYTE      EIP1H
*SFR* 000000AEH   DATA     BYTE      EIP1L
*SFR* 000000A8H.4 DATA     BIT       ES
*SFR* 000000A8H.4 DATA     BIT       ES0
*SFR* 000000A8H.1 DATA     BIT       ET0
*SFR* 000000A8H.3 DATA     BIT       ET1
*SFR* 000000A8H.5 DATA     BIT       ET2
*SFR* 00000097H   DATA     BYTE      EVRCR
*SFR* 000000A8H   DATA     BIT       EX0
*SFR* 000000A8H.2 DATA     BIT       EX1
*SFR* 000000C0H.2 DATA     BIT       EX2
*SFR* 000000C0H.6 DATA     BIT       EX3
      01000006H   CODE     ---       ex_int0
*SFR* 000000C8H.3 DATA     BIT       EXEN2
*SFR* 000000C8H.6 DATA     BIT       EXF2
*SFR* 000000D0H.5 DATA     BIT       F0
*SFR* 000000D0H.1 DATA     BIT       F1
      00000020H.0 BIT      BIT       f_half_sec
*SFR* 00000098H.7 DATA     BIT       FE
      0000002CH   DATA     BYTE      Func_Type
*SFR* 000000B0H.2 DATA     BIT       FUNCTION_KEY
      01005B42H   CODE     ---       Get_AD3421_Value
      010055ECH   CODE     ---       Get_Key
*SFR* 000000A8H.6 DATA     BIT       GF4
*SFR* 000000A8H   DATA     BYTE      IE
*SFR* 00000088H.1 DATA     BIT       IE0
*SFR* 00000088H.3 DATA     BIT       IE1
*SFR* 000000C0H.1 DATA     BIT       IE2
*SFR* 000000C0H.5 DATA     BIT       IE3
*SFR* 000000E3H   DATA     BYTE      IFADRH
*SFR* 000000E4H   DATA     BYTE      IFADRL
*SFR* 000000E2H   DATA     BYTE      IFD
*SFR* 000000E5H   DATA     BYTE      IFMT
      01005B0EH   CODE     ---       InitUart
*SFR* 000000B0H.2 DATA     BIT       INT0
*DEL*:00000000H   CODE     ---       INT0_Init
*SFR* 000000B0H.3 DATA     BIT       INT1
*SFR* 000000E8H.3 DATA     BIT       INT2
*SFR* 000000E8H.2 DATA     BIT       INT3
*SFR* 000000B8H   DATA     BYTE      IP
*SFR* 000000B7H   DATA     BYTE      IP0H
*SFR* 000000B8H   DATA     BYTE      IP0L
*SFR* 000000B7H   DATA     BYTE      IPH
*SFR* 000000E7H   DATA     BYTE      ISPCR
*SFR* 00000088H   DATA     BIT       IT0
*SFR* 00000088H.2 DATA     BIT       IT1
*SFR* 000000C0H   DATA     BIT       IT2
*SFR* 000000C0H.3 DATA     BIT       IT2H
*SFR* 000000C0H.4 DATA     BIT       IT3
*SFR* 000000C0H.7 DATA     BIT       IT3H
      0200000CH   XDATA    ---       J_Slope
      02000015H   XDATA    ---       K_Slope
*SFR* 000000D6H   DATA     BYTE      KBCON
*SFR* 000000A0H   DATA     BIT       KBI0
*SFR* 000000A0H.1 DATA     BIT       KBI1
*SFR* 000000A0H.2 DATA     BIT       KBI2
*SFR* 000000A0H.3 DATA     BIT       KBI3
*SFR* 000000A0H.4 DATA     BIT       KBI4
*SFR* 000000A0H.5 DATA     BIT       KBI5
*SFR* 000000A0H.6 DATA     BIT       KBI6
*SFR* 000000A0H.7 DATA     BIT       KBI7
*SFR* 000000D7H   DATA     BYTE      KBMASK
*SFR* 000000D5H   DATA     BYTE      KBPATN
      00000042H   DATA     BYTE      key
      00000027H   DATA     BYTE      Key_backup
LX51 LINKER/LOCATER V4.47a                                                            06/06/2015  09:44:34  PAGE 13


      0000004EH   DATA     BYTE      key_bak
*SFR* 00000090H.1 DATA     BIT       LED1_LE
*SFR* 00000090H.2 DATA     BIT       LED1_SCL
*SFR* 00000090H   DATA     BIT       LED1_SDA
*SFR* 00000090H.5 DATA     BIT       LED2_LE
*SFR* 00000090H.4 DATA     BIT       LED2_SCL
*SFR* 00000090H.3 DATA     BIT       LED2_SDA
*DEL*:00000000H   CODE     ---       LED_Cls
      01005B28H   CODE     ---       LED_Fill
      0100599AH   CODE     ---       LED_Init
*SFR* 00000080H.3 DATA     BIT       mA_C
*SFR* 00000080H.5 DATA     BIT       mA_OUT
*SFR* 000000A0H.4 DATA     BIT       mA_SCL
*SFR* 000000A0H.2 DATA     BIT       mA_SDA
      0000002AH   DATA     WORD      mA_Span_offset
      00000025H   DATA     WORD      mA_Span_Value
      00000031H   DATA     WORD      mA_Zero_offset
      0100471DH   CODE     ---       main
      0000003BH   DATA     BYTE      MAIN_SW
*SFR* 00000080H.2 DATA     BIT       mV_C
*SFR* 00000080H.4 DATA     BIT       mV_OUT
*SFR* 000000A0H.4 DATA     BIT       mV_SCL
*SFR* 000000A0H.2 DATA     BIT       mV_SDA
      00000035H   DATA     WORD      mV_Span_offset
      0000002EH   DATA     WORD      mV_Span_Value
      0000003CH   DATA     WORD      mV_Zero_offset
      00000055H   DATA     BYTE      n_code
      00000047H   DATA     BYTE      NG_COD
      0000000AH   DATA     BYTE      ng_flog
*SFR* 00000090H.7 DATA     BIT       non3
*SFR* 000000A0H.6 DATA     BIT       NONE_4
*SFR* 000000A0H.7 DATA     BIT       NONE_5
*SFR* 000000B0H.6 DATA     BIT       NONE_6
*SFR* 000000B0H.7 DATA     BIT       NONE_7
      00000009H   DATA     BYTE      NP_COD
*SFR* 000000B0H.3 DATA     BIT       OFFSET_KEY
*SFR* 000000A0H.4 DATA     BIT       OUT_SCL
*SFR* 000000D0H.2 DATA     BIT       OV
      0000005EH   DATA     BYTE      OVER_COD
*SFR* 000000D0H   DATA     BIT       P
*SFR* 00000080H   DATA     BYTE      P0
*SFR* 00000080H   DATA     BIT       P00
*SFR* 00000080H.1 DATA     BIT       P01
*SFR* 00000080H.2 DATA     BIT       P02
*SFR* 00000080H.3 DATA     BIT       P03
*SFR* 00000080H.4 DATA     BIT       P04
*SFR* 00000080H.5 DATA     BIT       P05
*SFR* 00000080H.6 DATA     BIT       P06
*SFR* 00000080H.7 DATA     BIT       P07
*SFR* 00000093H   DATA     BYTE      P0M0
*SFR* 00000094H   DATA     BYTE      P0M1
*SFR* 00000090H   DATA     BYTE      P1
*SFR* 00000090H   DATA     BIT       P10
*SFR* 00000090H.1 DATA     BIT       P11
*SFR* 00000090H.2 DATA     BIT       P12
*SFR* 00000090H.3 DATA     BIT       P13
*SFR* 00000090H.4 DATA     BIT       P14
*SFR* 00000090H.5 DATA     BIT       P15
*SFR* 00000090H.6 DATA     BIT       P16
*SFR* 00000090H.7 DATA     BIT       P17
*SFR* 00000091H   DATA     BYTE      P1M0
*SFR* 00000092H   DATA     BYTE      P1M1
*SFR* 000000A0H   DATA     BYTE      P2
*SFR* 000000A0H   DATA     BIT       P20
*SFR* 000000A0H.1 DATA     BIT       P21
LX51 LINKER/LOCATER V4.47a                                                            06/06/2015  09:44:34  PAGE 14


*SFR* 000000A0H.2 DATA     BIT       P22
*SFR* 000000A0H.3 DATA     BIT       P23
*SFR* 000000A0H.4 DATA     BIT       P24
*SFR* 000000A0H.5 DATA     BIT       P25
*SFR* 000000A0H.6 DATA     BIT       P26
*SFR* 000000A0H.7 DATA     BIT       P27
*SFR* 00000095H   DATA     BYTE      P2M0
*SFR* 00000096H   DATA     BYTE      P2M1
*SFR* 000000B0H   DATA     BYTE      P3
*SFR* 000000B0H   DATA     BIT       P30
*SFR* 000000B0H.1 DATA     BIT       P31
*SFR* 000000B0H.2 DATA     BIT       P32
*SFR* 000000B0H.3 DATA     BIT       P33
*SFR* 000000B0H.4 DATA     BIT       P34
*SFR* 000000B0H.5 DATA     BIT       P35
*SFR* 000000B0H.6 DATA     BIT       P36
*SFR* 000000B0H.7 DATA     BIT       P37
*SFR* 000000B1H   DATA     BYTE      P3M0
*SFR* 000000B2H   DATA     BYTE      P3M1
*SFR* 000000E8H   DATA     BYTE      P4
*SFR* 000000E8H   DATA     BIT       P40
*SFR* 000000E8H.1 DATA     BIT       P41
*SFR* 000000E8H.2 DATA     BIT       P42
*SFR* 000000E8H.3 DATA     BIT       P43
*SFR* 000000E8H.4 DATA     BIT       P44
*SFR* 000000E8H.5 DATA     BIT       P45
*SFR* 000000E8H.6 DATA     BIT       P46
*SFR* 000000E8H.7 DATA     BIT       P47
*SFR* 000000B3H   DATA     BYTE      P4M0
*SFR* 000000B4H   DATA     BYTE      P4M1
*SFR* 000000F8H   DATA     BYTE      P5
*SFR* 000000F8H   DATA     BIT       P50
*SFR* 000000F8H.1 DATA     BIT       P51
*SFR* 000000F8H.2 DATA     BIT       P52
*SFR* 000000F8H.3 DATA     BIT       P53
*SFR* 000000B5H   DATA     BYTE      P5M0
*SFR* 000000B6H   DATA     BYTE      P5M1
*SFR* 000000C8H   DATA     BYTE      P6
*SFR* 000000C8H   DATA     BIT       P60
*SFR* 000000C8H.1 DATA     BIT       P61
*SFR* 000000F2H   DATA     BYTE      PCAPWM0
*SFR* 000000F3H   DATA     BYTE      PCAPWM1
*SFR* 000000F4H   DATA     BYTE      PCAPWM2
*SFR* 000000F5H   DATA     BYTE      PCAPWM3
*SFR* 000000F6H   DATA     BYTE      PCAPWM4
*SFR* 000000F7H   DATA     BYTE      PCAPWM5
      00000041H   DATA     BYTE      PCB_SETUP
*SFR* 00000087H   DATA     BYTE      PCON
*SFR* 00000087H   DATA     BYTE      PCON0
*SFR* 00000097H   DATA     BYTE      PCON1
*SFR* 000000C7H   DATA     BYTE      PCON2
      01005CCCH   CONST    ---       Point_tab_LED
*DEL*:00000000H   CODE     ---       PORT_Init
*SFR* 000000B8H.4 DATA     BIT       PS
*SFR* 000000B8H.4 DATA     BIT       PSL
*SFR* 000000D0H   DATA     BYTE      PSW
*SFR* 000000B8H.1 DATA     BIT       PT0
*SFR* 000000B8H.1 DATA     BIT       PT0L
*SFR* 000000B8H.3 DATA     BIT       PT1
*SFR* 000000B8H.3 DATA     BIT       PT1L
*SFR* 000000B8H.5 DATA     BIT       PT2
*SFR* 000000B8H.5 DATA     BIT       PT2L
*SFR* 000000B8H   DATA     BIT       PX0
*SFR* 000000B8H   DATA     BIT       PX0L
*SFR* 000000B8H.2 DATA     BIT       PX1
LX51 LINKER/LOCATER V4.47a                                                            06/06/2015  09:44:34  PAGE 15


*SFR* 000000B8H.2 DATA     BIT       PX1L
*SFR* 000000C0H.3 DATA     BIT       PX2
*SFR* 000000B8H.6 DATA     BIT       PX2L
*SFR* 000000C0H.7 DATA     BIT       PX3
*SFR* 000000B8H.7 DATA     BIT       PX3L
*SFR* 000000B0H.5 DATA     BIT       R485_DE_RE
*SFR* 000000B0H   DATA     BIT       R485_RX
*SFR* 000000B0H.1 DATA     BIT       R485_TX
      02000020H   XDATA    ---       R_Slope
*SFR* 00000098H.2 DATA     BIT       RB8
*SFR* 00000098H.2 DATA     BIT       RB80
*SFR* 00000098H.2 DATA     BIT       RB81
*SFR* 000000CBH   DATA     BYTE      RCAP2H
*SFR* 000000CAH   DATA     BYTE      RCAP2L
*SFR* 000000C8H.5 DATA     BIT       RCLK
*SFR* 000000B0H.7 DATA     BIT       RD
      01005327H   CODE     ---       Read_AD3421_Value
      00000040H   DATA     BYTE      ReceiveDate
      00000020H.2 BIT      BIT       ReceiveFlag
*SFR* 00000098H.4 DATA     BIT       REN
*SFR* 00000098H.4 DATA     BIT       REN0
*SFR* 00000098H.4 DATA     BIT       REN1
*SFR* 00000098H   DATA     BIT       RI
*SFR* 00000098H   DATA     BIT       RI0
*SFR* 00000098H   DATA     BIT       RI1
*SFR* 000000D0H.3 DATA     BIT       RS0
*SFR* 000000D0H.4 DATA     BIT       RS1
      0000000FH   DATA     BYTE      RTC_ack
      01005C53H   CODE     ---       RTC_BitDly
*DEL*:00000000H   CODE     ---       RTC_Init
      010056BDH   CODE     ---       RTC_ON
      010058CAH   CODE     ---       RTC_read_byte0
      0100557BH   CODE     ---       RTC_READ_SET
      0100000EH   CODE     ---       RTC_restart0
*SFR* 00000090H.6 DATA     BIT       RTC_SCL
*SFR* 000000A0H.2 DATA     BIT       RTC_SDA
      01005C3DH   CODE     ---       RTC_start0
      01005C83H   CODE     ---       RTC_stop0
*DEL*:00000000H   CODE     ---       RTC_WRITE_SET
*SFR* 00000080H.1 DATA     BIT       RTD_C
      0200004AH   XDATA    ---       RTD_Slope
      00000045H   DATA     WORD      RTD_Span_offset
      0000003EH   DATA     WORD      RTD_Span_Value
      0000004CH   DATA     WORD      RTD_Zero_offset
*SFR* 000000B0H   DATA     BIT       RXD
*SFR* 0000009AH   DATA     BYTE      S1BRT
*SFR* 0000009AH   DATA     BYTE      S2BUF
*SFR* 00000090H.2 DATA     BIT       S2RXD
*SFR* 00000090H.3 DATA     BIT       S2TXD
      02000030H   XDATA    ---       S_Slope
*SFR* 000000A9H   DATA     BYTE      SADDR
*SFR* 000000B9H   DATA     BYTE      SADEN
*SFR* 00000099H   DATA     BYTE      SBUF
*SFR* 00000099H   DATA     BYTE      SBUF0
*SFR* 00000099H   DATA     BYTE      SBUF1
*SFR* 0000009AH   DATA     BYTE      SCFG
*SFR* 000000E6H   DATA     BYTE      SCMD
*SFR* 00000098H   DATA     BYTE      SCON
*SFR* 00000098H   DATA     BYTE      SCON0
*SFR* 00000098H   DATA     BYTE      SCON1
      01005C0FH   CODE     ---       serial
*SFR* 000000ACH   DATA     BYTE      SFRPI
*SFR* 00000098H.7 DATA     BIT       SM0
*SFR* 00000098H.7 DATA     BIT       SM00
*SFR* 00000098H.7 DATA     BIT       SM01
LX51 LINKER/LOCATER V4.47a                                                            06/06/2015  09:44:34  PAGE 16


*SFR* 00000098H.6 DATA     BIT       SM1
*SFR* 00000098H.6 DATA     BIT       SM10
*SFR* 00000098H.6 DATA     BIT       SM11
*SFR* 00000098H.5 DATA     BIT       SM2
*SFR* 00000098H.5 DATA     BIT       SM20
*SFR* 00000098H.5 DATA     BIT       SM21
      00000080H   IDATA    ---       Soft_Timer
      0000003AH   DATA     BYTE      Soft_Timer_Enable
*SFR* 00000081H   DATA     BYTE      SP
*SFR* 00000085H   DATA     BYTE      SPCON
*SFR* 00000085H   DATA     BYTE      SPCTL
*SFR* 00000086H   DATA     BYTE      SPDAT
*SFR* 00000090H.7 DATA     BIT       SPI_CLK
*SFR* 00000090H.6 DATA     BIT       SPI_MISO
*SFR* 00000090H.5 DATA     BIT       SPI_MOSI
*SFR* 00000090H.4 DATA     BIT       SPI_SS
*SFR* 00000085H   DATA     BYTE      SPICON
*SFR* 00000085H   DATA     BYTE      SPICTL
*SFR* 00000086H   DATA     BYTE      SPIDAT
*SFR* 00000084H   DATA     BYTE      SPISTAT
*SFR* 00000084H   DATA     BYTE      SPSTAT
*SFR* 0000008FH   DATA     BYTE      STRETCH
*SFR* 000000B0H.4 DATA     BIT       T0
      00000089H   IDATA    BYTE      T0_cnt
      01005BEFH   CODE     ---       T0_Init
*SFR* 000000B0H.4 DATA     BIT       T0CKO
*SFR* 000000B0H.5 DATA     BIT       T1
      0000008AH   IDATA    BYTE      T1_cnt
      01005BFFH   CODE     ---       T1_Init
*SFR* 000000B0H.5 DATA     BIT       T1CKO
*SFR* 00000090H   DATA     BIT       T2
      0000008BH   IDATA    BYTE      T2_cnt
*DEL*:00000000H   CODE     ---       T2_Init
*SFR* 000000C8H   DATA     BYTE      T2CON
*SFR* 00000090H.1 DATA     BIT       T2EX
*SFR* 000000C9H   DATA     BYTE      T2MOD
      000000AAH   IDATA    BYTE      t_code
      02000040H   XDATA    ---       T_Slope
      01005CB0H   CONST    ---       tab_LED
*SFR* 00000098H.3 DATA     BIT       TB8
*SFR* 00000098H.3 DATA     BIT       TB80
*SFR* 00000098H.3 DATA     BIT       TB81
*SFR* 00000080H   DATA     BIT       TC_C
      0000005FH   DATA     WORD      TC_Span_offset
      00000057H   DATA     WORD      TC_Span_Value
      00000030H   DATA     BYTE      TC_Type
      00000028H   DATA     WORD      TC_Zero_offset
*SFR* 000000C8H.4 DATA     BIT       TCLK
*SFR* 00000088H   DATA     BYTE      TCON
*SFR* 000000A0H.5 DATA     BIT       TEMP
      000000ABH   IDATA    BYTE      Temp_Flag
      00000053H   DATA     WORD      Temp_m
      00000023H   DATA     WORD      Temp_offset
      010053D3H   CODE     ---       Temp_Read
      0000004FH   DATA     WORD      Temp_sp
*SFR* 00000088H.5 DATA     BIT       TF0
*SFR* 00000088H.7 DATA     BIT       TF1
*SFR* 000000C8H.7 DATA     BIT       TF2
*SFR* 0000008CH   DATA     BYTE      TH0
*SFR* 0000008DH   DATA     BYTE      TH1
*SFR* 000000CDH   DATA     BYTE      TH2
*SFR* 00000098H.1 DATA     BIT       TI
*SFR* 00000098H.1 DATA     BIT       TI0
*SFR* 00000098H.1 DATA     BIT       TI1
      0100596EH   CODE     ---       time0
LX51 LINKER/LOCATER V4.47a                                                            06/06/2015  09:44:34  PAGE 17


      0100565AH   CODE     ---       time1
*SFR* 0000008AH   DATA     BYTE      TL0
*SFR* 0000008BH   DATA     BYTE      TL1
*SFR* 000000CCH   DATA     BYTE      TL2
*SFR* 00000089H   DATA     BYTE      TMOD
*SFR* 00000088H.4 DATA     BIT       TR0
*SFR* 00000088H.6 DATA     BIT       TR1
*SFR* 000000C8H.2 DATA     BIT       TR2
      00000020H.1 BIT      BIT       tran
*SFR* 00000097H   DATA     BYTE      TSTWD
*SFR* 000000B0H.1 DATA     BIT       TXD
*SFR* 00000080H.6 DATA     BIT       UP_KEY
      0000005BH   DATA     BYTE      use_day
      00000043H   DATA     WORD      use_flag
      0000005CH   DATA     BYTE      use_hour
      0000005DH   DATA     BYTE      use_min
      00000061H   DATA     BYTE      use_mon
      00000056H   DATA     BYTE      use_sec
      00000051H   DATA     BYTE      use_week
      00000052H   DATA     BYTE      use_year
*SFR* 000000A0H.1 DATA     BIT       Value_SCL
*SFR* 000000A0H   DATA     BIT       Value_SDA
*DEL*:00000000H   CODE     ---       Volt_Ctrl
*SFR* 000000E1H   DATA     BYTE      WDTCR
      00000039H   DATA     BYTE      Work_Type
*SFR* 000000B0H.6 DATA     BIT       WR
*SFR* 000000C0H   DATA     BYTE      XICON
*SFR* 000000C8H.1 DATA     BIT       XIN
*SFR* 000000C8H   DATA     BIT       XOUT
      00000020H.3 BIT      BIT       Zero_f



SYMBOL TABLE OF MODULE:  TC_521 (MAIN)

      VALUE       REP       CLASS    TYPE      SYMBOL NAME
      ====================================================
      ---         MODULE    ---      ---       MAIN
      00000061H   PUBLIC    DATA     BYTE      use_mon
      0000005FH   PUBLIC    DATA     WORD      TC_Span_offset
      0000005EH   PUBLIC    DATA     BYTE      OVER_COD
      000000ABH   PUBLIC    IDATA    BYTE      Temp_Flag
      0000005DH   PUBLIC    DATA     BYTE      use_min
      000000AAH   PUBLIC    IDATA    BYTE      t_code
      0000005CH   PUBLIC    DATA     BYTE      use_hour
      0000005BH   PUBLIC    DATA     BYTE      use_day
      0000005AH   PUBLIC    DATA     BYTE      C_F_Type
      00000059H   PUBLIC    DATA     BYTE      AD_Status
      00000057H   PUBLIC    DATA     WORD      TC_Span_Value
      00000056H   PUBLIC    DATA     BYTE      use_sec
      00000055H   PUBLIC    DATA     BYTE      n_code
      00000020H.3 PUBLIC    BIT      BIT       Zero_f
      00000053H   PUBLIC    DATA     WORD      Temp_m
      00000052H   PUBLIC    DATA     BYTE      use_year
      00000051H   PUBLIC    DATA     BYTE      use_week
      0000008CH   PUBLIC    IDATA    ---       Data_Value
      0000004FH   PUBLIC    DATA     WORD      Temp_sp
      0000004EH   PUBLIC    DATA     BYTE      key_bak
      0000004CH   PUBLIC    DATA     WORD      RTD_Zero_offset
      0000004AH   PUBLIC    DATA     WORD      alarm_Low_set
      00000048H   PUBLIC    DATA     WORD      alarm_Hi_set
      00000047H   PUBLIC    DATA     BYTE      NG_COD
      00000045H   PUBLIC    DATA     WORD      RTD_Span_offset
      00000043H   PUBLIC    DATA     WORD      use_flag
      00000042H   PUBLIC    DATA     BYTE      key
LX51 LINKER/LOCATER V4.47a                                                            06/06/2015  09:44:34  PAGE 18


      00000041H   PUBLIC    DATA     BYTE      PCB_SETUP
      00000040H   PUBLIC    DATA     BYTE      ReceiveDate
      00000020H.2 PUBLIC    BIT      BIT       ReceiveFlag
      0000003EH   PUBLIC    DATA     WORD      RTD_Span_Value
      00000020H.1 PUBLIC    BIT      BIT       tran
      0000003CH   PUBLIC    DATA     WORD      mV_Zero_offset
      0000003BH   PUBLIC    DATA     BYTE      MAIN_SW
      0000003AH   PUBLIC    DATA     BYTE      Soft_Timer_Enable
      0000008BH   PUBLIC    IDATA    BYTE      T2_cnt
      0000008AH   PUBLIC    IDATA    BYTE      T1_cnt
      00000089H   PUBLIC    IDATA    BYTE      T0_cnt
      00000039H   PUBLIC    DATA     BYTE      Work_Type
      00000037H   PUBLIC    DATA     WORD      Disp_year
      00000035H   PUBLIC    DATA     WORD      mV_Span_offset
      00000034H   PUBLIC    DATA     BYTE      CAIT
      00000033H   PUBLIC    DATA     BYTE      AD_Lo
      00000031H   PUBLIC    DATA     WORD      mA_Zero_offset
      00000030H   PUBLIC    DATA     BYTE      TC_Type
      0000002EH   PUBLIC    DATA     WORD      mV_Span_Value
      0000002DH   PUBLIC    DATA     BYTE      AD_Hi
      0000002CH   PUBLIC    DATA     BYTE      Func_Type
      0000002AH   PUBLIC    DATA     WORD      mA_Span_offset
      00000028H   PUBLIC    DATA     WORD      TC_Zero_offset
      00000027H   PUBLIC    DATA     BYTE      Key_backup
      00000025H   PUBLIC    DATA     WORD      mA_Span_Value
      00000023H   PUBLIC    DATA     WORD      Temp_offset
      00000080H   PUBLIC    IDATA    ---       Soft_Timer
      00000022H   PUBLIC    DATA     BYTE      ADD_COD
      00000021H   PUBLIC    DATA     BYTE      AD_Mid
      00000020H.0 PUBLIC    BIT      BIT       f_half_sec
      0100471DH   PUBLIC    CODE     ---       main
      01004FFEH   PUBLIC    CODE     ---       DO_RESET_TYPE
      01004F20H   PUBLIC    CODE     ---       EEPROM_WriteDefault
      0100557BH   PUBLIC    CODE     ---       RTC_READ_SET
      010056BDH   PUBLIC    CODE     ---       RTC_ON
      01000026H   PUBLIC    CODE     ---       DO_SETUP_TYPE
      01005327H   PUBLIC    CODE     ---       Read_AD3421_Value
      01004AFBH   PUBLIC    CODE     ---       DO_mA_TYPE
      01004995H   PUBLIC    CODE     ---       DO_mV_TYPE
      01004C61H   PUBLIC    CODE     ---       DO_RTD_TYPE
      01004DDDH   PUBLIC    CODE     ---       _Check_Type_Offset
      0100391FH   PUBLIC    CODE     ---       DO_TC_TYPE
      010055ECH   PUBLIC    CODE     ---       Get_Key
      010053D3H   PUBLIC    CODE     ---       Temp_Read
      0100526EH   PUBLIC    CODE     ---       _TEMP_F_TO_C
      010054F2H   PUBLIC    CODE     ---       Check_PCB
      01005B85H   PUBLIC    CODE     ---       _Buzzer
      01005AF7H   PUBLIC    CODE     ---       _delay
      01005C0FH   PUBLIC    CODE     ---       serial
      01005B0EH   PUBLIC    CODE     ---       InitUart
      01005BFFH   PUBLIC    CODE     ---       T1_Init
      01005BEFH   PUBLIC    CODE     ---       T0_Init
      0100565AH   PUBLIC    CODE     ---       time1
      0100596EH   PUBLIC    CODE     ---       time0
      01000006H   PUBLIC    CODE     ---       ex_int0
      000000B0H   SFRSYM    DATA     BIT       R485_RX
      000000D8H.2 SFRSYM    DATA     BIT       CCF2
      00000098H.3 SFRSYM    DATA     BIT       TB80
      000000F6H   SFRSYM    DATA     BYTE      PCAPWM4
      00000091H   SFRSYM    DATA     BYTE      P1M0
      00000094H   SFRSYM    DATA     BYTE      P0M1
      00000090H.7 SFRSYM    DATA     BIT       non3
      000000D8H.3 SFRSYM    DATA     BIT       CCF3
      00000098H.3 SFRSYM    DATA     BIT       TB81
      000000F7H   SFRSYM    DATA     BYTE      PCAPWM5
LX51 LINKER/LOCATER V4.47a                                                            06/06/2015  09:44:34  PAGE 19


      00000095H   SFRSYM    DATA     BYTE      P2M0
      00000092H   SFRSYM    DATA     BYTE      P1M1
      00000080H   SFRSYM    DATA     BYTE      P0
      000000B0H.1 SFRSYM    DATA     BIT       R485_TX
      000000D8H.4 SFRSYM    DATA     BIT       CCF4
      00000098H.7 SFRSYM    DATA     BIT       SM00
      000000B1H   SFRSYM    DATA     BYTE      P3M0
      00000096H   SFRSYM    DATA     BYTE      P2M1
      00000090H   SFRSYM    DATA     BYTE      P1
      000000D8H.5 SFRSYM    DATA     BIT       CCF5
      00000098H.7 SFRSYM    DATA     BIT       SM01
      00000098H.6 SFRSYM    DATA     BIT       SM10
      000000B3H   SFRSYM    DATA     BYTE      P4M0
      000000B2H   SFRSYM    DATA     BYTE      P3M1
      000000A0H   SFRSYM    DATA     BYTE      P2
      00000098H.6 SFRSYM    DATA     BIT       SM11
      00000098H.5 SFRSYM    DATA     BIT       SM20
      000000E7H   SFRSYM    DATA     BYTE      ISPCR
      000000B5H   SFRSYM    DATA     BYTE      P5M0
      000000B4H   SFRSYM    DATA     BYTE      P4M1
      000000B0H   SFRSYM    DATA     BYTE      P3
      000000C0H   SFRSYM    DATA     BYTE      XICON
      000000A0H.2 SFRSYM    DATA     BIT       EEPROM_SDA
      00000080H.7 SFRSYM    DATA     BIT       DOWN_KEY
      000000B0H.4 SFRSYM    DATA     BIT       T0
      00000098H.5 SFRSYM    DATA     BIT       SM21
      000000D0H.6 SFRSYM    DATA     BIT       AC
      00000097H   SFRSYM    DATA     BYTE      EVRCR
      000000B6H   SFRSYM    DATA     BYTE      P5M1
      000000E8H   SFRSYM    DATA     BYTE      P4
      000000B0H.5 SFRSYM    DATA     BIT       T1
      00000085H   SFRSYM    DATA     BYTE      SPCON
      000000F8H   SFRSYM    DATA     BYTE      P5
      000000ADH   SFRSYM    DATA     BYTE      EIE1
      00000090H   SFRSYM    DATA     BIT       T2
      000000A8H.7 SFRSYM    DATA     BIT       EA
      000000ACH   SFRSYM    DATA     BYTE      SFRPI
      000000E1H   SFRSYM    DATA     BYTE      WDTCR
      000000C8H   SFRSYM    DATA     BYTE      P6
      000000A0H.4 SFRSYM    DATA     BIT       mV_SCL
      000000A0H   SFRSYM    DATA     BIT       KBI0
      00000090H.5 SFRSYM    DATA     BIT       SPI_MOSI
      00000090H.6 SFRSYM    DATA     BIT       SPI_MISO
      00000080H.5 SFRSYM    DATA     BIT       mA_OUT
      000000A0H.1 SFRSYM    DATA     BIT       KBI1
      00000085H   SFRSYM    DATA     BYTE      SPCTL
      000000A0H.2 SFRSYM    DATA     BIT       KBI2
      00000090H   SFRSYM    DATA     BIT       AIN0
      000000D8H.7 SFRSYM    DATA     BIT       CF
      000000AEH   SFRSYM    DATA     BYTE      AUXIP
      000000A0H.3 SFRSYM    DATA     BIT       KBI3
      00000090H.1 SFRSYM    DATA     BIT       AIN1
      000000A0H.4 SFRSYM    DATA     BIT       KBI4
      00000090H.2 SFRSYM    DATA     BIT       AIN2
      00000098H.7 SFRSYM    DATA     BIT       FE
      000000F9H   SFRSYM    DATA     BYTE      CH
      000000A0H.5 SFRSYM    DATA     BIT       KBI5
      00000090H.3 SFRSYM    DATA     BIT       AIN3
      000000A0H.6 SFRSYM    DATA     BIT       KBI6
      00000090H.4 SFRSYM    DATA     BIT       AIN4
      000000A0H.3 SFRSYM    DATA     BIT       EEPROM_SCL
      00000080H.1 SFRSYM    DATA     BIT       RTD_C
      000000A0H.7 SFRSYM    DATA     BIT       KBI7
      00000090H.5 SFRSYM    DATA     BIT       AIN5
      000000A8H   SFRSYM    DATA     BYTE      IE
LX51 LINKER/LOCATER V4.47a                                                            06/06/2015  09:44:34  PAGE 20


      00000090H.6 SFRSYM    DATA     BIT       AIN6
      000000E9H   SFRSYM    DATA     BYTE      CL
      00000090H.7 SFRSYM    DATA     BIT       AIN7
      00000090H.2 SFRSYM    DATA     BIT       CEX0
      000000FAH   SFRSYM    DATA     BYTE      CCAP0H
      000000C6H   SFRSYM    DATA     BYTE      ADCH
      00000090H.3 SFRSYM    DATA     BIT       CEX1
      000000FBH   SFRSYM    DATA     BYTE      CCAP1H
      000000B7H   SFRSYM    DATA     BYTE      IP0H
      000000A0H.2 SFRSYM    DATA     BIT       ALL_SDA
      00000090H.4 SFRSYM    DATA     BIT       CEX2
      000000FCH   SFRSYM    DATA     BYTE      CCAP2H
      000000B0H.3 SFRSYM    DATA     BIT       OFFSET_KEY
      00000090H.5 SFRSYM    DATA     BIT       CEX3
      000000FDH   SFRSYM    DATA     BYTE      CCAP3H
      00000090H.6 SFRSYM    DATA     BIT       CEX4
      000000D8H.6 SFRSYM    DATA     BIT       CR
      000000FEH   SFRSYM    DATA     BYTE      CCAP4H
      000000EAH   SFRSYM    DATA     BYTE      CCAP0L
      000000BEH   SFRSYM    DATA     BYTE      ADCL
      000000B0H.7 SFRSYM    DATA     BIT       RD
      00000090H.7 SFRSYM    DATA     BIT       CEX5
      000000C8H.6 SFRSYM    DATA     BIT       EXF2
      00000098H.4 SFRSYM    DATA     BIT       REN0
      000000FFH   SFRSYM    DATA     BYTE      CCAP5H
      000000EBH   SFRSYM    DATA     BYTE      CCAP1L
      000000DAH   SFRSYM    DATA     BYTE      CCAPM0
      000000B8H   SFRSYM    DATA     BYTE      IP0L
      00000098H.4 SFRSYM    DATA     BIT       REN1
      000000ECH   SFRSYM    DATA     BYTE      CCAP2L
      000000DBH   SFRSYM    DATA     BYTE      CCAPM1
      000000C0H.3 SFRSYM    DATA     BIT       IT2H
      000000A8H.4 SFRSYM    DATA     BIT       ES
      00000097H   SFRSYM    DATA     BYTE      TSTWD
      000000EDH   SFRSYM    DATA     BYTE      CCAP3L
      000000DCH   SFRSYM    DATA     BYTE      CCAPM2
      000000C0H.7 SFRSYM    DATA     BIT       IT3H
      000000EEH   SFRSYM    DATA     BYTE      CCAP4L
      000000DDH   SFRSYM    DATA     BYTE      CCAPM3
      000000B8H   SFRSYM    DATA     BYTE      IP
      000000EFH   SFRSYM    DATA     BYTE      CCAP5L
      000000DEH   SFRSYM    DATA     BYTE      CCAPM4
      00000098H   SFRSYM    DATA     BIT       RI
      000000DFH   SFRSYM    DATA     BYTE      CCAPM5
      000000B0H.2 SFRSYM    DATA     BIT       INT0
      000000D0H.7 SFRSYM    DATA     BIT       CY
      000000B0H.4 SFRSYM    DATA     BIT       BEEP
      00000080H.4 SFRSYM    DATA     BIT       mV_OUT
      000000B0H.3 SFRSYM    DATA     BIT       INT1
      00000098H.1 SFRSYM    DATA     BIT       TI
      000000A0H.3 SFRSYM    DATA     BIT       EEP_SCL
      000000E8H.3 SFRSYM    DATA     BIT       INT2
      000000E8H.2 SFRSYM    DATA     BIT       INT3
      000000C6H   SFRSYM    DATA     BYTE      ADCV
      0000008FH   SFRSYM    DATA     BYTE      STRETCH
      000000B8H.1 SFRSYM    DATA     BIT       PT0L
      000000B8H.3 SFRSYM    DATA     BIT       PT1L
      000000CBH   SFRSYM    DATA     BYTE      RCAP2H
      000000A0H.2 SFRSYM    DATA     BIT       RTC_SDA
      000000B8H.4 SFRSYM    DATA     BIT       PS
      000000B8H.5 SFRSYM    DATA     BIT       PT2L
      00000081H   SFRSYM    DATA     BYTE      SP
      00000090H.1 SFRSYM    DATA     BIT       T2EX
      000000D9H   SFRSYM    DATA     BYTE      CMOD
      000000D8H   SFRSYM    DATA     BYTE      CCON
LX51 LINKER/LOCATER V4.47a                                                            06/06/2015  09:44:34  PAGE 21


      0000009AH   SFRSYM    DATA     BYTE      SCFG
      000000B8H   SFRSYM    DATA     BIT       PX0L
      000000D0H.2 SFRSYM    DATA     BIT       OV
      000000B8H.2 SFRSYM    DATA     BIT       PX1L
      000000CAH   SFRSYM    DATA     BYTE      RCAP2L
      000000B8H.6 SFRSYM    DATA     BIT       PX2L
      00000090H.7 SFRSYM    DATA     BIT       SPI_CLK
      000000B8H.7 SFRSYM    DATA     BIT       PX3L
      000000E6H   SFRSYM    DATA     BYTE      SCMD
      000000B0H.6 SFRSYM    DATA     BIT       WR
      000000C8H.1 SFRSYM    DATA     BIT       C_T2
      00000084H   SFRSYM    DATA     BYTE      SPISTAT
      00000090H.6 SFRSYM    DATA     BIT       RTC_SCL
      000000C8H.5 SFRSYM    DATA     BIT       RCLK
      000000C8H.4 SFRSYM    DATA     BIT       TCLK
      00000080H   SFRSYM    DATA     BIT       P00
      000000E3H   SFRSYM    DATA     BYTE      IFADRH
      00000090H   SFRSYM    DATA     BIT       P10
      00000080H.1 SFRSYM    DATA     BIT       P01
      000000E5H   SFRSYM    DATA     BYTE      IFMT
      00000087H   SFRSYM    DATA     BYTE      PCON
      00000099H   SFRSYM    DATA     BYTE      SBUF
      000000A0H   SFRSYM    DATA     BIT       P20
      00000090H.1 SFRSYM    DATA     BIT       P11
      00000080H.2 SFRSYM    DATA     BIT       P02
      000000B0H   SFRSYM    DATA     BIT       P30
      000000A0H.1 SFRSYM    DATA     BIT       P21
      00000090H.2 SFRSYM    DATA     BIT       P12
      00000080H.3 SFRSYM    DATA     BIT       P03
      000000B0H.2 SFRSYM    DATA     BIT       FUNCTION_KEY
      000000E8H   SFRSYM    DATA     BIT       P40
      000000B0H.1 SFRSYM    DATA     BIT       P31
      000000A0H.2 SFRSYM    DATA     BIT       P22
      00000090H.3 SFRSYM    DATA     BIT       P13
      00000080H.4 SFRSYM    DATA     BIT       P04
      000000E4H   SFRSYM    DATA     BYTE      IFADRL
      00000098H   SFRSYM    DATA     BYTE      SCON
      000000F8H   SFRSYM    DATA     BIT       P50
      000000E8H.1 SFRSYM    DATA     BIT       P41
      000000B0H.2 SFRSYM    DATA     BIT       P32
      000000A0H.3 SFRSYM    DATA     BIT       P23
      00000090H.4 SFRSYM    DATA     BIT       P14
      00000080H.5 SFRSYM    DATA     BIT       P05
      00000089H   SFRSYM    DATA     BYTE      TMOD
      00000088H   SFRSYM    DATA     BYTE      TCON
      000000C8H   SFRSYM    DATA     BIT       P60
      000000F8H.1 SFRSYM    DATA     BIT       P51
      000000E8H.2 SFRSYM    DATA     BIT       P42
      000000B0H.3 SFRSYM    DATA     BIT       P33
      000000A0H.4 SFRSYM    DATA     BIT       P24
      00000090H.5 SFRSYM    DATA     BIT       P15
      00000080H.6 SFRSYM    DATA     BIT       P06
      000000A0H.5 SFRSYM    DATA     BIT       TEMP
      000000C8H.1 SFRSYM    DATA     BIT       P61
      000000F8H.2 SFRSYM    DATA     BIT       P52
      000000E8H.3 SFRSYM    DATA     BIT       P43
      000000B0H.4 SFRSYM    DATA     BIT       P34
      000000A0H.5 SFRSYM    DATA     BIT       P25
      00000090H.6 SFRSYM    DATA     BIT       P16
      00000080H.7 SFRSYM    DATA     BIT       P07
      000000F8H.3 SFRSYM    DATA     BIT       P53
      000000E8H.4 SFRSYM    DATA     BIT       P44
      000000B0H.5 SFRSYM    DATA     BIT       P35
      000000A0H.6 SFRSYM    DATA     BIT       P26
      00000090H.7 SFRSYM    DATA     BIT       P17
LX51 LINKER/LOCATER V4.47a                                                            06/06/2015  09:44:34  PAGE 22


      000000A0H   SFRSYM    DATA     BIT       Value_SDA
      000000E8H.5 SFRSYM    DATA     BIT       P45
      000000B0H.6 SFRSYM    DATA     BIT       P36
      000000A0H.7 SFRSYM    DATA     BIT       P27
      00000080H   SFRSYM    DATA     BIT       TC_C
      000000E8H.6 SFRSYM    DATA     BIT       P46
      000000B0H.7 SFRSYM    DATA     BIT       P37
      000000E8H.7 SFRSYM    DATA     BIT       P47
      000000D7H   SFRSYM    DATA     BYTE      KBMASK
      000000A0H.4 SFRSYM    DATA     BIT       OUT_SCL
      000000A0H   SFRSYM    DATA     BIT       AD_SDA
      00000088H.1 SFRSYM    DATA     BIT       IE0
      00000088H.3 SFRSYM    DATA     BIT       IE1
      00000090H   SFRSYM    DATA     BIT       LED1_SDA
      000000C0H.1 SFRSYM    DATA     BIT       IE2
      00000090H.3 SFRSYM    DATA     BIT       LED2_SDA
      000000C0H.5 SFRSYM    DATA     BIT       IE3
      000000A8H.6 SFRSYM    DATA     BIT       GF4
      0000008EH   SFRSYM    DATA     BYTE      AUXR
      000000F0H   SFRSYM    DATA     BYTE      B
      000000D5H   SFRSYM    DATA     BYTE      KBPATN
      000000A0H.1 SFRSYM    DATA     BIT       Value_SCL
      000000C8H   SFRSYM    DATA     BIT       CP_RL2
      000000A0H.6 SFRSYM    DATA     BIT       NONE_4
      000000A0H.7 SFRSYM    DATA     BIT       NONE_5
      000000B0H.6 SFRSYM    DATA     BIT       NONE_6
      00000086H   SFRSYM    DATA     BYTE      SPIDAT
      000000E0H   SFRSYM    DATA     BYTE      ACC
      000000B0H.7 SFRSYM    DATA     BIT       NONE_7
      000000A0H.1 SFRSYM    DATA     BIT       AD_SCL
      000000A8H.4 SFRSYM    DATA     BIT       ES0
      000000A8H.1 SFRSYM    DATA     BIT       ET0
      00000090H.2 SFRSYM    DATA     BIT       LED1_SCL
      00000088H.5 SFRSYM    DATA     BIT       TF0
      000000A8H.3 SFRSYM    DATA     BIT       ET1
      00000090H.4 SFRSYM    DATA     BIT       LED2_SCL
      00000088H.7 SFRSYM    DATA     BIT       TF1
      00000098H   SFRSYM    DATA     BIT       RI0
      000000A8H.5 SFRSYM    DATA     BIT       ET2
      000000C8H.7 SFRSYM    DATA     BIT       TF2
      00000098H   SFRSYM    DATA     BIT       RI1
      00000098H.2 SFRSYM    DATA     BIT       RB8
      0000008CH   SFRSYM    DATA     BYTE      TH0
      00000088H   SFRSYM    DATA     BIT       IT0
      00000098H.1 SFRSYM    DATA     BIT       TI0
      000000A8H   SFRSYM    DATA     BIT       EX0
      0000008DH   SFRSYM    DATA     BYTE      TH1
      00000088H.2 SFRSYM    DATA     BIT       IT1
      00000098H.1 SFRSYM    DATA     BIT       TI1
      00000098H.3 SFRSYM    DATA     BIT       TB8
      000000A8H.2 SFRSYM    DATA     BIT       EX1
      00000085H   SFRSYM    DATA     BYTE      SPICON
      000000CDH   SFRSYM    DATA     BYTE      TH2
      000000C0H   SFRSYM    DATA     BIT       IT2
      000000C0H.2 SFRSYM    DATA     BIT       EX2
      000000D0H   SFRSYM    DATA     BIT       P
      000000C0H.4 SFRSYM    DATA     BIT       IT3
      000000C0H.6 SFRSYM    DATA     BIT       EX3
      00000098H.7 SFRSYM    DATA     BIT       SM0
      0000008AH   SFRSYM    DATA     BYTE      TL0
      00000080H.3 SFRSYM    DATA     BIT       mA_C
      000000C8H   SFRSYM    DATA     BIT       XOUT
      00000090H.1 SFRSYM    DATA     BIT       ECI
      00000098H.6 SFRSYM    DATA     BIT       SM1
      00000085H   SFRSYM    DATA     BYTE      SPICTL
LX51 LINKER/LOCATER V4.47a                                                            06/06/2015  09:44:34  PAGE 23


      0000008BH   SFRSYM    DATA     BYTE      TL1
      000000AFH   SFRSYM    DATA     BYTE      AUXIPH
      000000E8H.6 SFRSYM    DATA     BIT       ALE
      00000098H.5 SFRSYM    DATA     BIT       SM2
      000000CCH   SFRSYM    DATA     BYTE      TL2
      000000E2H   SFRSYM    DATA     BYTE      IFD
      000000B8H.1 SFRSYM    DATA     BIT       PT0
      000000B0H.5 SFRSYM    DATA     BIT       R485_DE_RE
      000000B8H.3 SFRSYM    DATA     BIT       PT1
      000000D0H.3 SFRSYM    DATA     BIT       RS0
      00000088H.4 SFRSYM    DATA     BIT       TR0
      000000B8H.5 SFRSYM    DATA     BIT       PT2
      000000D0H.4 SFRSYM    DATA     BIT       RS1
      00000088H.6 SFRSYM    DATA     BIT       TR1
      000000C8H.2 SFRSYM    DATA     BIT       TR2
      000000B8H   SFRSYM    DATA     BIT       PX0
      000000AFH   SFRSYM    DATA     BYTE      EIP1H
      000000B8H.2 SFRSYM    DATA     BIT       PX1
      000000C0H.3 SFRSYM    DATA     BIT       PX2
      000000C0H.7 SFRSYM    DATA     BIT       PX3
      000000AEH   SFRSYM    DATA     BYTE      EIP1L
      00000083H   SFRSYM    DATA     BYTE      DPH
      000000C8H   SFRSYM    DATA     BIT       CKO
      00000082H   SFRSYM    DATA     BYTE      DPL
      00000087H   SFRSYM    DATA     BYTE      PCON0
      00000084H   SFRSYM    DATA     BYTE      SPSTAT
      00000099H   SFRSYM    DATA     BYTE      SBUF0
      000000B7H   SFRSYM    DATA     BYTE      IPH
      000000B0H.4 SFRSYM    DATA     BIT       T0CKO
      00000097H   SFRSYM    DATA     BYTE      PCON1
      00000099H   SFRSYM    DATA     BYTE      SBUF1
      000000B0H.5 SFRSYM    DATA     BIT       T1CKO
      000000C8H.3 SFRSYM    DATA     BIT       EXEN2
      000000C7H   SFRSYM    DATA     BYTE      PCON2
      0000009AH   SFRSYM    DATA     BYTE      S2BUF
      00000098H   SFRSYM    DATA     BYTE      SCON0
      00000098H.4 SFRSYM    DATA     BIT       REN
      00000098H   SFRSYM    DATA     BYTE      SCON1
      00000080H.2 SFRSYM    DATA     BIT       mV_C
      000000C5H   SFRSYM    DATA     BYTE      ADCON
      000000A0H.2 SFRSYM    DATA     BIT       mA_SDA
      000000C9H   SFRSYM    DATA     BYTE      T2MOD
      000000C8H   SFRSYM    DATA     BYTE      T2CON
      000000C5H   SFRSYM    DATA     BYTE      ADCTL
      000000BEH   SFRSYM    DATA     BYTE      ADCVL
      000000B9H   SFRSYM    DATA     BYTE      SADEN
      0000009AH   SFRSYM    DATA     BYTE      S1BRT
      000000B0H   SFRSYM    DATA     BIT       RXD
      000000D6H   SFRSYM    DATA     BYTE      KBCON
      00000080H.6 SFRSYM    DATA     BIT       UP_KEY
      000000C8H.1 SFRSYM    DATA     BIT       XIN
      000000B8H.4 SFRSYM    DATA     BIT       PSL
      000000A9H   SFRSYM    DATA     BYTE      SADDR
      000000B0H.1 SFRSYM    DATA     BIT       TXD
      000000A0H.4 SFRSYM    DATA     BIT       mA_SCL
      0000008EH   SFRSYM    DATA     BYTE      AUXR0
      000000A2H   SFRSYM    DATA     BYTE      AUXR1
      00000090H.4 SFRSYM    DATA     BIT       SPI_SS
      000000A6H   SFRSYM    DATA     BYTE      AUXR2
      00000090H.2 SFRSYM    DATA     BIT       S2RXD
      000000D0H.5 SFRSYM    DATA     BIT       F0
      000000B0H.4 SFRSYM    DATA     BIT       BEEP_OUT
      00000090H.3 SFRSYM    DATA     BIT       S2TXD
      000000D0H.1 SFRSYM    DATA     BIT       F1
      00000090H.1 SFRSYM    DATA     BIT       LED1_LE
LX51 LINKER/LOCATER V4.47a                                                            06/06/2015  09:44:34  PAGE 24


      00000090H.5 SFRSYM    DATA     BIT       LED2_LE
      000000F2H   SFRSYM    DATA     BYTE      PCAPWM0
      000000D0H   SFRSYM    DATA     BYTE      PSW
      000000F3H   SFRSYM    DATA     BYTE      PCAPWM1
      000000A0H.2 SFRSYM    DATA     BIT       mV_SDA
      000000D8H   SFRSYM    DATA     BIT       CCF0
      00000098H.2 SFRSYM    DATA     BIT       RB80
      000000F4H   SFRSYM    DATA     BYTE      PCAPWM2
      000000D8H.1 SFRSYM    DATA     BIT       CCF1
      00000098H.2 SFRSYM    DATA     BIT       RB81
      000000F5H   SFRSYM    DATA     BYTE      PCAPWM3
      00000086H   SFRSYM    DATA     BYTE      SPDAT
      00000093H   SFRSYM    DATA     BYTE      P0M0
      000000ADH   SFRSYM    DATA     BYTE      AUXIE

      01000006H   BLOCK     CODE     ---       LVL=0
      01000006H   LINE      CODE     ---       #201
      01000006H   LINE      CODE     ---       #203
      ---         BLOCKEND  ---      ---       LVL=0

      0100596EH   BLOCK     CODE     ---       LVL=0
      01005979H   BLOCK     CODE     NEAR LAB  LVL=1
      00000062H   SYMBOL    DATA     WORD      Value_code
      ---         BLOCKEND  ---      ---       LVL=1
      0100596EH   LINE      CODE     ---       #207
      01005979H   LINE      CODE     ---       #210
      0100597BH   LINE      CODE     ---       #211
      0100597EH   LINE      CODE     ---       #212
      01005983H   LINE      CODE     ---       #213
      01005989H   LINE      CODE     ---       #214
      0100598CH   LINE      CODE     ---       #215
      0100598FH   LINE      CODE     ---       #216
      01005991H   LINE      CODE     ---       #217
      ---         BLOCKEND  ---      ---       LVL=0

      0100565AH   BLOCK     CODE     ---       LVL=0
      0100565AH   LINE      CODE     ---       #222
      01005665H   LINE      CODE     ---       #224
      01005667H   LINE      CODE     ---       #225
      0100566AH   LINE      CODE     ---       #227
      01005670H   LINE      CODE     ---       #228
      01005676H   LINE      CODE     ---       #229
      0100567EH   LINE      CODE     ---       #230
      0100567EH   LINE      CODE     ---       #231
      01005684H   LINE      CODE     ---       #232
      01005686H   LINE      CODE     ---       #233
      01005686H   LINE      CODE     ---       #234
      0100568BH   LINE      CODE     ---       #235
      0100568BH   LINE      CODE     ---       #236
      0100568EH   LINE      CODE     ---       #237
      01005694H   LINE      CODE     ---       #238
      0100569AH   LINE      CODE     ---       #239
      010056A0H   LINE      CODE     ---       #240
      010056A6H   LINE      CODE     ---       #241
      010056ACH   LINE      CODE     ---       #242
      010056ACH   LINE      CODE     ---       #243
      010056AFH   LINE      CODE     ---       #244
      010056B2H   LINE      CODE     ---       #245
      010056B4H   LINE      CODE     ---       #246
      ---         BLOCKEND  ---      ---       LVL=0

      01005BEFH   BLOCK     CODE     ---       LVL=0
      01005BEFH   LINE      CODE     ---       #248
      01005BEFH   LINE      CODE     ---       #249
      01005BEFH   LINE      CODE     ---       #250
LX51 LINKER/LOCATER V4.47a                                                            06/06/2015  09:44:34  PAGE 25


      01005BF1H   LINE      CODE     ---       #251
      01005BF4H   LINE      CODE     ---       #252
      01005BF7H   LINE      CODE     ---       #253
      01005BFAH   LINE      CODE     ---       #254
      01005BFEH   LINE      CODE     ---       #255
      ---         BLOCKEND  ---      ---       LVL=0

      01005BFFH   BLOCK     CODE     ---       LVL=0
      01005BFFH   LINE      CODE     ---       #259
      01005BFFH   LINE      CODE     ---       #260
      01005BFFH   LINE      CODE     ---       #261
      01005C01H   LINE      CODE     ---       #262
      01005C04H   LINE      CODE     ---       #263
      01005C07H   LINE      CODE     ---       #264
      01005C0AH   LINE      CODE     ---       #265
      01005C0EH   LINE      CODE     ---       #266
      ---         BLOCKEND  ---      ---       LVL=0

      01005B0EH   BLOCK     CODE     ---       LVL=0
      01005B0EH   LINE      CODE     ---       #290
      01005B0EH   LINE      CODE     ---       #291
      01005B0EH   LINE      CODE     ---       #292
      01005B11H   LINE      CODE     ---       #293
      01005B14H   LINE      CODE     ---       #294
      01005B17H   LINE      CODE     ---       #295
      01005B1AH   LINE      CODE     ---       #296
      01005B1DH   LINE      CODE     ---       #297
      01005B20H   LINE      CODE     ---       #298
      01005B23H   LINE      CODE     ---       #299
      01005B25H   LINE      CODE     ---       #300
      01005B27H   LINE      CODE     ---       #301
      ---         BLOCKEND  ---      ---       LVL=0

      01005C0FH   BLOCK     CODE     ---       LVL=0
      01005C0FH   LINE      CODE     ---       #303
      01005C0FH   LINE      CODE     ---       #305
      01005C12H   LINE      CODE     ---       #306
      01005C12H   LINE      CODE     ---       #307
      01005C14H   LINE      CODE     ---       #308
      01005C14H   LINE      CODE     ---       #309
      01005C17H   LINE      CODE     ---       #310
      01005C17H   LINE      CODE     ---       #311
      01005C19H   LINE      CODE     ---       #312
      01005C1CH   LINE      CODE     ---       #313
      01005C1EH   LINE      CODE     ---       #314
      01005C1EH   LINE      CODE     ---       #315
      ---         BLOCKEND  ---      ---       LVL=0

      01005AF3H   BLOCK     CODE     VOID      LVL=0
      ---         BLOCKEND  ---      ---       LVL=0

      01005AF7H   BLOCK     CODE     ---       LVL=0
      00000006H   SYMBOL    DATA     WORD      i
      00000005H   SYMBOL    DATA     BYTE      j
      01005AF7H   BLOCK     CODE     NEAR LAB  LVL=1
      00000005H   SYMBOL    DATA     BYTE      j
      ---         BLOCKEND  ---      ---       LVL=1
      01005AF7H   LINE      CODE     ---       #317
      01005AF7H   LINE      CODE     ---       #318
      01005AF7H   LINE      CODE     ---       #320
      01005B00H   LINE      CODE     ---       #321
      01005B0DH   LINE      CODE     ---       #322
      ---         BLOCKEND  ---      ---       LVL=0

      01005B85H   BLOCK     CODE     ---       LVL=0
LX51 LINKER/LOCATER V4.47a                                                            06/06/2015  09:44:34  PAGE 26


      00000007H   SYMBOL    DATA     BYTE      status
      01005B85H   LINE      CODE     ---       #326
      01005B85H   LINE      CODE     ---       #327
      01005B85H   LINE      CODE     ---       #328
      01005B8AH   LINE      CODE     ---       #329
      01005B8FH   LINE      CODE     ---       #331
      01005B96H   LINE      CODE     ---       #332
      ---         BLOCKEND  ---      ---       LVL=0

      010054F2H   BLOCK     CODE     ---       LVL=0
      010054F2H   LINE      CODE     ---       #336
      010054F2H   LINE      CODE     ---       #337
      010054F2H   LINE      CODE     ---       #338
      010054F5H   LINE      CODE     ---       #339
      010054F5H   LINE      CODE     ---       #340
      010054F8H   LINE      CODE     ---       #341
      010054FAH   LINE      CODE     ---       #342
      010054FDH   LINE      CODE     ---       #343
      01005500H   LINE      CODE     ---       #344
      01005503H   LINE      CODE     ---       #345
      01005506H   LINE      CODE     ---       #346
      01005509H   LINE      CODE     ---       #347
      01005511H   LINE      CODE     ---       #348
      01005513H   LINE      CODE     ---       #349
      01005516H   LINE      CODE     ---       #350
      01005516H   LINE      CODE     ---       #351
      01005519H   LINE      CODE     ---       #352
      0100551CH   LINE      CODE     ---       #353
      0100551FH   LINE      CODE     ---       #354
      01005522H   LINE      CODE     ---       #355
      01005525H   LINE      CODE     ---       #356
      01005528H   LINE      CODE     ---       #357
      0100552BH   LINE      CODE     ---       #358
      01005533H   LINE      CODE     ---       #359
      01005535H   LINE      CODE     ---       #360
      01005538H   LINE      CODE     ---       #361
      01005538H   LINE      CODE     ---       #362
      0100553BH   LINE      CODE     ---       #363
      0100553EH   LINE      CODE     ---       #364
      01005541H   LINE      CODE     ---       #365
      01005544H   LINE      CODE     ---       #366
      01005547H   LINE      CODE     ---       #367
      0100554AH   LINE      CODE     ---       #368
      0100554DH   LINE      CODE     ---       #369
      01005555H   LINE      CODE     ---       #370
      01005557H   LINE      CODE     ---       #371
      0100555AH   LINE      CODE     ---       #372
      0100555AH   LINE      CODE     ---       #373
      0100555DH   LINE      CODE     ---       #374
      01005560H   LINE      CODE     ---       #375
      01005563H   LINE      CODE     ---       #376
      01005566H   LINE      CODE     ---       #377
      01005569H   LINE      CODE     ---       #378
      0100556CH   LINE      CODE     ---       #379
      0100556FH   LINE      CODE     ---       #380
      0100557AH   LINE      CODE     ---       #381
      0100557AH   LINE      CODE     ---       #382
      ---         BLOCKEND  ---      ---       LVL=0

      0100526EH   BLOCK     CODE     ---       LVL=0
      0000006CH   SYMBOL    DATA     WORD      tc_tmp
      01005272H   BLOCK     CODE     NEAR LAB  LVL=1
      0000006EH   SYMBOL    DATA     WORD      ttmp
      ---         BLOCKEND  ---      ---       LVL=1
      0100526EH   LINE      CODE     ---       #384
LX51 LINKER/LOCATER V4.47a                                                            06/06/2015  09:44:34  PAGE 27


      01005272H   LINE      CODE     ---       #385
      01005272H   LINE      CODE     ---       #388
      01005278H   LINE      CODE     ---       #389
      01005278H   LINE      CODE     ---       #390
      01005283H   LINE      CODE     ---       #391
      01005283H   LINE      CODE     ---       #392
      01005287H   LINE      CODE     ---       #393
      01005287H   LINE      CODE     ---       #394
      01005290H   LINE      CODE     ---       #395
      01005292H   LINE      CODE     ---       #397
      01005292H   LINE      CODE     ---       #398
      0100529AH   LINE      CODE     ---       #399
      0100529AH   LINE      CODE     ---       #400
      0100529CH   LINE      CODE     ---       #402
      0100529CH   LINE      CODE     ---       #403
      010052A0H   LINE      CODE     ---       #404
      010052A0H   LINE      CODE     ---       #405
      010052A7H   LINE      CODE     ---       #406
      010052A7H   LINE      CODE     ---       #407
      010052A9H   LINE      CODE     ---       #409
      010052A9H   LINE      CODE     ---       #410
      010052B1H   LINE      CODE     ---       #412
      010052B1H   LINE      CODE     ---       #413
      010052B1H   LINE      CODE     ---       #414
      010052B3H   LINE      CODE     ---       #416
      010052B3H   LINE      CODE     ---       #417
      010052BEH   LINE      CODE     ---       #418
      010052BEH   LINE      CODE     ---       #419
      010052C2H   LINE      CODE     ---       #420
      010052C2H   LINE      CODE     ---       #421
      010052CBH   LINE      CODE     ---       #422
      010052CDH   LINE      CODE     ---       #424
      010052CDH   LINE      CODE     ---       #425
      010052D6H   LINE      CODE     ---       #426
      010052D6H   LINE      CODE     ---       #427
      010052D8H   LINE      CODE     ---       #429
      010052D8H   LINE      CODE     ---       #430
      010052DCH   LINE      CODE     ---       #431
      010052DCH   LINE      CODE     ---       #432
      010052FDH   LINE      CODE     ---       #433
      01005300H   LINE      CODE     ---       #434
      01005302H   LINE      CODE     ---       #436
      01005302H   LINE      CODE     ---       #437
      01005322H   LINE      CODE     ---       #438
      01005322H   LINE      CODE     ---       #439
      01005322H   LINE      CODE     ---       #440
      01005322H   LINE      CODE     ---       #441
      01005326H   LINE      CODE     ---       #442
      ---         BLOCKEND  ---      ---       LVL=0

      010053D3H   BLOCK     CODE     ---       LVL=0
      010053D3H   BLOCK     CODE     NEAR LAB  LVL=1
      0000006CH   SYMBOL    DATA     WORD      Temp_Count
      00000082H   SYMBOL    DATA     WORD      P_count
      ---         BLOCKEND  ---      ---       LVL=1
      010053D3H   LINE      CODE     ---       #451
      010053D3H   LINE      CODE     ---       #452
      010053D3H   LINE      CODE     ---       #454
      010053D6H   LINE      CODE     ---       #455
      010053D8H   LINE      CODE     ---       #456
      010053DFH   LINE      CODE     ---       #457
      010053E2H   LINE      CODE     ---       #458
      010053ECH   LINE      CODE     ---       #459
      010053EEH   LINE      CODE     ---       #460
      01005406H   LINE      CODE     ---       #461
LX51 LINKER/LOCATER V4.47a                                                            06/06/2015  09:44:34  PAGE 28


      01005411H   LINE      CODE     ---       #462
      0100541AH   LINE      CODE     ---       #463
      01005433H   LINE      CODE     ---       #465
      01005451H   LINE      CODE     ---       #481
      01005465H   LINE      CODE     ---       #482
      01005465H   LINE      CODE     ---       #483
      ---         BLOCKEND  ---      ---       LVL=0

      010055ECH   BLOCK     CODE     ---       LVL=0
      010055ECH   LINE      CODE     ---       #485
      010055ECH   LINE      CODE     ---       #486
      010055ECH   LINE      CODE     ---       #487
      010055F8H   LINE      CODE     ---       #488
      010055F8H   LINE      CODE     ---       #489
      010055FBH   LINE      CODE     ---       #490
      010055FDH   LINE      CODE     ---       #491
      010055FFH   LINE      CODE     ---       #492
      01005602H   LINE      CODE     ---       #493
      01005602H   LINE      CODE     ---       #494
      01005606H   LINE      CODE     ---       #495
      01005606H   LINE      CODE     ---       #496
      01005609H   LINE      CODE     ---       #497
      0100560DH   LINE      CODE     ---       #498
      0100560FH   LINE      CODE     ---       #500
      0100560FH   LINE      CODE     ---       #501
      01005613H   LINE      CODE     ---       #502
      01005613H   LINE      CODE     ---       #503
      01005615H   LINE      CODE     ---       #504
      01005618H   LINE      CODE     ---       #505
      01005618H   LINE      CODE     ---       #506
      0100561CH   LINE      CODE     ---       #507
      0100561CH   LINE      CODE     ---       #508
      01005620H   LINE      CODE     ---       #509
      01005620H   LINE      CODE     ---       #510
      01005622H   LINE      CODE     ---       #512
      01005622H   LINE      CODE     ---       #513
      01005626H   LINE      CODE     ---       #514
      01005626H   LINE      CODE     ---       #515
      01005628H   LINE      CODE     ---       #516
      0100562BH   LINE      CODE     ---       #517
      0100562BH   LINE      CODE     ---       #518
      0100562FH   LINE      CODE     ---       #519
      0100562FH   LINE      CODE     ---       #520
      01005633H   LINE      CODE     ---       #521
      01005633H   LINE      CODE     ---       #522
      01005635H   LINE      CODE     ---       #524
      01005635H   LINE      CODE     ---       #525
      01005639H   LINE      CODE     ---       #526
      01005639H   LINE      CODE     ---       #527
      0100563BH   LINE      CODE     ---       #528
      0100563EH   LINE      CODE     ---       #529
      0100563EH   LINE      CODE     ---       #530
      01005642H   LINE      CODE     ---       #531
      01005642H   LINE      CODE     ---       #532
      0100564AH   LINE      CODE     ---       #533
      0100564DH   LINE      CODE     ---       #534
      0100564FH   LINE      CODE     ---       #536
      0100564FH   LINE      CODE     ---       #537
      01005657H   LINE      CODE     ---       #538
      01005657H   LINE      CODE     ---       #539
      01005657H   LINE      CODE     ---       #541
      01005659H   LINE      CODE     ---       #542
      ---         BLOCKEND  ---      ---       LVL=0

      0100391FH   BLOCK     CODE     ---       LVL=0
LX51 LINKER/LOCATER V4.47a                                                            06/06/2015  09:44:34  PAGE 29


      0100391FH   BLOCK     CODE     NEAR LAB  LVL=1
      00000064H   SYMBOL    DATA     WORD      Code_Value
      00000066H   SYMBOL    DATA     WORD      TC_Value
      00000068H   SYMBOL    DATA     WORD      TT_Value
      0000006AH   SYMBOL    DATA     WORD      TA_Value
      00000007H   SYMBOL    DATA     BYTE      key
      ---         BLOCKEND  ---      ---       LVL=1
      0100391FH   LINE      CODE     ---       #546
      0100391FH   LINE      CODE     ---       #547
      0100391FH   LINE      CODE     ---       #551
      01003922H   LINE      CODE     ---       #553
      01003925H   LINE      CODE     ---       #554
      01003925H   LINE      CODE     ---       #555
      01003928H   LINE      CODE     ---       #556
      0100392BH   LINE      CODE     ---       #558
      0100392BH   LINE      CODE     ---       #559
      0100393EH   LINE      CODE     ---       #560
      01003943H   LINE      CODE     ---       #561
      01003943H   LINE      CODE     ---       #562
      01003945H   LINE      CODE     ---       #563
      01003954H   LINE      CODE     ---       #564
      0100395FH   LINE      CODE     ---       #565
      010039AFH   LINE      CODE     ---       #566
      010039B2H   LINE      CODE     ---       #567
      010039B8H   LINE      CODE     ---       #568
      010039B8H   LINE      CODE     ---       #569
      010039C0H   LINE      CODE     ---       #570
      010039C0H   LINE      CODE     ---       #571
      010039C2H   LINE      CODE     ---       #572
      010039D3H   LINE      CODE     ---       #574
      010039D9H   LINE      CODE     ---       #575
      010039E7H   LINE      CODE     ---       #576
      01003A4CH   LINE      CODE     ---       #577
      01003A50H   LINE      CODE     ---       #579
      01003A54H   LINE      CODE     ---       #580
      01003A54H   LINE      CODE     ---       #582
      01003A5BH   LINE      CODE     ---       #583
      01003A62H   LINE      CODE     ---       #584
      01003A7CH   LINE      CODE     ---       #585
      01003A90H   LINE      CODE     ---       #586
      01003A97H   LINE      CODE     ---       #587
      01003A9AH   LINE      CODE     ---       #588
      01003AA0H   LINE      CODE     ---       #589
      01003AA0H   LINE      CODE     ---       #590
      01003AA2H   LINE      CODE     ---       #591
      01003AA9H   LINE      CODE     ---       #592
      01003AB0H   LINE      CODE     ---       #593
      01003ACAH   LINE      CODE     ---       #594
      01003AEEH   LINE      CODE     ---       #595
      01003AF5H   LINE      CODE     ---       #596
      01003AF8H   LINE      CODE     ---       #597
      01003AFEH   LINE      CODE     ---       #598
      01003AFEH   LINE      CODE     ---       #599
      01003B05H   LINE      CODE     ---       #600
      01003B0CH   LINE      CODE     ---       #601
      01003B13H   LINE      CODE     ---       #602
      01003B23H   LINE      CODE     ---       #603
      01003B37H   LINE      CODE     ---       #604
      01003B3EH   LINE      CODE     ---       #605
      01003B41H   LINE      CODE     ---       #606
      01003B47H   LINE      CODE     ---       #607
      01003B47H   LINE      CODE     ---       #608
      01003B4EH   LINE      CODE     ---       #609
      01003B55H   LINE      CODE     ---       #610
      01003B5CH   LINE      CODE     ---       #611
LX51 LINKER/LOCATER V4.47a                                                            06/06/2015  09:44:34  PAGE 30


      01003B76H   LINE      CODE     ---       #612
      01003B99H   LINE      CODE     ---       #613
      01003BA0H   LINE      CODE     ---       #614
      01003BA3H   LINE      CODE     ---       #615
      01003BA9H   LINE      CODE     ---       #616
      01003BA9H   LINE      CODE     ---       #617
      01003BA9H   LINE      CODE     ---       #618
      01003BB0H   LINE      CODE     ---       #619
      01003BB7H   LINE      CODE     ---       #620
      01003BD1H   LINE      CODE     ---       #621
      01003BF4H   LINE      CODE     ---       #622
      01003BF8H   LINE      CODE     ---       #623
      01003BFAH   LINE      CODE     ---       #624
      01003C00H   LINE      CODE     ---       #625
      01003C00H   LINE      CODE     ---       #626
      01003C00H   LINE      CODE     ---       #627
      01003C07H   LINE      CODE     ---       #628
      01003C0EH   LINE      CODE     ---       #629
      01003C28H   LINE      CODE     ---       #630
      01003C4BH   LINE      CODE     ---       #631
      01003C5AH   LINE      CODE     ---       #632
      01003C5AH   LINE      CODE     ---       #633
      01003C5AH   LINE      CODE     ---       #634
      01003C5FH   LINE      CODE     ---       #635
      01003C5FH   LINE      CODE     ---       #636
      01003C62H   LINE      CODE     ---       #637
      01003C66H   LINE      CODE     ---       #638
      01003C66H   LINE      CODE     ---       #639
      01003C6BH   LINE      CODE     ---       #640
      01003C6BH   LINE      CODE     ---       #641
      01003C6DH   LINE      CODE     ---       #643
      01003C76H   LINE      CODE     ---       #644
      01003C8BH   LINE      CODE     ---       #645
      01003C8FH   LINE      CODE     ---       #647
      01003C91H   LINE      CODE     ---       #648
      01003C91H   LINE      CODE     ---       #649
      01003C96H   LINE      CODE     ---       #650
      01003C96H   LINE      CODE     ---       #651
      01003CA0H   LINE      CODE     ---       #653
      01003CAAH   LINE      CODE     ---       #654
      01003CAEH   LINE      CODE     ---       #655
      01003CAEH   LINE      CODE     ---       #656
      01003CB3H   LINE      CODE     ---       #657
      01003CB3H   LINE      CODE     ---       #658
      01003CB6H   LINE      CODE     ---       #659
      01003CB6H   LINE      CODE     ---       #660
      01003CB9H   LINE      CODE     ---       #661
      01003CBBH   LINE      CODE     ---       #662
      01003CBDH   LINE      CODE     ---       #663
      01003CBFH   LINE      CODE     ---       #665
      01003CBFH   LINE      CODE     ---       #666
      01003CC3H   LINE      CODE     ---       #667
      01003CC5H   LINE      CODE     ---       #668
      01003CC9H   LINE      CODE     ---       #669
      01003CC9H   LINE      CODE     ---       #670
      01003CCBH   LINE      CODE     ---       #671
      01003CCBH   LINE      CODE     ---       #672
      01003CCBH   LINE      CODE     ---       #673
      01003CCFH   LINE      CODE     ---       #674
      ---         BLOCKEND  ---      ---       LVL=0

      01004DC3H   BLOCK     CODE     VOID      LVL=0
      ---         BLOCKEND  ---      ---       LVL=0

      01004DDDH   BLOCK     CODE     ---       LVL=0
LX51 LINKER/LOCATER V4.47a                                                            06/06/2015  09:44:34  PAGE 31


      00000006H   SYMBOL    DATA     WORD      Code_Value
      00000002H   SYMBOL    DATA     WORD      Count_Value
      01004DDDH   BLOCK     CODE     NEAR LAB  LVL=1
      00000002H   SYMBOL    DATA     WORD      Count_Value
      ---         BLOCKEND  ---      ---       LVL=1
      01004DDDH   LINE      CODE     ---       #676
      01004DDDH   LINE      CODE     ---       #677
      01004DDDH   LINE      CODE     ---       #679
      01004DE4H   LINE      CODE     ---       #680
      01004DE4H   LINE      CODE     ---       #681
      01004DE8H   LINE      CODE     ---       #682
      01004DE8H   LINE      CODE     ---       #683
      01004DF1H   LINE      CODE     ---       #684
      01004DF1H   LINE      CODE     ---       #685
      01004E02H   LINE      CODE     ---       #686
      01004E0AH   LINE      CODE     ---       #688
      01004E18H   LINE      CODE     ---       #689
      01004E1AH   LINE      CODE     ---       #691
      01004E1AH   LINE      CODE     ---       #692
      01004E2EH   LINE      CODE     ---       #693
      01004E3DH   LINE      CODE     ---       #695
      01004E4AH   LINE      CODE     ---       #696
      01004E4AH   LINE      CODE     ---       #697
      01004E4DH   LINE      CODE     ---       #699
      01004E4DH   LINE      CODE     ---       #700
      01004E56H   LINE      CODE     ---       #701
      01004E56H   LINE      CODE     ---       #702
      01004E65H   LINE      CODE     ---       #703
      01004E65H   LINE      CODE     ---       #705
      01004E65H   LINE      CODE     ---       #706
      01004E68H   LINE      CODE     ---       #708
      01004E68H   LINE      CODE     ---       #709
      01004E78H   LINE      CODE     ---       #710
      01004E78H   LINE      CODE     ---       #712
      01004E78H   LINE      CODE     ---       #713
      01004E78H   LINE      CODE     ---       #714
      01004E78H   LINE      CODE     ---       #715
      01004E7AH   LINE      CODE     ---       #717
      01004E7AH   LINE      CODE     ---       #718
      01004E7EH   LINE      CODE     ---       #719
      01004E7EH   LINE      CODE     ---       #720
      01004E86H   LINE      CODE     ---       #722
      01004E8FH   LINE      CODE     ---       #723
      01004E99H   LINE      CODE     ---       #725
      01004EA1H   LINE      CODE     ---       #726
      01004EA3H   LINE      CODE     ---       #728
      01004EA3H   LINE      CODE     ---       #729
      01004EACH   LINE      CODE     ---       #730
      01004EACH   LINE      CODE     ---       #731
      01004EB4H   LINE      CODE     ---       #733
      01004EBBH   LINE      CODE     ---       #734
      01004EBBH   LINE      CODE     ---       #736
      01004EC3H   LINE      CODE     ---       #737
      01004EC5H   LINE      CODE     ---       #739
      01004EC5H   LINE      CODE     ---       #740
      01004ECEH   LINE      CODE     ---       #742
      01004ED7H   LINE      CODE     ---       #743
      01004EE4H   LINE      CODE     ---       #745
      01004EF0H   LINE      CODE     ---       #746
      01004EF0H   LINE      CODE     ---       #747
      01004EF0H   LINE      CODE     ---       #748
      01004EF0H   LINE      CODE     ---       #750
      01004EFDH   LINE      CODE     ---       #751
      01004F08H   LINE      CODE     ---       #753
      01004F12H   LINE      CODE     ---       #755
LX51 LINKER/LOCATER V4.47a                                                            06/06/2015  09:44:34  PAGE 32


      01004F1BH   LINE      CODE     ---       #757
      01004F1FH   LINE      CODE     ---       #758
      ---         BLOCKEND  ---      ---       LVL=0

      01004C61H   BLOCK     CODE     ---       LVL=0
      01004C61H   BLOCK     CODE     NEAR LAB  LVL=1
      00000064H   SYMBOL    DATA     WORD      RTD_Value
      00000007H   SYMBOL    DATA     BYTE      key
      ---         BLOCKEND  ---      ---       LVL=1
      01004C61H   LINE      CODE     ---       #767
      01004C61H   LINE      CODE     ---       #768
      01004C61H   LINE      CODE     ---       #772
      01004C64H   LINE      CODE     ---       #774
      01004C67H   LINE      CODE     ---       #775
      01004C67H   LINE      CODE     ---       #776
      01004C6AH   LINE      CODE     ---       #777
      01004C6DH   LINE      CODE     ---       #779
      01004C6DH   LINE      CODE     ---       #780
      01004C75H   LINE      CODE     ---       #781
      01004C75H   LINE      CODE     ---       #782
      01004C77H   LINE      CODE     ---       #784
      01004C7EH   LINE      CODE     ---       #786
      01004C88H   LINE      CODE     ---       #787
      01004C88H   LINE      CODE     ---       #788
      01004C93H   LINE      CODE     ---       #789
      01004C93H   LINE      CODE     ---       #790
      01004C93H   LINE      CODE     ---       #791
      01004C95H   LINE      CODE     ---       #793
      01004C95H   LINE      CODE     ---       #794
      01004CA2H   LINE      CODE     ---       #795
      01004CA5H   LINE      CODE     ---       #796
      01004CA5H   LINE      CODE     ---       #797
      01004CA7H   LINE      CODE     ---       #798
      01004CB0H   LINE      CODE     ---       #799
      01004CB0H   LINE      CODE     ---       #800
      01004CB0H   LINE      CODE     ---       #801
      01004CB2H   LINE      CODE     ---       #802
      01004CBBH   LINE      CODE     ---       #803
      01004CBBH   LINE      CODE     ---       #804
      01004CC7H   LINE      CODE     ---       #805
      01004CC9H   LINE      CODE     ---       #806
      01004CD1H   LINE      CODE     ---       #807
      01004CD1H   LINE      CODE     ---       #808
      01004CDCH   LINE      CODE     ---       #809
      01004CDCH   LINE      CODE     ---       #810
      01004CE8H   LINE      CODE     ---       #811
      01004CEAH   LINE      CODE     ---       #813
      01004CEAH   LINE      CODE     ---       #814
      01004CF7H   LINE      CODE     ---       #815
      01004CFAH   LINE      CODE     ---       #816
      01004CFAH   LINE      CODE     ---       #817
      01004CFAH   LINE      CODE     ---       #818
      01004D0DH   LINE      CODE     ---       #819
      01004D1CH   LINE      CODE     ---       #821
      01004D2AH   LINE      CODE     ---       #822
      01004D35H   LINE      CODE     ---       #823
      01004D40H   LINE      CODE     ---       #825
      01004D4BH   LINE      CODE     ---       #826
      01004D4BH   LINE      CODE     ---       #827
      01004D50H   LINE      CODE     ---       #828
      01004D50H   LINE      CODE     ---       #829
      01004D59H   LINE      CODE     ---       #830
      01004D5DH   LINE      CODE     ---       #832
      01004D72H   LINE      CODE     ---       #833
      01004D76H   LINE      CODE     ---       #835
LX51 LINKER/LOCATER V4.47a                                                            06/06/2015  09:44:34  PAGE 33


      01004D78H   LINE      CODE     ---       #836
      01004D78H   LINE      CODE     ---       #837
      01004D7DH   LINE      CODE     ---       #838
      01004D7DH   LINE      CODE     ---       #839
      01004D87H   LINE      CODE     ---       #840
      01004D91H   LINE      CODE     ---       #842
      01004D95H   LINE      CODE     ---       #843
      01004D95H   LINE      CODE     ---       #844
      01004D9AH   LINE      CODE     ---       #845
      01004D9AH   LINE      CODE     ---       #846
      01004D9DH   LINE      CODE     ---       #847
      01004DA1H   LINE      CODE     ---       #848
      01004DA1H   LINE      CODE     ---       #849
      01004DA6H   LINE      CODE     ---       #850
      01004DA6H   LINE      CODE     ---       #851
      01004DA9H   LINE      CODE     ---       #852
      01004DA9H   LINE      CODE     ---       #853
      01004DACH   LINE      CODE     ---       #854
      01004DAEH   LINE      CODE     ---       #855
      01004DB0H   LINE      CODE     ---       #856
      01004DB2H   LINE      CODE     ---       #858
      01004DB2H   LINE      CODE     ---       #859
      01004DB6H   LINE      CODE     ---       #860
      01004DB8H   LINE      CODE     ---       #861
      01004DBCH   LINE      CODE     ---       #862
      01004DBCH   LINE      CODE     ---       #863
      01004DBEH   LINE      CODE     ---       #864
      01004DBEH   LINE      CODE     ---       #865
      01004DBEH   LINE      CODE     ---       #866
      01004DC2H   LINE      CODE     ---       #867
      ---         BLOCKEND  ---      ---       LVL=0

      01004995H   BLOCK     CODE     ---       LVL=0
      01004995H   BLOCK     CODE     NEAR LAB  LVL=1
      00000064H   SYMBOL    DATA     WORD      mV_Value
      00000007H   SYMBOL    DATA     BYTE      key
      ---         BLOCKEND  ---      ---       LVL=1
      01004995H   LINE      CODE     ---       #871
      01004995H   LINE      CODE     ---       #872
      01004995H   LINE      CODE     ---       #876
      01004998H   LINE      CODE     ---       #878
      0100499BH   LINE      CODE     ---       #879
      0100499BH   LINE      CODE     ---       #880
      0100499EH   LINE      CODE     ---       #881
      010049A1H   LINE      CODE     ---       #883
      010049A1H   LINE      CODE     ---       #884
      010049A9H   LINE      CODE     ---       #885
      010049A9H   LINE      CODE     ---       #886
      010049ABH   LINE      CODE     ---       #888
      010049B2H   LINE      CODE     ---       #891
      010049BCH   LINE      CODE     ---       #892
      010049BCH   LINE      CODE     ---       #893
      010049C7H   LINE      CODE     ---       #894
      010049C7H   LINE      CODE     ---       #895
      010049C7H   LINE      CODE     ---       #896
      010049C9H   LINE      CODE     ---       #898
      010049C9H   LINE      CODE     ---       #899
      010049D6H   LINE      CODE     ---       #900
      010049D9H   LINE      CODE     ---       #901
      010049D9H   LINE      CODE     ---       #902
      010049DBH   LINE      CODE     ---       #903
      010049E4H   LINE      CODE     ---       #904
      010049E4H   LINE      CODE     ---       #905
      010049E4H   LINE      CODE     ---       #906
      010049E6H   LINE      CODE     ---       #907
LX51 LINKER/LOCATER V4.47a                                                            06/06/2015  09:44:34  PAGE 34


      010049EFH   LINE      CODE     ---       #908
      010049EFH   LINE      CODE     ---       #909
      010049FBH   LINE      CODE     ---       #910
      010049FDH   LINE      CODE     ---       #911
      01004A05H   LINE      CODE     ---       #912
      01004A05H   LINE      CODE     ---       #913
      01004A10H   LINE      CODE     ---       #914
      01004A10H   LINE      CODE     ---       #915
      01004A1CH   LINE      CODE     ---       #916
      01004A1EH   LINE      CODE     ---       #918
      01004A1EH   LINE      CODE     ---       #919
      01004A2BH   LINE      CODE     ---       #920
      01004A2EH   LINE      CODE     ---       #921
      01004A2EH   LINE      CODE     ---       #922
      01004A2EH   LINE      CODE     ---       #923
      01004A41H   LINE      CODE     ---       #924
      01004A50H   LINE      CODE     ---       #926
      01004A5EH   LINE      CODE     ---       #931
      01004A78H   LINE      CODE     ---       #933
      01004A83H   LINE      CODE     ---       #934
      01004A83H   LINE      CODE     ---       #935
      01004A88H   LINE      CODE     ---       #936
      01004A88H   LINE      CODE     ---       #937
      01004A91H   LINE      CODE     ---       #938
      01004A95H   LINE      CODE     ---       #940
      01004AAAH   LINE      CODE     ---       #941
      01004AAEH   LINE      CODE     ---       #943
      01004AB0H   LINE      CODE     ---       #944
      01004AB0H   LINE      CODE     ---       #945
      01004AB5H   LINE      CODE     ---       #946
      01004AB5H   LINE      CODE     ---       #947
      01004ABFH   LINE      CODE     ---       #948
      01004AC9H   LINE      CODE     ---       #950
      01004ACDH   LINE      CODE     ---       #951
      01004ACDH   LINE      CODE     ---       #952
      01004AD2H   LINE      CODE     ---       #953
      01004AD2H   LINE      CODE     ---       #954
      01004AD5H   LINE      CODE     ---       #955
      01004AD9H   LINE      CODE     ---       #956
      01004AD9H   LINE      CODE     ---       #957
      01004ADEH   LINE      CODE     ---       #958
      01004ADEH   LINE      CODE     ---       #959
      01004AE1H   LINE      CODE     ---       #960
      01004AE1H   LINE      CODE     ---       #961
      01004AE4H   LINE      CODE     ---       #962
      01004AE6H   LINE      CODE     ---       #963
      01004AE8H   LINE      CODE     ---       #964
      01004AEAH   LINE      CODE     ---       #966
      01004AEAH   LINE      CODE     ---       #967
      01004AEEH   LINE      CODE     ---       #968
      01004AF0H   LINE      CODE     ---       #969
      01004AF4H   LINE      CODE     ---       #970
      01004AF4H   LINE      CODE     ---       #971
      01004AF6H   LINE      CODE     ---       #972
      01004AF6H   LINE      CODE     ---       #973
      01004AF6H   LINE      CODE     ---       #974
      01004AFAH   LINE      CODE     ---       #975
      ---         BLOCKEND  ---      ---       LVL=0

      01004AFBH   BLOCK     CODE     ---       LVL=0
      01004AFBH   BLOCK     CODE     NEAR LAB  LVL=1
      00000064H   SYMBOL    DATA     WORD      mA_Value
      00000007H   SYMBOL    DATA     BYTE      key
      ---         BLOCKEND  ---      ---       LVL=1
      01004AFBH   LINE      CODE     ---       #979
LX51 LINKER/LOCATER V4.47a                                                            06/06/2015  09:44:34  PAGE 35


      01004AFBH   LINE      CODE     ---       #980
      01004AFBH   LINE      CODE     ---       #984
      01004AFEH   LINE      CODE     ---       #986
      01004B01H   LINE      CODE     ---       #987
      01004B01H   LINE      CODE     ---       #988
      01004B04H   LINE      CODE     ---       #989
      01004B07H   LINE      CODE     ---       #991
      01004B07H   LINE      CODE     ---       #992
      01004B0FH   LINE      CODE     ---       #993
      01004B0FH   LINE      CODE     ---       #994
      01004B11H   LINE      CODE     ---       #996
      01004B18H   LINE      CODE     ---       #998
      01004B22H   LINE      CODE     ---       #999
      01004B22H   LINE      CODE     ---       #1000
      01004B2DH   LINE      CODE     ---       #1001
      01004B2DH   LINE      CODE     ---       #1002
      01004B2DH   LINE      CODE     ---       #1003
      01004B2FH   LINE      CODE     ---       #1005
      01004B2FH   LINE      CODE     ---       #1006
      01004B3CH   LINE      CODE     ---       #1007
      01004B3FH   LINE      CODE     ---       #1008
      01004B3FH   LINE      CODE     ---       #1009
      01004B41H   LINE      CODE     ---       #1010
      01004B4AH   LINE      CODE     ---       #1011
      01004B4AH   LINE      CODE     ---       #1012
      01004B4AH   LINE      CODE     ---       #1013
      01004B4CH   LINE      CODE     ---       #1014
      01004B55H   LINE      CODE     ---       #1015
      01004B55H   LINE      CODE     ---       #1016
      01004B61H   LINE      CODE     ---       #1017
      01004B63H   LINE      CODE     ---       #1018
      01004B6BH   LINE      CODE     ---       #1019
      01004B6BH   LINE      CODE     ---       #1020
      01004B76H   LINE      CODE     ---       #1021
      01004B76H   LINE      CODE     ---       #1022
      01004B82H   LINE      CODE     ---       #1023
      01004B84H   LINE      CODE     ---       #1025
      01004B84H   LINE      CODE     ---       #1026
      01004B91H   LINE      CODE     ---       #1027
      01004B94H   LINE      CODE     ---       #1028
      01004B94H   LINE      CODE     ---       #1029
      01004B94H   LINE      CODE     ---       #1030
      01004BA7H   LINE      CODE     ---       #1031
      01004BB6H   LINE      CODE     ---       #1033
      01004BC4H   LINE      CODE     ---       #1035
      01004BDEH   LINE      CODE     ---       #1037
      01004BE9H   LINE      CODE     ---       #1038
      01004BE9H   LINE      CODE     ---       #1039
      01004BEEH   LINE      CODE     ---       #1040
      01004BEEH   LINE      CODE     ---       #1041
      01004BF7H   LINE      CODE     ---       #1042
      01004BFBH   LINE      CODE     ---       #1044
      01004C10H   LINE      CODE     ---       #1045
      01004C14H   LINE      CODE     ---       #1047
      01004C16H   LINE      CODE     ---       #1048
      01004C16H   LINE      CODE     ---       #1049
      01004C1BH   LINE      CODE     ---       #1050
      01004C1BH   LINE      CODE     ---       #1051
      01004C25H   LINE      CODE     ---       #1052
      01004C2FH   LINE      CODE     ---       #1054
      01004C33H   LINE      CODE     ---       #1055
      01004C33H   LINE      CODE     ---       #1056
      01004C38H   LINE      CODE     ---       #1057
      01004C38H   LINE      CODE     ---       #1058
      01004C3BH   LINE      CODE     ---       #1059
LX51 LINKER/LOCATER V4.47a                                                            06/06/2015  09:44:34  PAGE 36


      01004C3FH   LINE      CODE     ---       #1060
      01004C3FH   LINE      CODE     ---       #1061
      01004C44H   LINE      CODE     ---       #1062
      01004C44H   LINE      CODE     ---       #1063
      01004C47H   LINE      CODE     ---       #1064
      01004C47H   LINE      CODE     ---       #1065
      01004C4AH   LINE      CODE     ---       #1066
      01004C4CH   LINE      CODE     ---       #1067
      01004C4EH   LINE      CODE     ---       #1068
      01004C50H   LINE      CODE     ---       #1070
      01004C50H   LINE      CODE     ---       #1071
      01004C54H   LINE      CODE     ---       #1072
      01004C56H   LINE      CODE     ---       #1073
      01004C5AH   LINE      CODE     ---       #1074
      01004C5AH   LINE      CODE     ---       #1075
      01004C5CH   LINE      CODE     ---       #1076
      01004C5CH   LINE      CODE     ---       #1077
      01004C5CH   LINE      CODE     ---       #1078
      01004C60H   LINE      CODE     ---       #1079
      ---         BLOCKEND  ---      ---       LVL=0

      01005327H   BLOCK     CODE     ---       LVL=0
      01005327H   BLOCK     CODE     NEAR LAB  LVL=1
      0000006DH   SYMBOL    DATA     WORD      AD3421_Value
      00000007H   SYMBOL    DATA     BYTE      ssta
      ---         BLOCKEND  ---      ---       LVL=1
      01005327H   LINE      CODE     ---       #1081
      01005327H   LINE      CODE     ---       #1082
      01005327H   LINE      CODE     ---       #1086
      0100532AH   LINE      CODE     ---       #1087
      01005330H   LINE      CODE     ---       #1088
      01005330H   LINE      CODE     ---       #1089
      01005333H   LINE      CODE     ---       #1090
      0100533AH   LINE      CODE     ---       #1091
      0100533AH   LINE      CODE     ---       #1092
      0100533DH   LINE      CODE     ---       #1093
      01005346H   LINE      CODE     ---       #1094
      0100534BH   LINE      CODE     ---       #1095
      01005356H   LINE      CODE     ---       #1096
      01005367H   LINE      CODE     ---       #1097
      0100536DH   LINE      CODE     ---       #1098
      01005376H   LINE      CODE     ---       #1099
      0100537CH   LINE      CODE     ---       #1100
      01005385H   LINE      CODE     ---       #1103
      01005385H   LINE      CODE     ---       #1104
      01005388H   LINE      CODE     ---       #1105
      01005391H   LINE      CODE     ---       #1106
      01005396H   LINE      CODE     ---       #1107
      010053A1H   LINE      CODE     ---       #1108
      010053B2H   LINE      CODE     ---       #1109
      010053B8H   LINE      CODE     ---       #1110
      010053C1H   LINE      CODE     ---       #1111
      010053CEH   LINE      CODE     ---       #1112
      010053CEH   LINE      CODE     ---       #1113
      010053CEH   LINE      CODE     ---       #1114
      010053D2H   LINE      CODE     ---       #1115
      ---         BLOCKEND  ---      ---       LVL=0

      01000026H   BLOCK     CODE     ---       LVL=0
      01000026H   BLOCK     CODE     NEAR LAB  LVL=1
      00000064H   SYMBOL    DATA     BYTE      set_key
      00000065H   SYMBOL    DATA     BYTE      times
      00000066H   SYMBOL    DATA     BYTE      Itemm
      00000067H   SYMBOL    DATA     BYTE      item_key
      00000068H   SYMBOL    DATA     BYTE      confrom_key
LX51 LINKER/LOCATER V4.47a                                                            06/06/2015  09:44:34  PAGE 37


      00000069H   SYMBOL    DATA     BYTE      up_key
      0000006AH   SYMBOL    DATA     BYTE      don_key
      0000006BH   SYMBOL    DATA     WORD      value_cal
      ---         BLOCKEND  ---      ---       LVL=1
      01000026H   LINE      CODE     ---       #1117
      01000026H   LINE      CODE     ---       #1118
      01000026H   LINE      CODE     ---       #1119
      0100002DH   LINE      CODE     ---       #1121
      01000031H   LINE      CODE     ---       #1124
      0100003AH   LINE      CODE     ---       #1126
      01000041H   LINE      CODE     ---       #1127
      01000041H   LINE      CODE     ---       #1128
      01000046H   LINE      CODE     ---       #1130
      0100004BH   LINE      CODE     ---       #1131
      01000050H   LINE      CODE     ---       #1133
      01000053H   LINE      CODE     ---       #1135
      01000058H   LINE      CODE     ---       #1136
      0100005DH   LINE      CODE     ---       #1138
      01000060H   LINE      CODE     ---       #1140
      01000065H   LINE      CODE     ---       #1141
      0100006AH   LINE      CODE     ---       #1143
      0100006DH   LINE      CODE     ---       #1145
      01000072H   LINE      CODE     ---       #1146
      01000077H   LINE      CODE     ---       #1148
      0100007AH   LINE      CODE     ---       #1150
      0100007FH   LINE      CODE     ---       #1151
      0100007FH   LINE      CODE     ---       #1152
      01000081H   LINE      CODE     ---       #1153
      01000084H   LINE      CODE     ---       #1154
      01000084H   LINE      CODE     ---       #1155
      0100008BH   LINE      CODE     ---       #1156
      0100008BH   LINE      CODE     ---       #1157
      0100008EH   LINE      CODE     ---       #1158
      01000090H   LINE      CODE     ---       #1159
      01000090H   LINE      CODE     ---       #1160
      0100009DH   LINE      CODE     ---       #1161
      010000AAH   LINE      CODE     ---       #1164
      010000B2H   LINE      CODE     ---       #1165
      010000B2H   LINE      CODE     ---       #1166
      010000B4H   LINE      CODE     ---       #1167
      010000C5H   LINE      CODE     ---       #1168
      010000CBH   LINE      CODE     ---       #1169
      010000D0H   LINE      CODE     ---       #1171
      010000D0H   LINE      CODE     ---       #1172
      01000135H   LINE      CODE     ---       #1173
      01000139H   LINE      CODE     ---       #1174
      01000139H   LINE      CODE     ---       #1175
      0100013BH   LINE      CODE     ---       #1177
      0100013BH   LINE      CODE     ---       #1178
      0100014FH   LINE      CODE     ---       #1179
      0100014FH   LINE      CODE     ---       #1180
      01000155H   LINE      CODE     ---       #1181
      01000155H   LINE      CODE     ---       #1182
      0100015FH   LINE      CODE     ---       #1183
      01000165H   LINE      CODE     ---       #1184
      0100016AH   LINE      CODE     ---       #1185
      01000171H   LINE      CODE     ---       #1186
      01000171H   LINE      CODE     ---       #1187
      01000174H   LINE      CODE     ---       #1188
      01000178H   LINE      CODE     ---       #1189
      01000178H   LINE      CODE     ---       #1190
      01000181H   LINE      CODE     ---       #1191
      01000181H   LINE      CODE     ---       #1192
      01000188H   LINE      CODE     ---       #1193
      01000190H   LINE      CODE     ---       #1194
LX51 LINKER/LOCATER V4.47a                                                            06/06/2015  09:44:34  PAGE 38


      01000197H   LINE      CODE     ---       #1195
      01000199H   LINE      CODE     ---       #1196
      01000199H   LINE      CODE     ---       #1197
      0100019CH   LINE      CODE     ---       #1198
      010001A2H   LINE      CODE     ---       #1199
      010001A2H   LINE      CODE     ---       #1200
      010001AEH   LINE      CODE     ---       #1201
      010001B8H   LINE      CODE     ---       #1202
      010001BEH   LINE      CODE     ---       #1203
      010001C3H   LINE      CODE     ---       #1205
      010001CAH   LINE      CODE     ---       #1206
      010001CAH   LINE      CODE     ---       #1207
      010001CDH   LINE      CODE     ---       #1208
      010001D1H   LINE      CODE     ---       #1209
      010001D1H   LINE      CODE     ---       #1210
      010001DAH   LINE      CODE     ---       #1211
      010001DAH   LINE      CODE     ---       #1212
      010001DEH   LINE      CODE     ---       #1213
      010001DEH   LINE      CODE     ---       #1214
      010001DEH   LINE      CODE     ---       #1215
      010001DEH   LINE      CODE     ---       #1216
      010001E1H   LINE      CODE     ---       #1217
      010001E7H   LINE      CODE     ---       #1218
      010001E7H   LINE      CODE     ---       #1219
      010001EBH   LINE      CODE     ---       #1220
      010001F0H   LINE      CODE     ---       #1221
      010001F6H   LINE      CODE     ---       #1222
      010001FBH   LINE      CODE     ---       #1223
      01000202H   LINE      CODE     ---       #1224
      01000202H   LINE      CODE     ---       #1225
      01000205H   LINE      CODE     ---       #1226
      01000209H   LINE      CODE     ---       #1227
      01000209H   LINE      CODE     ---       #1228
      01000213H   LINE      CODE     ---       #1230
      0100021CH   LINE      CODE     ---       #1231
      0100021CH   LINE      CODE     ---       #1232
      01000220H   LINE      CODE     ---       #1233
      01000220H   LINE      CODE     ---       #1234
      01000220H   LINE      CODE     ---       #1235
      01000220H   LINE      CODE     ---       #1236
      01000223H   LINE      CODE     ---       #1237
      0100022CH   LINE      CODE     ---       #1238
      0100022CH   LINE      CODE     ---       #1239
      01000235H   LINE      CODE     ---       #1240
      01000235H   LINE      CODE     ---       #1241
      01000241H   LINE      CODE     ---       #1242
      0100024AH   LINE      CODE     ---       #1243
      0100024AH   LINE      CODE     ---       #1244
      0100024EH   LINE      CODE     ---       #1245
      01000254H   LINE      CODE     ---       #1247
      01000271H   LINE      CODE     ---       #1248
      01000271H   LINE      CODE     ---       #1249
      01000276H   LINE      CODE     ---       #1250
      0100027EH   LINE      CODE     ---       #1251
      0100028CH   LINE      CODE     ---       #1252
      0100028EH   LINE      CODE     ---       #1254
      0100028EH   LINE      CODE     ---       #1255
      0100029BH   LINE      CODE     ---       #1256
      010002B8H   LINE      CODE     ---       #1257
      010002D4H   LINE      CODE     ---       #1258
      010002D4H   LINE      CODE     ---       #1259
      010002DBH   LINE      CODE     ---       #1260
      010002E4H   LINE      CODE     ---       #1261
      010002EDH   LINE      CODE     ---       #1262
      010002F0H   LINE      CODE     ---       #1263
LX51 LINKER/LOCATER V4.47a                                                            06/06/2015  09:44:34  PAGE 39


      010002F0H   LINE      CODE     ---       #1264
      010002F0H   LINE      CODE     ---       #1265
      010002F0H   LINE      CODE     ---       #1266
      010002F3H   LINE      CODE     ---       #1267
      010002FCH   LINE      CODE     ---       #1268
      010002FCH   LINE      CODE     ---       #1269
      01000305H   LINE      CODE     ---       #1271
      01000305H   LINE      CODE     ---       #1272
      01000311H   LINE      CODE     ---       #1273
      0100031AH   LINE      CODE     ---       #1274
      0100031AH   LINE      CODE     ---       #1275
      0100031FH   LINE      CODE     ---       #1276
      0100032EH   LINE      CODE     ---       #1277
      0100033CH   LINE      CODE     ---       #1278
      01000345H   LINE      CODE     ---       #1280
      01000352H   LINE      CODE     ---       #1281
      01000370H   LINE      CODE     ---       #1283
      01000390H   LINE      CODE     ---       #1285
      01000399H   LINE      CODE     ---       #1286
      0100039CH   LINE      CODE     ---       #1287
      010003A3H   LINE      CODE     ---       #1288
      010003A3H   LINE      CODE     ---       #1289
      010003A3H   LINE      CODE     ---       #1290
      010003A3H   LINE      CODE     ---       #1291
      010003A6H   LINE      CODE     ---       #1292
      010003ACH   LINE      CODE     ---       #1293
      010003ACH   LINE      CODE     ---       #1294
      010003B7H   LINE      CODE     ---       #1295
      010003B7H   LINE      CODE     ---       #1296
      010003C4H   LINE      CODE     ---       #1297
      010003D0H   LINE      CODE     ---       #1298
      010003D9H   LINE      CODE     ---       #1299
      010003D9H   LINE      CODE     ---       #1300
      010003E2H   LINE      CODE     ---       #1301
      010003EAH   LINE      CODE     ---       #1302
      010003EDH   LINE      CODE     ---       #1303
      010003F8H   LINE      CODE     ---       #1304
      01000402H   LINE      CODE     ---       #1305
      01000402H   LINE      CODE     ---       #1306
      01000402H   LINE      CODE     ---       #1307
      01000402H   LINE      CODE     ---       #1308
      01000405H   LINE      CODE     ---       #1309
      0100040EH   LINE      CODE     ---       #1310
      0100040EH   LINE      CODE     ---       #1311
      01000419H   LINE      CODE     ---       #1312
      01000419H   LINE      CODE     ---       #1313
      01000425H   LINE      CODE     ---       #1314
      0100042EH   LINE      CODE     ---       #1315
      0100042EH   LINE      CODE     ---       #1316
      01000437H   LINE      CODE     ---       #1317
      0100043FH   LINE      CODE     ---       #1319
      01000444H   LINE      CODE     ---       #1320
      01000457H   LINE      CODE     ---       #1321
      01000460H   LINE      CODE     ---       #1323
      01000472H   LINE      CODE     ---       #1324
      01000474H   LINE      CODE     ---       #1326
      01000488H   LINE      CODE     ---       #1327
      01000491H   LINE      CODE     ---       #1329
      010004ACH   LINE      CODE     ---       #1330
      010004ACH   LINE      CODE     ---       #1331
      010004B2H   LINE      CODE     ---       #1332
      010004B2H   LINE      CODE     ---       #1333
      010004B2H   LINE      CODE     ---       #1334
      010004B2H   LINE      CODE     ---       #1335
      010004B5H   LINE      CODE     ---       #1336
LX51 LINKER/LOCATER V4.47a                                                            06/06/2015  09:44:34  PAGE 40


      010004BBH   LINE      CODE     ---       #1337
      010004BBH   LINE      CODE     ---       #1338
      010004C6H   LINE      CODE     ---       #1339
      010004C6H   LINE      CODE     ---       #1340
      010004D3H   LINE      CODE     ---       #1341
      010004DFH   LINE      CODE     ---       #1342
      010004E8H   LINE      CODE     ---       #1343
      010004E8H   LINE      CODE     ---       #1344
      010004F1H   LINE      CODE     ---       #1345
      010004F9H   LINE      CODE     ---       #1346
      010004FCH   LINE      CODE     ---       #1347
      01000507H   LINE      CODE     ---       #1348
      01000511H   LINE      CODE     ---       #1349
      01000511H   LINE      CODE     ---       #1350
      01000511H   LINE      CODE     ---       #1351
      01000511H   LINE      CODE     ---       #1352
      01000514H   LINE      CODE     ---       #1353
      0100051DH   LINE      CODE     ---       #1354
      0100051DH   LINE      CODE     ---       #1355
      01000528H   LINE      CODE     ---       #1356
      01000528H   LINE      CODE     ---       #1357
      01000534H   LINE      CODE     ---       #1358
      0100053DH   LINE      CODE     ---       #1359
      0100053DH   LINE      CODE     ---       #1360
      01000546H   LINE      CODE     ---       #1362
      0100054EH   LINE      CODE     ---       #1364
      01000553H   LINE      CODE     ---       #1365
      01000566H   LINE      CODE     ---       #1366
      0100056EH   LINE      CODE     ---       #1368
      0100057FH   LINE      CODE     ---       #1369
      01000581H   LINE      CODE     ---       #1371
      01000595H   LINE      CODE     ---       #1372
      0100059DH   LINE      CODE     ---       #1374
      010005B7H   LINE      CODE     ---       #1375
      010005B7H   LINE      CODE     ---       #1376
      010005C0H   LINE      CODE     ---       #1377
      010005C0H   LINE      CODE     ---       #1378
      010005C0H   LINE      CODE     ---       #1379
      010005C0H   LINE      CODE     ---       #1380
      010005C3H   LINE      CODE     ---       #1381
      010005C9H   LINE      CODE     ---       #1382
      010005C9H   LINE      CODE     ---       #1383
      010005D4H   LINE      CODE     ---       #1384
      010005D4H   LINE      CODE     ---       #1385
      010005E1H   LINE      CODE     ---       #1386
      010005EDH   LINE      CODE     ---       #1387
      010005F6H   LINE      CODE     ---       #1388
      010005F6H   LINE      CODE     ---       #1389
      010005FCH   LINE      CODE     ---       #1390
      01000605H   LINE      CODE     ---       #1391
      0100060DH   LINE      CODE     ---       #1392
      01000610H   LINE      CODE     ---       #1393
      0100061BH   LINE      CODE     ---       #1394
      01000625H   LINE      CODE     ---       #1395
      01000633H   LINE      CODE     ---       #1396
      01000633H   LINE      CODE     ---       #1397
      01000633H   LINE      CODE     ---       #1398
      01000636H   LINE      CODE     ---       #1399
      0100063FH   LINE      CODE     ---       #1400
      0100063FH   LINE      CODE     ---       #1401
      0100064AH   LINE      CODE     ---       #1402
      0100064AH   LINE      CODE     ---       #1403
      01000656H   LINE      CODE     ---       #1404
      0100065FH   LINE      CODE     ---       #1405
      0100065FH   LINE      CODE     ---       #1406
LX51 LINKER/LOCATER V4.47a                                                            06/06/2015  09:44:34  PAGE 41


      01000668H   LINE      CODE     ---       #1407
      01000670H   LINE      CODE     ---       #1408
      01000673H   LINE      CODE     ---       #1409
      01000678H   LINE      CODE     ---       #1410
      0100068BH   LINE      CODE     ---       #1411
      01000693H   LINE      CODE     ---       #1413
      010006A4H   LINE      CODE     ---       #1414
      010006A6H   LINE      CODE     ---       #1416
      010006BAH   LINE      CODE     ---       #1417
      010006C2H   LINE      CODE     ---       #1419
      010006DCH   LINE      CODE     ---       #1420
      010006DCH   LINE      CODE     ---       #1421
      010006E5H   LINE      CODE     ---       #1422
      010006F3H   LINE      CODE     ---       #1423
      010006F3H   LINE      CODE     ---       #1424
      010006F3H   LINE      CODE     ---       #1425
      010006F6H   LINE      CODE     ---       #1427
      010006FCH   LINE      CODE     ---       #1428
      010006FCH   LINE      CODE     ---       #1429
      01000710H   LINE      CODE     ---       #1430
      01000715H   LINE      CODE     ---       #1431
      0100071EH   LINE      CODE     ---       #1432
      0100072DH   LINE      CODE     ---       #1433
      0100072DH   LINE      CODE     ---       #1434
      01000741H   LINE      CODE     ---       #1435
      0100074AH   LINE      CODE     ---       #1436
      0100074AH   LINE      CODE     ---       #1437
      01000753H   LINE      CODE     ---       #1438
      01000761H   LINE      CODE     ---       #1439
      01000761H   LINE      CODE     ---       #1440
      01000761H   LINE      CODE     ---       #1441
      01000764H   LINE      CODE     ---       #1442
      0100076AH   LINE      CODE     ---       #1443
      0100076AH   LINE      CODE     ---       #1444
      0100077EH   LINE      CODE     ---       #1445
      01000783H   LINE      CODE     ---       #1446
      0100078CH   LINE      CODE     ---       #1447
      0100079BH   LINE      CODE     ---       #1448
      0100079BH   LINE      CODE     ---       #1449
      010007AFH   LINE      CODE     ---       #1451
      010007B8H   LINE      CODE     ---       #1452
      010007B8H   LINE      CODE     ---       #1453
      010007C1H   LINE      CODE     ---       #1454
      010007CFH   LINE      CODE     ---       #1455
      010007CFH   LINE      CODE     ---       #1456
      010007CFH   LINE      CODE     ---       #1457
      010007D2H   LINE      CODE     ---       #1458
      010007DBH   LINE      CODE     ---       #1459
      010007DBH   LINE      CODE     ---       #1460
      010007E6H   LINE      CODE     ---       #1461
      010007E6H   LINE      CODE     ---       #1462
      010007EFH   LINE      CODE     ---       #1464
      01000801H   LINE      CODE     ---       #1465
      01000804H   LINE      CODE     ---       #1466
      01000804H   LINE      CODE     ---       #1467
      01000806H   LINE      CODE     ---       #1469
      01000806H   LINE      CODE     ---       #1470
      0100080EH   LINE      CODE     ---       #1471
      0100080EH   LINE      CODE     ---       #1472
      0100081AH   LINE      CODE     ---       #1473
      0100082CH   LINE      CODE     ---       #1474
      01000833H   LINE      CODE     ---       #1475
      01000833H   LINE      CODE     ---       #1476
      01000833H   LINE      CODE     ---       #1477
      01000840H   LINE      CODE     ---       #1479
LX51 LINKER/LOCATER V4.47a                                                            06/06/2015  09:44:34  PAGE 42


      01000849H   LINE      CODE     ---       #1480
      01000849H   LINE      CODE     ---       #1481
      01000850H   LINE      CODE     ---       #1482
      01000857H   LINE      CODE     ---       #1483
      01000865H   LINE      CODE     ---       #1484
      01000865H   LINE      CODE     ---       #1486
      01000868H   LINE      CODE     ---       #1487
      01000871H   LINE      CODE     ---       #1488
      01000871H   LINE      CODE     ---       #1489
      0100087CH   LINE      CODE     ---       #1490
      0100087CH   LINE      CODE     ---       #1491
      01000888H   LINE      CODE     ---       #1493
      0100089AH   LINE      CODE     ---       #1494
      0100089CH   LINE      CODE     ---       #1495
      0100089CH   LINE      CODE     ---       #1496
      0100089EH   LINE      CODE     ---       #1498
      0100089EH   LINE      CODE     ---       #1499
      010008A6H   LINE      CODE     ---       #1500
      010008A6H   LINE      CODE     ---       #1501
      010008B0H   LINE      CODE     ---       #1502
      010008C2H   LINE      CODE     ---       #1503
      010008C9H   LINE      CODE     ---       #1504
      010008C9H   LINE      CODE     ---       #1505
      010008C9H   LINE      CODE     ---       #1506
      010008D3H   LINE      CODE     ---       #1508
      010008DCH   LINE      CODE     ---       #1509
      010008DCH   LINE      CODE     ---       #1510
      010008E3H   LINE      CODE     ---       #1511
      010008EAH   LINE      CODE     ---       #1512
      010008F8H   LINE      CODE     ---       #1513
      010008F8H   LINE      CODE     ---       #1514
      010008FBH   LINE      CODE     ---       #1515
      01000904H   LINE      CODE     ---       #1516
      01000904H   LINE      CODE     ---       #1517
      01000912H   LINE      CODE     ---       #1518
      01000912H   LINE      CODE     ---       #1519
      01000928H   LINE      CODE     ---       #1520
      0100093FH   LINE      CODE     ---       #1521
      01000975H   LINE      CODE     ---       #1522
      01000998H   LINE      CODE     ---       #1523
      010009AAH   LINE      CODE     ---       #1524
      010009ADH   LINE      CODE     ---       #1525
      010009B0H   LINE      CODE     ---       #1527
      010009B0H   LINE      CODE     ---       #1528
      010009BBH   LINE      CODE     ---       #1529
      010009BBH   LINE      CODE     ---       #1530
      010009D2H   LINE      CODE     ---       #1531
      010009E8H   LINE      CODE     ---       #1532
      01000A1CH   LINE      CODE     ---       #1533
      01000A3EH   LINE      CODE     ---       #1534
      01000A50H   LINE      CODE     ---       #1535
      01000A57H   LINE      CODE     ---       #1536
      01000A57H   LINE      CODE     ---       #1537
      01000A57H   LINE      CODE     ---       #1538
      01000A61H   LINE      CODE     ---       #1540
      01000A6AH   LINE      CODE     ---       #1541
      01000A6AH   LINE      CODE     ---       #1542
      01000A71H   LINE      CODE     ---       #1543
      01000A78H   LINE      CODE     ---       #1544
      01000A86H   LINE      CODE     ---       #1545
      01000A86H   LINE      CODE     ---       #1546
      01000A89H   LINE      CODE     ---       #1547
      01000A92H   LINE      CODE     ---       #1548
      01000A92H   LINE      CODE     ---       #1549
      01000A9DH   LINE      CODE     ---       #1550
LX51 LINKER/LOCATER V4.47a                                                            06/06/2015  09:44:34  PAGE 43


      01000A9DH   LINE      CODE     ---       #1551
      01000AA6H   LINE      CODE     ---       #1553
      01000AB8H   LINE      CODE     ---       #1554
      01000ABBH   LINE      CODE     ---       #1555
      01000ABBH   LINE      CODE     ---       #1556
      01000ABDH   LINE      CODE     ---       #1558
      01000ABDH   LINE      CODE     ---       #1559
      01000AC5H   LINE      CODE     ---       #1560
      01000AC5H   LINE      CODE     ---       #1561
      01000ACFH   LINE      CODE     ---       #1563
      01000AE1H   LINE      CODE     ---       #1564
      01000AE8H   LINE      CODE     ---       #1565
      01000AE8H   LINE      CODE     ---       #1566
      01000AE8H   LINE      CODE     ---       #1567
      01000AE8H   LINE      CODE     ---       #1568
      01000AF2H   LINE      CODE     ---       #1569
      01000AFBH   LINE      CODE     ---       #1570
      01000AFBH   LINE      CODE     ---       #1571
      01000B02H   LINE      CODE     ---       #1572
      01000B09H   LINE      CODE     ---       #1573
      01000B17H   LINE      CODE     ---       #1574
      01000B17H   LINE      CODE     ---       #1575
      01000B1AH   LINE      CODE     ---       #1576
      01000B23H   LINE      CODE     ---       #1577
      01000B23H   LINE      CODE     ---       #1578
      01000B2EH   LINE      CODE     ---       #1579
      01000B2EH   LINE      CODE     ---       #1580
      01000B37H   LINE      CODE     ---       #1582
      01000B37H   LINE      CODE     ---       #1583
      01000B49H   LINE      CODE     ---       #1584
      01000B4CH   LINE      CODE     ---       #1585
      01000B4CH   LINE      CODE     ---       #1586
      01000B4EH   LINE      CODE     ---       #1588
      01000B4EH   LINE      CODE     ---       #1589
      01000B56H   LINE      CODE     ---       #1590
      01000B56H   LINE      CODE     ---       #1591
      01000B60H   LINE      CODE     ---       #1593
      01000B72H   LINE      CODE     ---       #1594
      01000B79H   LINE      CODE     ---       #1595
      01000B79H   LINE      CODE     ---       #1596
      01000B79H   LINE      CODE     ---       #1597
      01000B79H   LINE      CODE     ---       #1598
      01000B83H   LINE      CODE     ---       #1599
      01000B8CH   LINE      CODE     ---       #1600
      01000B8CH   LINE      CODE     ---       #1601
      01000B93H   LINE      CODE     ---       #1602
      01000B9AH   LINE      CODE     ---       #1603
      01000BABH   LINE      CODE     ---       #1604
      01000BABH   LINE      CODE     ---       #1605
      01000BAEH   LINE      CODE     ---       #1606
      01000BB8H   LINE      CODE     ---       #1607
      01000BB8H   LINE      CODE     ---       #1608
      01000BBBH   LINE      CODE     ---       #1609
      01000BBDH   LINE      CODE     ---       #1610
      01000BBDH   LINE      CODE     ---       #1611
      01000BC0H   LINE      CODE     ---       #1612
      ---         BLOCKEND  ---      ---       LVL=0

      010056BDH   BLOCK     CODE     ---       LVL=0
      010056BDH   LINE      CODE     ---       #1615
      010056BDH   LINE      CODE     ---       #1616
      010056BDH   LINE      CODE     ---       #1617
      010056C4H   LINE      CODE     ---       #1618
      010056CBH   LINE      CODE     ---       #1619
      010056D5H   LINE      CODE     ---       #1621
LX51 LINKER/LOCATER V4.47a                                                            06/06/2015  09:44:34  PAGE 44


      010056DAH   LINE      CODE     ---       #1623
      010056DAH   LINE      CODE     ---       #1624
      010056E1H   LINE      CODE     ---       #1625
      010056E8H   LINE      CODE     ---       #1626
      010056EFH   LINE      CODE     ---       #1627
      010056F9H   LINE      CODE     ---       #1628
      01005700H   LINE      CODE     ---       #1629
      01005707H   LINE      CODE     ---       #1630
      01005711H   LINE      CODE     ---       #1631
      01005711H   LINE      CODE     ---       #1633
      ---         BLOCKEND  ---      ---       LVL=0

      0100557BH   BLOCK     CODE     ---       LVL=0
      0100557BH   LINE      CODE     ---       #1655
      0100557BH   LINE      CODE     ---       #1656
      0100557BH   LINE      CODE     ---       #1657
      01005585H   LINE      CODE     ---       #1658
      0100558CH   LINE      CODE     ---       #1659
      01005593H   LINE      CODE     ---       #1660
      0100559DH   LINE      CODE     ---       #1661
      010055A4H   LINE      CODE     ---       #1662
      010055ABH   LINE      CODE     ---       #1663
      010055B2H   LINE      CODE     ---       #1665
      010055BAH   LINE      CODE     ---       #1666
      010055BAH   LINE      CODE     ---       #1667
      010055C1H   LINE      CODE     ---       #1668
      010055C8H   LINE      CODE     ---       #1669
      010055CFH   LINE      CODE     ---       #1670
      010055D6H   LINE      CODE     ---       #1671
      010055DDH   LINE      CODE     ---       #1672
      010055E4H   LINE      CODE     ---       #1673
      010055EBH   LINE      CODE     ---       #1674
      010055EBH   LINE      CODE     ---       #1675
      ---         BLOCKEND  ---      ---       LVL=0

      01004F20H   BLOCK     CODE     ---       LVL=0
      01004F20H   LINE      CODE     ---       #1677
      01004F20H   LINE      CODE     ---       #1678
      01004F20H   LINE      CODE     ---       #1679
      01004F23H   LINE      CODE     ---       #1680
      01004F2AH   LINE      CODE     ---       #1681
      01004F31H   LINE      CODE     ---       #1682
      01004F38H   LINE      CODE     ---       #1684
      01004F40H   LINE      CODE     ---       #1685
      01004F49H   LINE      CODE     ---       #1686
      01004F51H   LINE      CODE     ---       #1687
      01004F5AH   LINE      CODE     ---       #1688
      01004F62H   LINE      CODE     ---       #1689
      01004F6BH   LINE      CODE     ---       #1690
      01004F74H   LINE      CODE     ---       #1691
      01004F7DH   LINE      CODE     ---       #1692
      01004F85H   LINE      CODE     ---       #1693
      01004F8EH   LINE      CODE     ---       #1695
      01004F95H   LINE      CODE     ---       #1696
      01004F9CH   LINE      CODE     ---       #1697
      01004FA3H   LINE      CODE     ---       #1698
      01004FAAH   LINE      CODE     ---       #1699
      01004FB1H   LINE      CODE     ---       #1700
      01004FB8H   LINE      CODE     ---       #1701
      01004FBFH   LINE      CODE     ---       #1702
      01004FC6H   LINE      CODE     ---       #1703
      01004FCFH   LINE      CODE     ---       #1704
      01004FD8H   LINE      CODE     ---       #1705
      01004FE1H   LINE      CODE     ---       #1706
      01004FEAH   LINE      CODE     ---       #1707
LX51 LINKER/LOCATER V4.47a                                                            06/06/2015  09:44:34  PAGE 45


      01004FF2H   LINE      CODE     ---       #1708
      01004FFBH   LINE      CODE     ---       #1709
      ---         BLOCKEND  ---      ---       LVL=0

      01004FFEH   BLOCK     CODE     ---       LVL=0
      01004FFEH   LINE      CODE     ---       #1712
      01004FFEH   LINE      CODE     ---       #1713
      01004FFEH   LINE      CODE     ---       #1714
      01005001H   LINE      CODE     ---       #1715
      01005004H   LINE      CODE     ---       #1716
      0100500BH   LINE      CODE     ---       #1717
      01005012H   LINE      CODE     ---       #1718
      01005019H   LINE      CODE     ---       #1719
      01005022H   LINE      CODE     ---       #1720
      0100502BH   LINE      CODE     ---       #1721
      01005034H   LINE      CODE     ---       #1722
      0100503DH   LINE      CODE     ---       #1723
      01005046H   LINE      CODE     ---       #1724
      0100504FH   LINE      CODE     ---       #1726
      01005058H   LINE      CODE     ---       #1727
      01005061H   LINE      CODE     ---       #1728
      0100506AH   LINE      CODE     ---       #1729
      01005073H   LINE      CODE     ---       #1730
      0100507AH   LINE      CODE     ---       #1732
      01005081H   LINE      CODE     ---       #1733
      01005088H   LINE      CODE     ---       #1734
      0100508FH   LINE      CODE     ---       #1735
      01005096H   LINE      CODE     ---       #1736
      0100509DH   LINE      CODE     ---       #1737
      010050A4H   LINE      CODE     ---       #1738
      010050AEH   LINE      CODE     ---       #1739
      010050B7H   LINE      CODE     ---       #1740
      010050C0H   LINE      CODE     ---       #1741
      010050C9H   LINE      CODE     ---       #1742
      010050D2H   LINE      CODE     ---       #1743
      010050DBH   LINE      CODE     ---       #1745
      ---         BLOCKEND  ---      ---       LVL=0

      0100471DH   BLOCK     CODE     ---       LVL=0
      0100471DH   LINE      CODE     ---       #1749
      0100471DH   LINE      CODE     ---       #1750
      0100471DH   LINE      CODE     ---       #1751
      0100471FH   LINE      CODE     ---       #1752
      01004728H   LINE      CODE     ---       #1753
      0100472BH   LINE      CODE     ---       #1754
      0100472EH   LINE      CODE     ---       #1755
      01004730H   LINE      CODE     ---       #1757
      01004733H   LINE      CODE     ---       #1758
      01004736H   LINE      CODE     ---       #1759
      01004739H   LINE      CODE     ---       #1760
      01004742H   LINE      CODE     ---       #1761
      01004745H   LINE      CODE     ---       #1762
      01004748H   LINE      CODE     ---       #1763
      0100474BH   LINE      CODE     ---       #1764
      0100474DH   LINE      CODE     ---       #1765
      01004752H   LINE      CODE     ---       #1766
      01004752H   LINE      CODE     ---       #1767
      01004754H   LINE      CODE     ---       #1768
      01004756H   LINE      CODE     ---       #1769
      01004759H   LINE      CODE     ---       #1770
      0100475CH   LINE      CODE     ---       #1771
      0100475FH   LINE      CODE     ---       #1772
      01004768H   LINE      CODE     ---       #1773
      0100476BH   LINE      CODE     ---       #1774
      0100476EH   LINE      CODE     ---       #1775
LX51 LINKER/LOCATER V4.47a                                                            06/06/2015  09:44:34  PAGE 46


      01004771H   LINE      CODE     ---       #1776
      01004774H   LINE      CODE     ---       #1777
      01004777H   LINE      CODE     ---       #1778
      0100477AH   LINE      CODE     ---       #1779
      01004783H   LINE      CODE     ---       #1780
      01004786H   LINE      CODE     ---       #1781
      01004789H   LINE      CODE     ---       #1782
      0100478CH   LINE      CODE     ---       #1784
      0100478FH   LINE      CODE     ---       #1785
      01004792H   LINE      CODE     ---       #1786
      01004795H   LINE      CODE     ---       #1788
      01004797H   LINE      CODE     ---       #1789
      0100479AH   LINE      CODE     ---       #1790
      0100479CH   LINE      CODE     ---       #1792
      0100479FH   LINE      CODE     ---       #1793
      010047A2H   LINE      CODE     ---       #1794
      010047A4H   LINE      CODE     ---       #1796
      010047A7H   LINE      CODE     ---       #1797
      010047AAH   LINE      CODE     ---       #1798
      010047ADH   LINE      CODE     ---       #1801
      010047AFH   LINE      CODE     ---       #1802
      010047B1H   LINE      CODE     ---       #1803
      010047B4H   LINE      CODE     ---       #1804
      010047B7H   LINE      CODE     ---       #1805
      010047BAH   LINE      CODE     ---       #1806
      010047BDH   LINE      CODE     ---       #1807
      010047C0H   LINE      CODE     ---       #1808
      010047C3H   LINE      CODE     ---       #1809
      010047C9H   LINE      CODE     ---       #1810
      010047CCH   LINE      CODE     ---       #1811
      010047D2H   LINE      CODE     ---       #1812
      010047D7H   LINE      CODE     ---       #1813
      010047DAH   LINE      CODE     ---       #1815
      01004805H   LINE      CODE     ---       #1816
      01004805H   LINE      CODE     ---       #1817
      0100480CH   LINE      CODE     ---       #1818
      01004813H   LINE      CODE     ---       #1819
      0100481AH   LINE      CODE     ---       #1820
      01004821H   LINE      CODE     ---       #1821
      01004828H   LINE      CODE     ---       #1822
      0100482BH   LINE      CODE     ---       #1823
      0100482EH   LINE      CODE     ---       #1824
      0100482EH   LINE      CODE     ---       #1825
      01004831H   LINE      CODE     ---       #1826
      01004838H   LINE      CODE     ---       #1827
      0100483FH   LINE      CODE     ---       #1828
      01004846H   LINE      CODE     ---       #1829
      0100484FH   LINE      CODE     ---       #1830
      01004858H   LINE      CODE     ---       #1831
      01004861H   LINE      CODE     ---       #1832
      0100486AH   LINE      CODE     ---       #1833
      01004873H   LINE      CODE     ---       #1834
      0100487CH   LINE      CODE     ---       #1835
      01004885H   LINE      CODE     ---       #1836
      0100488EH   LINE      CODE     ---       #1837
      01004897H   LINE      CODE     ---       #1838
      010048A0H   LINE      CODE     ---       #1839
      010048A7H   LINE      CODE     ---       #1840
      010048AEH   LINE      CODE     ---       #1841
      010048B5H   LINE      CODE     ---       #1842
      010048BCH   LINE      CODE     ---       #1843
      010048C3H   LINE      CODE     ---       #1844
      010048CAH   LINE      CODE     ---       #1846
      010048D4H   LINE      CODE     ---       #1848
      010048DDH   LINE      CODE     ---       #1849
LX51 LINKER/LOCATER V4.47a                                                            06/06/2015  09:44:34  PAGE 47


      010048E6H   LINE      CODE     ---       #1850
      010048EFH   LINE      CODE     ---       #1851
      010048F8H   LINE      CODE     ---       #1852
      01004901H   LINE      CODE     ---       #1854
      0100490BH   LINE      CODE     ---       #1855
      0100490EH   LINE      CODE     ---       #1858
      01004910H   LINE      CODE     ---       #1859
      01004912H   LINE      CODE     ---       #1860
      01004914H   LINE      CODE     ---       #1861
      01004916H   LINE      CODE     ---       #1862
      01004918H   LINE      CODE     ---       #1863
      0100491BH   LINE      CODE     ---       #1865
      0100491EH   LINE      CODE     ---       #1867
      01004922H   LINE      CODE     ---       #1868
      01004929H   LINE      CODE     ---       #1869
      0100492EH   LINE      CODE     ---       #1870
      01004935H   LINE      CODE     ---       #1871
      0100493AH   LINE      CODE     ---       #1872
      01004941H   LINE      CODE     ---       #1873
      01004946H   LINE      CODE     ---       #1874
      0100494EH   LINE      CODE     ---       #1877
      0100494EH   LINE      CODE     ---       #1878
      0100494EH   LINE      CODE     ---       #1879
      01004963H   LINE      CODE     ---       #1880
      01004963H   LINE      CODE     ---       #1881
      01004963H   LINE      CODE     ---       #1882
      01004967H   LINE      CODE     ---       #1883
      01004974H   LINE      CODE     ---       #1884
      01004977H   LINE      CODE     ---       #1885
      01004979H   LINE      CODE     ---       #1887
      01004979H   LINE      CODE     ---       #1888
      0100497CH   LINE      CODE     ---       #1889
      0100497EH   LINE      CODE     ---       #1891
      0100497EH   LINE      CODE     ---       #1892
      01004981H   LINE      CODE     ---       #1893
      01004983H   LINE      CODE     ---       #1895
      01004983H   LINE      CODE     ---       #1896
      01004986H   LINE      CODE     ---       #1897
      01004988H   LINE      CODE     ---       #1899
      01004988H   LINE      CODE     ---       #1900
      0100498BH   LINE      CODE     ---       #1901
      0100498EH   LINE      CODE     ---       #1903
      01004990H   LINE      CODE     ---       #1905
      01004990H   LINE      CODE     ---       #1906
      01004993H   LINE      CODE     ---       #1907
      ---         BLOCKEND  ---      ---       LVL=0

      ---         MODULE    ---      ---       LED
      01005CCCH   PUBLIC    CONST    ---       Point_tab_LED
      01005CB0H   PUBLIC    CONST    ---       tab_LED
      00000079H   PUBLIC    DATA     BYTE      ?_LED_DATA_Write?BYTE
      010051A7H   PUBLIC    CODE     ---       _LED_DATA_Write
      0100599AH   PUBLIC    CODE     ---       LED_Init
      01005C8DH   PUBLIC    CODE     ---       _BitDly
      01005B28H   PUBLIC    CODE     ---       LED_Fill
      01002392H   PUBLIC    CODE     ---       _SETUP_LED_Disp
      01001C02H   PUBLIC    CODE     ---       _LED_Disp
      000000B0H   SFRSYM    DATA     BIT       R485_RX
      000000D8H.2 SFRSYM    DATA     BIT       CCF2
      00000098H.3 SFRSYM    DATA     BIT       TB80
      000000F6H   SFRSYM    DATA     BYTE      PCAPWM4
      00000091H   SFRSYM    DATA     BYTE      P1M0
      00000094H   SFRSYM    DATA     BYTE      P0M1
      00000090H.7 SFRSYM    DATA     BIT       non3
      000000D8H.3 SFRSYM    DATA     BIT       CCF3
LX51 LINKER/LOCATER V4.47a                                                            06/06/2015  09:44:34  PAGE 48


      00000098H.3 SFRSYM    DATA     BIT       TB81
      000000F7H   SFRSYM    DATA     BYTE      PCAPWM5
      00000095H   SFRSYM    DATA     BYTE      P2M0
      00000092H   SFRSYM    DATA     BYTE      P1M1
      00000080H   SFRSYM    DATA     BYTE      P0
      000000B0H.1 SFRSYM    DATA     BIT       R485_TX
      000000D8H.4 SFRSYM    DATA     BIT       CCF4
      00000098H.7 SFRSYM    DATA     BIT       SM00
      000000B1H   SFRSYM    DATA     BYTE      P3M0
      00000096H   SFRSYM    DATA     BYTE      P2M1
      00000090H   SFRSYM    DATA     BYTE      P1
      000000D8H.5 SFRSYM    DATA     BIT       CCF5
      00000098H.7 SFRSYM    DATA     BIT       SM01
      00000098H.6 SFRSYM    DATA     BIT       SM10
      000000B3H   SFRSYM    DATA     BYTE      P4M0
      000000B2H   SFRSYM    DATA     BYTE      P3M1
      000000A0H   SFRSYM    DATA     BYTE      P2
      00000098H.6 SFRSYM    DATA     BIT       SM11
      00000098H.5 SFRSYM    DATA     BIT       SM20
      000000E7H   SFRSYM    DATA     BYTE      ISPCR
      000000B5H   SFRSYM    DATA     BYTE      P5M0
      000000B4H   SFRSYM    DATA     BYTE      P4M1
      000000B0H   SFRSYM    DATA     BYTE      P3
      000000C0H   SFRSYM    DATA     BYTE      XICON
      000000A0H.2 SFRSYM    DATA     BIT       EEPROM_SDA
      00000080H.7 SFRSYM    DATA     BIT       DOWN_KEY
      000000B0H.4 SFRSYM    DATA     BIT       T0
      00000098H.5 SFRSYM    DATA     BIT       SM21
      000000D0H.6 SFRSYM    DATA     BIT       AC
      00000097H   SFRSYM    DATA     BYTE      EVRCR
      000000B6H   SFRSYM    DATA     BYTE      P5M1
      000000E8H   SFRSYM    DATA     BYTE      P4
      000000B0H.5 SFRSYM    DATA     BIT       T1
      00000085H   SFRSYM    DATA     BYTE      SPCON
      000000F8H   SFRSYM    DATA     BYTE      P5
      000000ADH   SFRSYM    DATA     BYTE      EIE1
      00000090H   SFRSYM    DATA     BIT       T2
      000000A8H.7 SFRSYM    DATA     BIT       EA
      000000ACH   SFRSYM    DATA     BYTE      SFRPI
      000000E1H   SFRSYM    DATA     BYTE      WDTCR
      000000C8H   SFRSYM    DATA     BYTE      P6
      000000A0H.4 SFRSYM    DATA     BIT       mV_SCL
      000000A0H   SFRSYM    DATA     BIT       KBI0
      00000090H.5 SFRSYM    DATA     BIT       SPI_MOSI
      00000090H.6 SFRSYM    DATA     BIT       SPI_MISO
      00000080H.5 SFRSYM    DATA     BIT       mA_OUT
      000000A0H.1 SFRSYM    DATA     BIT       KBI1
      00000085H   SFRSYM    DATA     BYTE      SPCTL
      000000A0H.2 SFRSYM    DATA     BIT       KBI2
      00000090H   SFRSYM    DATA     BIT       AIN0
      000000D8H.7 SFRSYM    DATA     BIT       CF
      000000AEH   SFRSYM    DATA     BYTE      AUXIP
      000000A0H.3 SFRSYM    DATA     BIT       KBI3
      00000090H.1 SFRSYM    DATA     BIT       AIN1
      000000A0H.4 SFRSYM    DATA     BIT       KBI4
      00000090H.2 SFRSYM    DATA     BIT       AIN2
      00000098H.7 SFRSYM    DATA     BIT       FE
      000000F9H   SFRSYM    DATA     BYTE      CH
      000000A0H.5 SFRSYM    DATA     BIT       KBI5
      00000090H.3 SFRSYM    DATA     BIT       AIN3
      000000A0H.6 SFRSYM    DATA     BIT       KBI6
      00000090H.4 SFRSYM    DATA     BIT       AIN4
      000000A0H.3 SFRSYM    DATA     BIT       EEPROM_SCL
      00000080H.1 SFRSYM    DATA     BIT       RTD_C
      000000A0H.7 SFRSYM    DATA     BIT       KBI7
LX51 LINKER/LOCATER V4.47a                                                            06/06/2015  09:44:34  PAGE 49


      00000090H.5 SFRSYM    DATA     BIT       AIN5
      000000A8H   SFRSYM    DATA     BYTE      IE
      00000090H.6 SFRSYM    DATA     BIT       AIN6
      000000E9H   SFRSYM    DATA     BYTE      CL
      00000090H.7 SFRSYM    DATA     BIT       AIN7
      00000090H.2 SFRSYM    DATA     BIT       CEX0
      000000FAH   SFRSYM    DATA     BYTE      CCAP0H
      000000C6H   SFRSYM    DATA     BYTE      ADCH
      00000090H.3 SFRSYM    DATA     BIT       CEX1
      000000FBH   SFRSYM    DATA     BYTE      CCAP1H
      000000B7H   SFRSYM    DATA     BYTE      IP0H
      000000A0H.2 SFRSYM    DATA     BIT       ALL_SDA
      00000090H.4 SFRSYM    DATA     BIT       CEX2
      000000FCH   SFRSYM    DATA     BYTE      CCAP2H
      000000B0H.3 SFRSYM    DATA     BIT       OFFSET_KEY
      00000090H.5 SFRSYM    DATA     BIT       CEX3
      000000FDH   SFRSYM    DATA     BYTE      CCAP3H
      00000090H.6 SFRSYM    DATA     BIT       CEX4
      000000D8H.6 SFRSYM    DATA     BIT       CR
      000000FEH   SFRSYM    DATA     BYTE      CCAP4H
      000000EAH   SFRSYM    DATA     BYTE      CCAP0L
      000000BEH   SFRSYM    DATA     BYTE      ADCL
      000000B0H.7 SFRSYM    DATA     BIT       RD
      00000090H.7 SFRSYM    DATA     BIT       CEX5
      000000C8H.6 SFRSYM    DATA     BIT       EXF2
      00000098H.4 SFRSYM    DATA     BIT       REN0
      000000FFH   SFRSYM    DATA     BYTE      CCAP5H
      000000EBH   SFRSYM    DATA     BYTE      CCAP1L
      000000DAH   SFRSYM    DATA     BYTE      CCAPM0
      000000B8H   SFRSYM    DATA     BYTE      IP0L
      00000098H.4 SFRSYM    DATA     BIT       REN1
      000000ECH   SFRSYM    DATA     BYTE      CCAP2L
      000000DBH   SFRSYM    DATA     BYTE      CCAPM1
      000000C0H.3 SFRSYM    DATA     BIT       IT2H
      000000A8H.4 SFRSYM    DATA     BIT       ES
      00000097H   SFRSYM    DATA     BYTE      TSTWD
      000000EDH   SFRSYM    DATA     BYTE      CCAP3L
      000000DCH   SFRSYM    DATA     BYTE      CCAPM2
      000000C0H.7 SFRSYM    DATA     BIT       IT3H
      000000EEH   SFRSYM    DATA     BYTE      CCAP4L
      000000DDH   SFRSYM    DATA     BYTE      CCAPM3
      000000B8H   SFRSYM    DATA     BYTE      IP
      000000EFH   SFRSYM    DATA     BYTE      CCAP5L
      000000DEH   SFRSYM    DATA     BYTE      CCAPM4
      00000098H   SFRSYM    DATA     BIT       RI
      000000DFH   SFRSYM    DATA     BYTE      CCAPM5
      000000B0H.2 SFRSYM    DATA     BIT       INT0
      000000D0H.7 SFRSYM    DATA     BIT       CY
      000000B0H.4 SFRSYM    DATA     BIT       BEEP
      00000080H.4 SFRSYM    DATA     BIT       mV_OUT
      000000B0H.3 SFRSYM    DATA     BIT       INT1
      00000098H.1 SFRSYM    DATA     BIT       TI
      000000A0H.3 SFRSYM    DATA     BIT       EEP_SCL
      000000E8H.3 SFRSYM    DATA     BIT       INT2
      000000E8H.2 SFRSYM    DATA     BIT       INT3
      000000C6H   SFRSYM    DATA     BYTE      ADCV
      0000008FH   SFRSYM    DATA     BYTE      STRETCH
      000000B8H.1 SFRSYM    DATA     BIT       PT0L
      000000B8H.3 SFRSYM    DATA     BIT       PT1L
      000000CBH   SFRSYM    DATA     BYTE      RCAP2H
      000000A0H.2 SFRSYM    DATA     BIT       RTC_SDA
      000000B8H.4 SFRSYM    DATA     BIT       PS
      000000B8H.5 SFRSYM    DATA     BIT       PT2L
      00000081H   SFRSYM    DATA     BYTE      SP
      00000090H.1 SFRSYM    DATA     BIT       T2EX
LX51 LINKER/LOCATER V4.47a                                                            06/06/2015  09:44:34  PAGE 50


      000000D9H   SFRSYM    DATA     BYTE      CMOD
      000000D8H   SFRSYM    DATA     BYTE      CCON
      0000009AH   SFRSYM    DATA     BYTE      SCFG
      000000B8H   SFRSYM    DATA     BIT       PX0L
      000000D0H.2 SFRSYM    DATA     BIT       OV
      000000B8H.2 SFRSYM    DATA     BIT       PX1L
      000000CAH   SFRSYM    DATA     BYTE      RCAP2L
      000000B8H.6 SFRSYM    DATA     BIT       PX2L
      00000090H.7 SFRSYM    DATA     BIT       SPI_CLK
      000000B8H.7 SFRSYM    DATA     BIT       PX3L
      000000E6H   SFRSYM    DATA     BYTE      SCMD
      000000B0H.6 SFRSYM    DATA     BIT       WR
      000000C8H.1 SFRSYM    DATA     BIT       C_T2
      00000084H   SFRSYM    DATA     BYTE      SPISTAT
      00000090H.6 SFRSYM    DATA     BIT       RTC_SCL
      000000C8H.5 SFRSYM    DATA     BIT       RCLK
      000000C8H.4 SFRSYM    DATA     BIT       TCLK
      00000080H   SFRSYM    DATA     BIT       P00
      000000E3H   SFRSYM    DATA     BYTE      IFADRH
      00000090H   SFRSYM    DATA     BIT       P10
      00000080H.1 SFRSYM    DATA     BIT       P01
      000000E5H   SFRSYM    DATA     BYTE      IFMT
      00000087H   SFRSYM    DATA     BYTE      PCON
      00000099H   SFRSYM    DATA     BYTE      SBUF
      000000A0H   SFRSYM    DATA     BIT       P20
      00000090H.1 SFRSYM    DATA     BIT       P11
      00000080H.2 SFRSYM    DATA     BIT       P02
      000000B0H   SFRSYM    DATA     BIT       P30
      000000A0H.1 SFRSYM    DATA     BIT       P21
      00000090H.2 SFRSYM    DATA     BIT       P12
      00000080H.3 SFRSYM    DATA     BIT       P03
      000000B0H.2 SFRSYM    DATA     BIT       FUNCTION_KEY
      000000E8H   SFRSYM    DATA     BIT       P40
      000000B0H.1 SFRSYM    DATA     BIT       P31
      000000A0H.2 SFRSYM    DATA     BIT       P22
      00000090H.3 SFRSYM    DATA     BIT       P13
      00000080H.4 SFRSYM    DATA     BIT       P04
      000000E4H   SFRSYM    DATA     BYTE      IFADRL
      00000098H   SFRSYM    DATA     BYTE      SCON
      000000F8H   SFRSYM    DATA     BIT       P50
      000000E8H.1 SFRSYM    DATA     BIT       P41
      000000B0H.2 SFRSYM    DATA     BIT       P32
      000000A0H.3 SFRSYM    DATA     BIT       P23
      00000090H.4 SFRSYM    DATA     BIT       P14
      00000080H.5 SFRSYM    DATA     BIT       P05
      00000089H   SFRSYM    DATA     BYTE      TMOD
      00000088H   SFRSYM    DATA     BYTE      TCON
      000000C8H   SFRSYM    DATA     BIT       P60
      000000F8H.1 SFRSYM    DATA     BIT       P51
      000000E8H.2 SFRSYM    DATA     BIT       P42
      000000B0H.3 SFRSYM    DATA     BIT       P33
      000000A0H.4 SFRSYM    DATA     BIT       P24
      00000090H.5 SFRSYM    DATA     BIT       P15
      00000080H.6 SFRSYM    DATA     BIT       P06
      000000A0H.5 SFRSYM    DATA     BIT       TEMP
      000000C8H.1 SFRSYM    DATA     BIT       P61
      000000F8H.2 SFRSYM    DATA     BIT       P52
      000000E8H.3 SFRSYM    DATA     BIT       P43
      000000B0H.4 SFRSYM    DATA     BIT       P34
      000000A0H.5 SFRSYM    DATA     BIT       P25
      00000090H.6 SFRSYM    DATA     BIT       P16
      00000080H.7 SFRSYM    DATA     BIT       P07
      000000F8H.3 SFRSYM    DATA     BIT       P53
      000000E8H.4 SFRSYM    DATA     BIT       P44
      000000B0H.5 SFRSYM    DATA     BIT       P35
LX51 LINKER/LOCATER V4.47a                                                            06/06/2015  09:44:34  PAGE 51


      000000A0H.6 SFRSYM    DATA     BIT       P26
      00000090H.7 SFRSYM    DATA     BIT       P17
      000000A0H   SFRSYM    DATA     BIT       Value_SDA
      000000E8H.5 SFRSYM    DATA     BIT       P45
      000000B0H.6 SFRSYM    DATA     BIT       P36
      000000A0H.7 SFRSYM    DATA     BIT       P27
      00000080H   SFRSYM    DATA     BIT       TC_C
      000000E8H.6 SFRSYM    DATA     BIT       P46
      000000B0H.7 SFRSYM    DATA     BIT       P37
      000000E8H.7 SFRSYM    DATA     BIT       P47
      000000D7H   SFRSYM    DATA     BYTE      KBMASK
      000000A0H.4 SFRSYM    DATA     BIT       OUT_SCL
      000000A0H   SFRSYM    DATA     BIT       AD_SDA
      00000088H.1 SFRSYM    DATA     BIT       IE0
      00000088H.3 SFRSYM    DATA     BIT       IE1
      00000090H   SFRSYM    DATA     BIT       LED1_SDA
      000000C0H.1 SFRSYM    DATA     BIT       IE2
      00000090H.3 SFRSYM    DATA     BIT       LED2_SDA
      000000C0H.5 SFRSYM    DATA     BIT       IE3
      000000A8H.6 SFRSYM    DATA     BIT       GF4
      0000008EH   SFRSYM    DATA     BYTE      AUXR
      000000F0H   SFRSYM    DATA     BYTE      B
      000000D5H   SFRSYM    DATA     BYTE      KBPATN
      000000A0H.1 SFRSYM    DATA     BIT       Value_SCL
      000000C8H   SFRSYM    DATA     BIT       CP_RL2
      000000A0H.6 SFRSYM    DATA     BIT       NONE_4
      000000A0H.7 SFRSYM    DATA     BIT       NONE_5
      000000B0H.6 SFRSYM    DATA     BIT       NONE_6
      00000086H   SFRSYM    DATA     BYTE      SPIDAT
      000000E0H   SFRSYM    DATA     BYTE      ACC
      000000B0H.7 SFRSYM    DATA     BIT       NONE_7
      000000A0H.1 SFRSYM    DATA     BIT       AD_SCL
      000000A8H.4 SFRSYM    DATA     BIT       ES0
      000000A8H.1 SFRSYM    DATA     BIT       ET0
      00000090H.2 SFRSYM    DATA     BIT       LED1_SCL
      00000088H.5 SFRSYM    DATA     BIT       TF0
      000000A8H.3 SFRSYM    DATA     BIT       ET1
      00000090H.4 SFRSYM    DATA     BIT       LED2_SCL
      00000088H.7 SFRSYM    DATA     BIT       TF1
      00000098H   SFRSYM    DATA     BIT       RI0
      000000A8H.5 SFRSYM    DATA     BIT       ET2
      000000C8H.7 SFRSYM    DATA     BIT       TF2
      00000098H   SFRSYM    DATA     BIT       RI1
      00000098H.2 SFRSYM    DATA     BIT       RB8
      0000008CH   SFRSYM    DATA     BYTE      TH0
      00000088H   SFRSYM    DATA     BIT       IT0
      00000098H.1 SFRSYM    DATA     BIT       TI0
      000000A8H   SFRSYM    DATA     BIT       EX0
      0000008DH   SFRSYM    DATA     BYTE      TH1
      00000088H.2 SFRSYM    DATA     BIT       IT1
      00000098H.1 SFRSYM    DATA     BIT       TI1
      00000098H.3 SFRSYM    DATA     BIT       TB8
      000000A8H.2 SFRSYM    DATA     BIT       EX1
      00000085H   SFRSYM    DATA     BYTE      SPICON
      000000CDH   SFRSYM    DATA     BYTE      TH2
      000000C0H   SFRSYM    DATA     BIT       IT2
      000000C0H.2 SFRSYM    DATA     BIT       EX2
      000000D0H   SFRSYM    DATA     BIT       P
      000000C0H.4 SFRSYM    DATA     BIT       IT3
      000000C0H.6 SFRSYM    DATA     BIT       EX3
      00000098H.7 SFRSYM    DATA     BIT       SM0
      0000008AH   SFRSYM    DATA     BYTE      TL0
      00000080H.3 SFRSYM    DATA     BIT       mA_C
      000000C8H   SFRSYM    DATA     BIT       XOUT
      00000090H.1 SFRSYM    DATA     BIT       ECI
LX51 LINKER/LOCATER V4.47a                                                            06/06/2015  09:44:34  PAGE 52


      00000098H.6 SFRSYM    DATA     BIT       SM1
      00000085H   SFRSYM    DATA     BYTE      SPICTL
      0000008BH   SFRSYM    DATA     BYTE      TL1
      000000AFH   SFRSYM    DATA     BYTE      AUXIPH
      000000E8H.6 SFRSYM    DATA     BIT       ALE
      00000098H.5 SFRSYM    DATA     BIT       SM2
      000000CCH   SFRSYM    DATA     BYTE      TL2
      000000E2H   SFRSYM    DATA     BYTE      IFD
      000000B8H.1 SFRSYM    DATA     BIT       PT0
      000000B0H.5 SFRSYM    DATA     BIT       R485_DE_RE
      000000B8H.3 SFRSYM    DATA     BIT       PT1
      000000D0H.3 SFRSYM    DATA     BIT       RS0
      00000088H.4 SFRSYM    DATA     BIT       TR0
      000000B8H.5 SFRSYM    DATA     BIT       PT2
      000000D0H.4 SFRSYM    DATA     BIT       RS1
      00000088H.6 SFRSYM    DATA     BIT       TR1
      000000C8H.2 SFRSYM    DATA     BIT       TR2
      000000B8H   SFRSYM    DATA     BIT       PX0
      000000AFH   SFRSYM    DATA     BYTE      EIP1H
      000000B8H.2 SFRSYM    DATA     BIT       PX1
      000000C0H.3 SFRSYM    DATA     BIT       PX2
      000000C0H.7 SFRSYM    DATA     BIT       PX3
      000000AEH   SFRSYM    DATA     BYTE      EIP1L
      00000083H   SFRSYM    DATA     BYTE      DPH
      000000C8H   SFRSYM    DATA     BIT       CKO
      00000082H   SFRSYM    DATA     BYTE      DPL
      00000087H   SFRSYM    DATA     BYTE      PCON0
      00000084H   SFRSYM    DATA     BYTE      SPSTAT
      00000099H   SFRSYM    DATA     BYTE      SBUF0
      000000B7H   SFRSYM    DATA     BYTE      IPH
      000000B0H.4 SFRSYM    DATA     BIT       T0CKO
      00000097H   SFRSYM    DATA     BYTE      PCON1
      00000099H   SFRSYM    DATA     BYTE      SBUF1
      000000B0H.5 SFRSYM    DATA     BIT       T1CKO
      000000C8H.3 SFRSYM    DATA     BIT       EXEN2
      000000C7H   SFRSYM    DATA     BYTE      PCON2
      0000009AH   SFRSYM    DATA     BYTE      S2BUF
      00000098H   SFRSYM    DATA     BYTE      SCON0
      00000098H.4 SFRSYM    DATA     BIT       REN
      00000098H   SFRSYM    DATA     BYTE      SCON1
      00000080H.2 SFRSYM    DATA     BIT       mV_C
      000000C5H   SFRSYM    DATA     BYTE      ADCON
      000000A0H.2 SFRSYM    DATA     BIT       mA_SDA
      000000C9H   SFRSYM    DATA     BYTE      T2MOD
      000000C8H   SFRSYM    DATA     BYTE      T2CON
      000000C5H   SFRSYM    DATA     BYTE      ADCTL
      000000BEH   SFRSYM    DATA     BYTE      ADCVL
      000000B9H   SFRSYM    DATA     BYTE      SADEN
      0000009AH   SFRSYM    DATA     BYTE      S1BRT
      000000B0H   SFRSYM    DATA     BIT       RXD
      000000D6H   SFRSYM    DATA     BYTE      KBCON
      00000080H.6 SFRSYM    DATA     BIT       UP_KEY
      000000C8H.1 SFRSYM    DATA     BIT       XIN
      000000B8H.4 SFRSYM    DATA     BIT       PSL
      000000A9H   SFRSYM    DATA     BYTE      SADDR
      000000B0H.1 SFRSYM    DATA     BIT       TXD
      000000A0H.4 SFRSYM    DATA     BIT       mA_SCL
      0000008EH   SFRSYM    DATA     BYTE      AUXR0
      000000A2H   SFRSYM    DATA     BYTE      AUXR1
      00000090H.4 SFRSYM    DATA     BIT       SPI_SS
      000000A6H   SFRSYM    DATA     BYTE      AUXR2
      00000090H.2 SFRSYM    DATA     BIT       S2RXD
      000000D0H.5 SFRSYM    DATA     BIT       F0
      000000B0H.4 SFRSYM    DATA     BIT       BEEP_OUT
      00000090H.3 SFRSYM    DATA     BIT       S2TXD
LX51 LINKER/LOCATER V4.47a                                                            06/06/2015  09:44:34  PAGE 53


      000000D0H.1 SFRSYM    DATA     BIT       F1
      00000090H.1 SFRSYM    DATA     BIT       LED1_LE
      00000090H.5 SFRSYM    DATA     BIT       LED2_LE
      000000F2H   SFRSYM    DATA     BYTE      PCAPWM0
      000000D0H   SFRSYM    DATA     BYTE      PSW
      000000F3H   SFRSYM    DATA     BYTE      PCAPWM1
      000000A0H.2 SFRSYM    DATA     BIT       mV_SDA
      000000D8H   SFRSYM    DATA     BIT       CCF0
      00000098H.2 SFRSYM    DATA     BIT       RB80
      000000F4H   SFRSYM    DATA     BYTE      PCAPWM2
      000000D8H.1 SFRSYM    DATA     BIT       CCF1
      00000098H.2 SFRSYM    DATA     BIT       RB81
      000000F5H   SFRSYM    DATA     BYTE      PCAPWM3
      00000086H   SFRSYM    DATA     BYTE      SPDAT
      00000093H   SFRSYM    DATA     BYTE      P0M0
      000000ADH   SFRSYM    DATA     BYTE      AUXIE

      01001C02H   BLOCK     CODE     ---       LVL=0
      00000007H   SYMBOL    DATA     BYTE      LEDs
      00000004H   SYMBOL    DATA     WORD      disp_value
      01001C02H   BLOCK     CODE     NEAR LAB  LVL=1
      00000007H   SYMBOL    DATA     BYTE      c
      0000006CH   SYMBOL    DATA     BYTE      D0
      0000006DH   SYMBOL    DATA     BYTE      D1
      0000006EH   SYMBOL    DATA     BYTE      D2
      0000006FH   SYMBOL    DATA     BYTE      D3
      00000070H   SYMBOL    DATA     BYTE      D4
      00000071H   SYMBOL    DATA     BYTE      D5
      00000072H   SYMBOL    DATA     WORD      D_value
      ---         BLOCKEND  ---      ---       LVL=1
      01001C02H   LINE      CODE     ---       #20
      01001C02H   LINE      CODE     ---       #21
      01001C02H   LINE      CODE     ---       #22
      01001C02H   LINE      CODE     ---       #23
      01001C05H   LINE      CODE     ---       #24
      01001C07H   LINE      CODE     ---       #25
      01001C09H   LINE      CODE     ---       #26
      01001C0BH   LINE      CODE     ---       #27
      01001C0DH   LINE      CODE     ---       #28
      01001C0FH   LINE      CODE     ---       #31
      01001C13H   LINE      CODE     ---       #32
      01001C13H   LINE      CODE     ---       #34
      01001C1CH   LINE      CODE     ---       #35
      01001C1CH   LINE      CODE     ---       #36
      01001C27H   LINE      CODE     ---       #37
      01001C27H   LINE      CODE     ---       #38
      01001C2EH   LINE      CODE     ---       #39
      01001C30H   LINE      CODE     ---       #40
      01001C32H   LINE      CODE     ---       #41
      01001C37H   LINE      CODE     ---       #42
      01001C41H   LINE      CODE     ---       #43
      01001C59H   LINE      CODE     ---       #44
      01001C63H   LINE      CODE     ---       #45
      01001C63H   LINE      CODE     ---       #46
      01001C66H   LINE      CODE     ---       #47
      01001C7BH   LINE      CODE     ---       #48
      01001C7BH   LINE      CODE     ---       #49
      01001C82H   LINE      CODE     ---       #50
      01001C84H   LINE      CODE     ---       #51
      01001C86H   LINE      CODE     ---       #52
      01001C98H   LINE      CODE     ---       #53
      01001CAAH   LINE      CODE     ---       #54
      01001CADH   LINE      CODE     ---       #55
      01001CADH   LINE      CODE     ---       #56
      01001CB0H   LINE      CODE     ---       #57
LX51 LINKER/LOCATER V4.47a                                                            06/06/2015  09:44:34  PAGE 54


      01001CC5H   LINE      CODE     ---       #58
      01001CC5H   LINE      CODE     ---       #59
      01001CCCH   LINE      CODE     ---       #60
      01001CCEH   LINE      CODE     ---       #61
      01001CD5H   LINE      CODE     ---       #62
      01001CDEH   LINE      CODE     ---       #63
      01001CF3H   LINE      CODE     ---       #67
      01001D08H   LINE      CODE     ---       #68
      01001D08H   LINE      CODE     ---       #69
      01001D0FH   LINE      CODE     ---       #70
      01001D16H   LINE      CODE     ---       #71
      01001D2FH   LINE      CODE     ---       #72
      01001D38H   LINE      CODE     ---       #73
      01001D4DH   LINE      CODE     ---       #77
      01001D72H   LINE      CODE     ---       #78
      01001D72H   LINE      CODE     ---       #79
      01001D79H   LINE      CODE     ---       #80
      01001D92H   LINE      CODE     ---       #81
      01001DB8H   LINE      CODE     ---       #82
      01001DC1H   LINE      CODE     ---       #83
      01001DD0H   LINE      CODE     ---       #84
      01001DD0H   LINE      CODE     ---       #85
      01001DD0H   LINE      CODE     ---       #86
      01001DD0H   LINE      CODE     ---       #87
      01001DD3H   LINE      CODE     ---       #89
      01001DD3H   LINE      CODE     ---       #90
      01001DDEH   LINE      CODE     ---       #91
      01001DDEH   LINE      CODE     ---       #92
      01001DE5H   LINE      CODE     ---       #93
      01001DE7H   LINE      CODE     ---       #94
      01001DE9H   LINE      CODE     ---       #96
      01001E01H   LINE      CODE     ---       #97
      01001E1DH   LINE      CODE     ---       #98
      01001E30H   LINE      CODE     ---       #99
      01001E30H   LINE      CODE     ---       #100
      01001E33H   LINE      CODE     ---       #101
      01001E4EH   LINE      CODE     ---       #102
      01001E4EH   LINE      CODE     ---       #103
      01001E55H   LINE      CODE     ---       #104
      01001E57H   LINE      CODE     ---       #105
      01001E59H   LINE      CODE     ---       #107
      01001E97H   LINE      CODE     ---       #108
      01001EDCH   LINE      CODE     ---       #109
      01001F12H   LINE      CODE     ---       #110
      01001F12H   LINE      CODE     ---       #111
      01001F15H   LINE      CODE     ---       #112
      01001F30H   LINE      CODE     ---       #113
      01001F30H   LINE      CODE     ---       #114
      01001F37H   LINE      CODE     ---       #115
      01001F39H   LINE      CODE     ---       #116
      01001F3BH   LINE      CODE     ---       #118
      01001F98H   LINE      CODE     ---       #119
      01001FFCH   LINE      CODE     ---       #120
      01002051H   LINE      CODE     ---       #121
      01002051H   LINE      CODE     ---       #122
      01002054H   LINE      CODE     ---       #123
      0100206FH   LINE      CODE     ---       #124
      0100206FH   LINE      CODE     ---       #125
      01002076H   LINE      CODE     ---       #126
      01002078H   LINE      CODE     ---       #127
      01002091H   LINE      CODE     ---       #129
      010020FCH   LINE      CODE     ---       #130
      0100216DH   LINE      CODE     ---       #131
      010021CFH   LINE      CODE     ---       #132
      010021CFH   LINE      CODE     ---       #133
LX51 LINKER/LOCATER V4.47a                                                            06/06/2015  09:44:34  PAGE 55


      010021D2H   LINE      CODE     ---       #134
      010021F7H   LINE      CODE     ---       #135
      010021F7H   LINE      CODE     ---       #136
      010021FEH   LINE      CODE     ---       #137
      01002217H   LINE      CODE     ---       #138
      0100223DH   LINE      CODE     ---       #140
      010022A8H   LINE      CODE     ---       #141
      01002318H   LINE      CODE     ---       #142
      0100237DH   LINE      CODE     ---       #143
      0100237DH   LINE      CODE     ---       #144
      0100237DH   LINE      CODE     ---       #145
      0100237DH   LINE      CODE     ---       #146
      ---         BLOCKEND  ---      ---       LVL=0

      01002392H   BLOCK     CODE     ---       LVL=0
      00000007H   SYMBOL    DATA     BYTE      SETUP_SELECT
      0000006DH   SYMBOL    DATA     WORD      disp_value
      01002396H   BLOCK     CODE     NEAR LAB  LVL=1
      0000006FH   SYMBOL    DATA     BYTE      setup_status
      00000070H   SYMBOL    DATA     BYTE      D0
      00000071H   SYMBOL    DATA     BYTE      D1
      00000072H   SYMBOL    DATA     BYTE      D2
      00000073H   SYMBOL    DATA     BYTE      D3
      00000074H   SYMBOL    DATA     BYTE      D4
      00000075H   SYMBOL    DATA     BYTE      D5
      00000076H   SYMBOL    DATA     BYTE      D6
      00000007H   SYMBOL    DATA     BYTE      K2
      00000003H   SYMBOL    DATA     BYTE      K3
      00000004H   SYMBOL    DATA     BYTE      K4
      00000005H   SYMBOL    DATA     BYTE      K5
      00000077H   SYMBOL    DATA     WORD      D_Value
      00000006H   SYMBOL    DATA     WORD      D_Count
      ---         BLOCKEND  ---      ---       LVL=1
      01002392H   LINE      CODE     ---       #149
      01002396H   LINE      CODE     ---       #150
      01002396H   LINE      CODE     ---       #155
      01002398H   LINE      CODE     ---       #157
      0100239CH   LINE      CODE     ---       #159
      010023A0H   LINE      CODE     ---       #160
      010023A0H   LINE      CODE     ---       #161
      010023A7H   LINE      CODE     ---       #162
      010023AEH   LINE      CODE     ---       #163
      010023B5H   LINE      CODE     ---       #164
      010023BCH   LINE      CODE     ---       #165
      010023C3H   LINE      CODE     ---       #166
      010023C5H   LINE      CODE     ---       #167
      010023C8H   LINE      CODE     ---       #168
      010023D1H   LINE      CODE     ---       #169
      010023D1H   LINE      CODE     ---       #170
      010023D5H   LINE      CODE     ---       #171
      010023D5H   LINE      CODE     ---       #172
      010023DBH   LINE      CODE     ---       #173
      010023E2H   LINE      CODE     ---       #174
      010023E9H   LINE      CODE     ---       #175
      010023EBH   LINE      CODE     ---       #176
      010023F2H   LINE      CODE     ---       #177
      010023F7H   LINE      CODE     ---       #178
      010023F7H   LINE      CODE     ---       #179
      010023FDH   LINE      CODE     ---       #180
      010023FDH   LINE      CODE     ---       #181
      01002403H   LINE      CODE     ---       #182
      0100240AH   LINE      CODE     ---       #183
      01002411H   LINE      CODE     ---       #184
      01002418H   LINE      CODE     ---       #185
      0100241FH   LINE      CODE     ---       #186
LX51 LINKER/LOCATER V4.47a                                                            06/06/2015  09:44:34  PAGE 56


      01002426H   LINE      CODE     ---       #187
      01002426H   LINE      CODE     ---       #188
      0100242CH   LINE      CODE     ---       #189
      0100242CH   LINE      CODE     ---       #190
      01002432H   LINE      CODE     ---       #191
      01002439H   LINE      CODE     ---       #192
      01002440H   LINE      CODE     ---       #193
      01002442H   LINE      CODE     ---       #194
      01002444H   LINE      CODE     ---       #195
      0100244BH   LINE      CODE     ---       #196
      0100244BH   LINE      CODE     ---       #197
      01002454H   LINE      CODE     ---       #198
      01002454H   LINE      CODE     ---       #199
      0100245AH   LINE      CODE     ---       #200
      01002461H   LINE      CODE     ---       #201
      01002468H   LINE      CODE     ---       #202
      0100246AH   LINE      CODE     ---       #203
      0100246CH   LINE      CODE     ---       #204
      0100246FH   LINE      CODE     ---       #205
      0100246FH   LINE      CODE     ---       #206
      01002472H   LINE      CODE     ---       #207
      01002478H   LINE      CODE     ---       #208
      01002478H   LINE      CODE     ---       #209
      0100247CH   LINE      CODE     ---       #210
      0100247CH   LINE      CODE     ---       #211
      01002482H   LINE      CODE     ---       #212
      01002489H   LINE      CODE     ---       #213
      01002490H   LINE      CODE     ---       #214
      01002492H   LINE      CODE     ---       #215
      01002494H   LINE      CODE     ---       #216
      01002497H   LINE      CODE     ---       #217
      0100249AH   LINE      CODE     ---       #218
      010024A3H   LINE      CODE     ---       #219
      010024A3H   LINE      CODE     ---       #220
      010024A9H   LINE      CODE     ---       #221
      010024B0H   LINE      CODE     ---       #222
      010024B7H   LINE      CODE     ---       #223
      010024B9H   LINE      CODE     ---       #224
      010024BBH   LINE      CODE     ---       #225
      010024BEH   LINE      CODE     ---       #226
      010024BEH   LINE      CODE     ---       #227
      010024C1H   LINE      CODE     ---       #228
      010024CAH   LINE      CODE     ---       #229
      010024CAH   LINE      CODE     ---       #230
      010024CEH   LINE      CODE     ---       #231
      010024D4H   LINE      CODE     ---       #232
      010024DBH   LINE      CODE     ---       #233
      010024E2H   LINE      CODE     ---       #234
      010024E4H   LINE      CODE     ---       #235
      010024E7H   LINE      CODE     ---       #236
      010024E9H   LINE      CODE     ---       #237
      010024E9H   LINE      CODE     ---       #238
      010024EFH   LINE      CODE     ---       #239
      010024F5H   LINE      CODE     ---       #240
      010024FCH   LINE      CODE     ---       #241
      01002503H   LINE      CODE     ---       #242
      01002505H   LINE      CODE     ---       #243
      0100250CH   LINE      CODE     ---       #244
      01002513H   LINE      CODE     ---       #245
      01002513H   LINE      CODE     ---       #246
      01002519H   LINE      CODE     ---       #247
      0100251FH   LINE      CODE     ---       #248
      01002526H   LINE      CODE     ---       #249
      0100252DH   LINE      CODE     ---       #250
      0100252FH   LINE      CODE     ---       #251
LX51 LINKER/LOCATER V4.47a                                                            06/06/2015  09:44:34  PAGE 57


      01002536H   LINE      CODE     ---       #252
      0100253DH   LINE      CODE     ---       #253
      0100253DH   LINE      CODE     ---       #254
      01002543H   LINE      CODE     ---       #255
      01002549H   LINE      CODE     ---       #256
      01002550H   LINE      CODE     ---       #257
      01002557H   LINE      CODE     ---       #258
      01002559H   LINE      CODE     ---       #259
      01002560H   LINE      CODE     ---       #260
      01002567H   LINE      CODE     ---       #261
      01002567H   LINE      CODE     ---       #262
      0100256DH   LINE      CODE     ---       #263
      01002573H   LINE      CODE     ---       #264
      0100257AH   LINE      CODE     ---       #265
      01002581H   LINE      CODE     ---       #266
      01002583H   LINE      CODE     ---       #267
      0100258AH   LINE      CODE     ---       #268
      01002591H   LINE      CODE     ---       #269
      01002591H   LINE      CODE     ---       #270
      0100259AH   LINE      CODE     ---       #271
      010025A0H   LINE      CODE     ---       #272
      010025A7H   LINE      CODE     ---       #273
      010025AEH   LINE      CODE     ---       #274
      010025B0H   LINE      CODE     ---       #275
      010025B3H   LINE      CODE     ---       #276
      010025B5H   LINE      CODE     ---       #277
      010025B5H   LINE      CODE     ---       #295
      010025B8H   LINE      CODE     ---       #296
      010025CCH   LINE      CODE     ---       #297
      010025CCH   LINE      CODE     ---       #298
      010025D2H   LINE      CODE     ---       #300
      010025D7H   LINE      CODE     ---       #301
      010025D7H   LINE      CODE     ---       #302
      010025DAH   LINE      CODE     ---       #303
      010025DAH   LINE      CODE     ---       #304
      010025DAH   LINE      CODE     ---       #305
      010025DCH   LINE      CODE     ---       #306
      010025E1H   LINE      CODE     ---       #307
      010025E1H   LINE      CODE     ---       #308
      010025E4H   LINE      CODE     ---       #309
      010025E4H   LINE      CODE     ---       #310
      010025E4H   LINE      CODE     ---       #311
      010025E6H   LINE      CODE     ---       #312
      010025EBH   LINE      CODE     ---       #313
      010025EBH   LINE      CODE     ---       #314
      010025EEH   LINE      CODE     ---       #315
      010025EEH   LINE      CODE     ---       #316
      010025EEH   LINE      CODE     ---       #317
      010025F0H   LINE      CODE     ---       #318
      010025F5H   LINE      CODE     ---       #319
      010025F5H   LINE      CODE     ---       #320
      010025F8H   LINE      CODE     ---       #321
      010025F8H   LINE      CODE     ---       #322
      010025F8H   LINE      CODE     ---       #323
      010025FAH   LINE      CODE     ---       #324
      010025FFH   LINE      CODE     ---       #325
      010025FFH   LINE      CODE     ---       #326
      01002602H   LINE      CODE     ---       #327
      01002602H   LINE      CODE     ---       #328
      01002602H   LINE      CODE     ---       #329
      01002604H   LINE      CODE     ---       #330
      01002609H   LINE      CODE     ---       #331
      01002609H   LINE      CODE     ---       #332
      0100260CH   LINE      CODE     ---       #333
      0100260CH   LINE      CODE     ---       #334
LX51 LINKER/LOCATER V4.47a                                                            06/06/2015  09:44:34  PAGE 58


      0100260CH   LINE      CODE     ---       #335
      0100260EH   LINE      CODE     ---       #336
      01002613H   LINE      CODE     ---       #337
      01002613H   LINE      CODE     ---       #338
      0100261AH   LINE      CODE     ---       #339
      0100261DH   LINE      CODE     ---       #340
      0100261DH   LINE      CODE     ---       #341
      0100261FH   LINE      CODE     ---       #342
      01002624H   LINE      CODE     ---       #343
      01002624H   LINE      CODE     ---       #344
      0100262BH   LINE      CODE     ---       #345
      0100262EH   LINE      CODE     ---       #346
      0100262EH   LINE      CODE     ---       #347
      01002630H   LINE      CODE     ---       #348
      01002635H   LINE      CODE     ---       #349
      01002635H   LINE      CODE     ---       #350
      0100263CH   LINE      CODE     ---       #351
      01002643H   LINE      CODE     ---       #352
      01002643H   LINE      CODE     ---       #353
      01002645H   LINE      CODE     ---       #354
      0100264AH   LINE      CODE     ---       #355
      0100264AH   LINE      CODE     ---       #356
      01002651H   LINE      CODE     ---       #357
      01002658H   LINE      CODE     ---       #358
      0100265BH   LINE      CODE     ---       #359
      0100265BH   LINE      CODE     ---       #360
      0100266CH   LINE      CODE     ---       #361
      0100266CH   LINE      CODE     ---       #362
      01002673H   LINE      CODE     ---       #363
      01002675H   LINE      CODE     ---       #364
      0100267DH   LINE      CODE     ---       #365
      0100267DH   LINE      CODE     ---       #366
      01002680H   LINE      CODE     ---       #367
      01002682H   LINE      CODE     ---       #369
      01002682H   LINE      CODE     ---       #370
      01002689H   LINE      CODE     ---       #371
      01002689H   LINE      CODE     ---       #372
      010026A2H   LINE      CODE     ---       #373
      010026A2H   LINE      CODE     ---       #374
      010026B7H   LINE      CODE     ---       #375
      010026B7H   LINE      CODE     ---       #376
      010026BEH   LINE      CODE     ---       #377
      010026C0H   LINE      CODE     ---       #378
      010026F4H   LINE      CODE     ---       #379
      0100270DH   LINE      CODE     ---       #380
      0100270DH   LINE      CODE     ---       #381
      01002728H   LINE      CODE     ---       #382
      01002728H   LINE      CODE     ---       #383
      0100272FH   LINE      CODE     ---       #384
      01002748H   LINE      CODE     ---       #385
      01002796H   LINE      CODE     ---       #386
      010027AFH   LINE      CODE     ---       #387
      010027AFH   LINE      CODE     ---       #388
      010027CAH   LINE      CODE     ---       #389
      010027CAH   LINE      CODE     ---       #390
      010027E3H   LINE      CODE     ---       #391
      01002809H   LINE      CODE     ---       #392
      01002857H   LINE      CODE     ---       #393
      01002870H   LINE      CODE     ---       #394
      01002870H   LINE      CODE     ---       #395
      01002895H   LINE      CODE     ---       #396
      01002895H   LINE      CODE     ---       #397
      010028AEH   LINE      CODE     ---       #398
      010028D4H   LINE      CODE     ---       #399
      010028FAH   LINE      CODE     ---       #400
LX51 LINKER/LOCATER V4.47a                                                            06/06/2015  09:44:34  PAGE 59


      01002948H   LINE      CODE     ---       #401
      0100295EH   LINE      CODE     ---       #402
      0100295EH   LINE      CODE     ---       #403
      01002961H   LINE      CODE     ---       #404
      01002971H   LINE      CODE     ---       #405
      01002971H   LINE      CODE     ---       #406
      01002976H   LINE      CODE     ---       #407
      01002976H   LINE      CODE     ---       #408
      01002979H   LINE      CODE     ---       #409
      01002979H   LINE      CODE     ---       #410
      0100297BH   LINE      CODE     ---       #411
      01002980H   LINE      CODE     ---       #412
      01002980H   LINE      CODE     ---       #413
      01002987H   LINE      CODE     ---       #414
      0100298AH   LINE      CODE     ---       #415
      0100298CH   LINE      CODE     ---       #416
      01002991H   LINE      CODE     ---       #417
      01002991H   LINE      CODE     ---       #418
      01002998H   LINE      CODE     ---       #419
      0100299BH   LINE      CODE     ---       #420
      0100299DH   LINE      CODE     ---       #421
      010029A2H   LINE      CODE     ---       #422
      010029A2H   LINE      CODE     ---       #423
      010029A9H   LINE      CODE     ---       #424
      010029ACH   LINE      CODE     ---       #425
      010029AEH   LINE      CODE     ---       #426
      010029B3H   LINE      CODE     ---       #427
      010029B3H   LINE      CODE     ---       #428
      010029BAH   LINE      CODE     ---       #429
      010029C1H   LINE      CODE     ---       #430
      010029C1H   LINE      CODE     ---       #432
      010029C7H   LINE      CODE     ---       #434
      010029CCH   LINE      CODE     ---       #435
      010029DEH   LINE      CODE     ---       #436
      010029E1H   LINE      CODE     ---       #437
      010029F3H   LINE      CODE     ---       #438
      010029F6H   LINE      CODE     ---       #439
      01002A08H   LINE      CODE     ---       #440
      01002A0BH   LINE      CODE     ---       #441
      01002A0EH   LINE      CODE     ---       #442
      01002A10H   LINE      CODE     ---       #443
      01002A10H   LINE      CODE     ---       #444
      01002A17H   LINE      CODE     ---       #446
      01002A1AH   LINE      CODE     ---       #447
      01002A1AH   LINE      CODE     ---       #448
      01002A1CH   LINE      CODE     ---       #449
      01002A20H   LINE      CODE     ---       #450
      01002A20H   LINE      CODE     ---       #451
      01002A22H   LINE      CODE     ---       #453
      01002A22H   LINE      CODE     ---       #454
      01002A29H   LINE      CODE     ---       #455
      01002A2DH   LINE      CODE     ---       #456
      01002A31H   LINE      CODE     ---       #457
      01002A31H   LINE      CODE     ---       #458
      01002A33H   LINE      CODE     ---       #460
      01002A33H   LINE      CODE     ---       #461
      01002A3AH   LINE      CODE     ---       #462
      01002A3EH   LINE      CODE     ---       #463
      01002A42H   LINE      CODE     ---       #464
      01002A49H   LINE      CODE     ---       #465
      01002A4BH   LINE      CODE     ---       #466
      01002A52H   LINE      CODE     ---       #467
      01002A52H   LINE      CODE     ---       #468
      01002A55H   LINE      CODE     ---       #469
      01002A57H   LINE      CODE     ---       #470
LX51 LINKER/LOCATER V4.47a                                                            06/06/2015  09:44:34  PAGE 60


      01002A59H   LINE      CODE     ---       #471
      01002A5CH   LINE      CODE     ---       #472
      01002A5FH   LINE      CODE     ---       #473
      01002A62H   LINE      CODE     ---       #474
      01002A62H   LINE      CODE     ---       #476
      ---         BLOCKEND  ---      ---       LVL=0
      00000007H   SYMBOL    DATA     BYTE      MM
      00000006H   SYMBOL    DATA     BYTE      D0
      00000001H   SYMBOL    DATA     BYTE      D2
      00000004H   SYMBOL    DATA     BYTE      D3
      00000003H   SYMBOL    DATA     BYTE      D4
      00000005H   SYMBOL    DATA     BYTE      D5
      00000007H   SYMBOL    DATA     BYTE      D_FD
      00000007H   SYMBOL    DATA     BYTE      H_FH
      00000007H   SYMBOL    DATA     BYTE      M_FM

      01005B28H   BLOCK     CODE     ---       LVL=0
      01005B28H   BLOCK     CODE     NEAR LAB  LVL=1
      00000064H   SYMBOL    DATA     BYTE      D0
      00000065H   SYMBOL    DATA     BYTE      D1
      00000001H   SYMBOL    DATA     BYTE      D2
      00000006H   SYMBOL    DATA     BYTE      D3
      00000003H   SYMBOL    DATA     BYTE      D4
      00000005H   SYMBOL    DATA     BYTE      D5
      ---         BLOCKEND  ---      ---       LVL=1
      01005B28H   LINE      CODE     ---       #507
      01005B28H   LINE      CODE     ---       #508
      01005B28H   LINE      CODE     ---       #511
      01005B2FH   LINE      CODE     ---       #512
      01005B31H   LINE      CODE     ---       #513
      01005B31H   LINE      CODE     ---       #514
      01005B31H   LINE      CODE     ---       #515
      01005B32H   LINE      CODE     ---       #516
      01005B33H   LINE      CODE     ---       #519
      ---         BLOCKEND  ---      ---       LVL=0

      01005C8DH   BLOCK     CODE     ---       LVL=0
      01005C8DH   BLOCK     CODE     NEAR LAB  LVL=1
      00000007H   SYMBOL    DATA     BYTE      k
      ---         BLOCKEND  ---      ---       LVL=1
      01005C8DH   LINE      CODE     ---       #522
      01005C8DH   LINE      CODE     ---       #523
      01005C8DH   LINE      CODE     ---       #526
      01005C93H   LINE      CODE     ---       #527
      ---         BLOCKEND  ---      ---       LVL=0

      0100599AH   BLOCK     CODE     ---       LVL=0
      0100599AH   BLOCK     CODE     NEAR LAB  LVL=1
      00000006H   SYMBOL    DATA     WORD      i
      ---         BLOCKEND  ---      ---       LVL=1
      0100599AH   LINE      CODE     ---       #529
      0100599AH   LINE      CODE     ---       #530
      0100599AH   LINE      CODE     ---       #533
      0100599CH   LINE      CODE     ---       #534
      0100599EH   LINE      CODE     ---       #535
      010059A0H   LINE      CODE     ---       #536
      010059A2H   LINE      CODE     ---       #537
      010059A4H   LINE      CODE     ---       #538
      010059A6H   LINE      CODE     ---       #540
      010059A9H   LINE      CODE     ---       #541
      010059ACH   LINE      CODE     ---       #542
      010059AFH   LINE      CODE     ---       #543
      010059B2H   LINE      CODE     ---       #545
      010059C2H   LINE      CODE     ---       #546
      ---         BLOCKEND  ---      ---       LVL=0
LX51 LINKER/LOCATER V4.47a                                                            06/06/2015  09:44:34  PAGE 61



      010051A7H   BLOCK     CODE     ---       LVL=0
      00000007H   SYMBOL    DATA     BYTE      prt
      00000001H   SYMBOL    DATA     BYTE      D5
      00000003H   SYMBOL    DATA     BYTE      D4
      0000007CH   SYMBOL    DATA     BYTE      D3
      0000007DH   SYMBOL    DATA     BYTE      D2
      0000007EH   SYMBOL    DATA     BYTE      D1
      0000007FH   SYMBOL    DATA     BYTE      D0
      010051A9H   BLOCK     CODE     NEAR LAB  LVL=1
      00000005H   SYMBOL    DATA     BYTE      c
      00000002H   SYMBOL    DATA     BYTE      DISP_CODE
      00000004H   SYMBOL    DATA     BYTE      D_count
      00000006H   SYMBOL    DATA     BYTE      D_time
      ---         BLOCKEND  ---      ---       LVL=1
      010051A7H   LINE      CODE     ---       #553
      010051A9H   LINE      CODE     ---       #554
      010051A9H   LINE      CODE     ---       #556
      010051A9H   LINE      CODE     ---       #557
      010051ABH   LINE      CODE     ---       #558
      010051ADH   LINE      CODE     ---       #559
      010051B2H   LINE      CODE     ---       #560
      010051B2H   LINE      CODE     ---       #561
      010051B4H   LINE      CODE     ---       #563
      010051B5H   LINE      CODE     ---       #564
      010051B5H   LINE      CODE     ---       #565
      010051B7H   LINE      CODE     ---       #566
      010051B9H   LINE      CODE     ---       #567
      010051BBH   LINE      CODE     ---       #568
      010051BBH   LINE      CODE     ---       #569
      010051BEH   LINE      CODE     ---       #570
      010051C0H   LINE      CODE     ---       #571
      010051C3H   LINE      CODE     ---       #572
      010051C5H   LINE      CODE     ---       #573
      010051C9H   LINE      CODE     ---       #574
      010051CDH   LINE      CODE     ---       #575
      010051CFH   LINE      CODE     ---       #576
      010051CFH   LINE      CODE     ---       #577
      010051D1H   LINE      CODE     ---       #578
      010051D3H   LINE      CODE     ---       #579
      010051D5H   LINE      CODE     ---       #580
      010051D5H   LINE      CODE     ---       #581
      010051DBH   LINE      CODE     ---       #582
      010051DEH   LINE      CODE     ---       #583
      010051E0H   LINE      CODE     ---       #584
      010051E3H   LINE      CODE     ---       #585
      010051E5H   LINE      CODE     ---       #586
      010051E7H   LINE      CODE     ---       #587
      010051EBH   LINE      CODE     ---       #588
      010051EFH   LINE      CODE     ---       #589
      010051F6H   LINE      CODE     ---       #590
      010051FDH   LINE      CODE     ---       #591
      01005204H   LINE      CODE     ---       #592
      0100520BH   LINE      CODE     ---       #593
      01005210H   LINE      CODE     ---       #594
      01005214H   LINE      CODE     ---       #595
      01005216H   LINE      CODE     ---       #596
      01005219H   LINE      CODE     ---       #597
      0100521BH   LINE      CODE     ---       #598
      0100521BH   LINE      CODE     ---       #599
      01005220H   LINE      CODE     ---       #600
      01005220H   LINE      CODE     ---       #601
      01005222H   LINE      CODE     ---       #603
      01005223H   LINE      CODE     ---       #604
      01005223H   LINE      CODE     ---       #605
LX51 LINKER/LOCATER V4.47a                                                            06/06/2015  09:44:34  PAGE 62


      01005225H   LINE      CODE     ---       #607
      01005227H   LINE      CODE     ---       #608
      01005227H   LINE      CODE     ---       #609
      0100522DH   LINE      CODE     ---       #610
      01005230H   LINE      CODE     ---       #611
      01005232H   LINE      CODE     ---       #612
      01005235H   LINE      CODE     ---       #613
      01005237H   LINE      CODE     ---       #614
      01005239H   LINE      CODE     ---       #615
      0100523DH   LINE      CODE     ---       #616
      01005241H   LINE      CODE     ---       #617
      01005248H   LINE      CODE     ---       #618
      0100524FH   LINE      CODE     ---       #619
      01005256H   LINE      CODE     ---       #620
      0100525DH   LINE      CODE     ---       #621
      01005262H   LINE      CODE     ---       #622
      01005266H   LINE      CODE     ---       #623
      01005268H   LINE      CODE     ---       #624
      0100526BH   LINE      CODE     ---       #625
      0100526DH   LINE      CODE     ---       #626
      0100526DH   LINE      CODE     ---       #628
      ---         BLOCKEND  ---      ---       LVL=0

      ---         MODULE    ---      ---       AD3421
      0000000BH   PUBLIC    DATA     BYTE      ad_ack
      010059C3H   PUBLIC    CODE     ---       _AD3421_read_com
      01005C5AH   PUBLIC    CODE     ---       _AD3421_write_com
      01005799H   PUBLIC    CODE     ---       _AD3421_read_byte
      0100575DH   PUBLIC    CODE     ---       _AD3421_write_byte
      01005C65H   PUBLIC    CODE     ---       AD3421_stop
      01005B97H   PUBLIC    CODE     ---       AD3421_start
      01005ABBH   PUBLIC    CODE     ---       AD3421_Init
      01005C94H   PUBLIC    CODE     ---       AD_BitDly
      01005B42H   PUBLIC    CODE     ---       Get_AD3421_Value
      000000B0H   SFRSYM    DATA     BIT       R485_RX
      000000D8H.2 SFRSYM    DATA     BIT       CCF2
      00000098H.3 SFRSYM    DATA     BIT       TB80
      000000F6H   SFRSYM    DATA     BYTE      PCAPWM4
      00000091H   SFRSYM    DATA     BYTE      P1M0
      00000094H   SFRSYM    DATA     BYTE      P0M1
      00000090H.7 SFRSYM    DATA     BIT       non3
      000000D8H.3 SFRSYM    DATA     BIT       CCF3
      00000098H.3 SFRSYM    DATA     BIT       TB81
      000000F7H   SFRSYM    DATA     BYTE      PCAPWM5
      00000095H   SFRSYM    DATA     BYTE      P2M0
      00000092H   SFRSYM    DATA     BYTE      P1M1
      00000080H   SFRSYM    DATA     BYTE      P0
      000000B0H.1 SFRSYM    DATA     BIT       R485_TX
      000000D8H.4 SFRSYM    DATA     BIT       CCF4
      00000098H.7 SFRSYM    DATA     BIT       SM00
      000000B1H   SFRSYM    DATA     BYTE      P3M0
      00000096H   SFRSYM    DATA     BYTE      P2M1
      00000090H   SFRSYM    DATA     BYTE      P1
      000000D8H.5 SFRSYM    DATA     BIT       CCF5
      00000098H.7 SFRSYM    DATA     BIT       SM01
      00000098H.6 SFRSYM    DATA     BIT       SM10
      000000B3H   SFRSYM    DATA     BYTE      P4M0
      000000B2H   SFRSYM    DATA     BYTE      P3M1
      000000A0H   SFRSYM    DATA     BYTE      P2
      00000098H.6 SFRSYM    DATA     BIT       SM11
      00000098H.5 SFRSYM    DATA     BIT       SM20
      000000E7H   SFRSYM    DATA     BYTE      ISPCR
      000000B5H   SFRSYM    DATA     BYTE      P5M0
      000000B4H   SFRSYM    DATA     BYTE      P4M1
      000000B0H   SFRSYM    DATA     BYTE      P3
LX51 LINKER/LOCATER V4.47a                                                            06/06/2015  09:44:34  PAGE 63


      000000C0H   SFRSYM    DATA     BYTE      XICON
      000000A0H.2 SFRSYM    DATA     BIT       EEPROM_SDA
      00000080H.7 SFRSYM    DATA     BIT       DOWN_KEY
      000000B0H.4 SFRSYM    DATA     BIT       T0
      00000098H.5 SFRSYM    DATA     BIT       SM21
      000000D0H.6 SFRSYM    DATA     BIT       AC
      00000097H   SFRSYM    DATA     BYTE      EVRCR
      000000B6H   SFRSYM    DATA     BYTE      P5M1
      000000E8H   SFRSYM    DATA     BYTE      P4
      000000B0H.5 SFRSYM    DATA     BIT       T1
      00000085H   SFRSYM    DATA     BYTE      SPCON
      000000F8H   SFRSYM    DATA     BYTE      P5
      000000ADH   SFRSYM    DATA     BYTE      EIE1
      00000090H   SFRSYM    DATA     BIT       T2
      000000A8H.7 SFRSYM    DATA     BIT       EA
      000000ACH   SFRSYM    DATA     BYTE      SFRPI
      000000E1H   SFRSYM    DATA     BYTE      WDTCR
      000000C8H   SFRSYM    DATA     BYTE      P6
      000000A0H.4 SFRSYM    DATA     BIT       mV_SCL
      000000A0H   SFRSYM    DATA     BIT       KBI0
      00000090H.5 SFRSYM    DATA     BIT       SPI_MOSI
      00000090H.6 SFRSYM    DATA     BIT       SPI_MISO
      00000080H.5 SFRSYM    DATA     BIT       mA_OUT
      000000A0H.1 SFRSYM    DATA     BIT       KBI1
      00000085H   SFRSYM    DATA     BYTE      SPCTL
      000000A0H.2 SFRSYM    DATA     BIT       KBI2
      00000090H   SFRSYM    DATA     BIT       AIN0
      000000D8H.7 SFRSYM    DATA     BIT       CF
      000000AEH   SFRSYM    DATA     BYTE      AUXIP
      000000A0H.3 SFRSYM    DATA     BIT       KBI3
      00000090H.1 SFRSYM    DATA     BIT       AIN1
      000000A0H.4 SFRSYM    DATA     BIT       KBI4
      00000090H.2 SFRSYM    DATA     BIT       AIN2
      00000098H.7 SFRSYM    DATA     BIT       FE
      000000F9H   SFRSYM    DATA     BYTE      CH
      000000A0H.5 SFRSYM    DATA     BIT       KBI5
      00000090H.3 SFRSYM    DATA     BIT       AIN3
      000000A0H.6 SFRSYM    DATA     BIT       KBI6
      00000090H.4 SFRSYM    DATA     BIT       AIN4
      000000A0H.3 SFRSYM    DATA     BIT       EEPROM_SCL
      00000080H.1 SFRSYM    DATA     BIT       RTD_C
      000000A0H.7 SFRSYM    DATA     BIT       KBI7
      00000090H.5 SFRSYM    DATA     BIT       AIN5
      000000A8H   SFRSYM    DATA     BYTE      IE
      00000090H.6 SFRSYM    DATA     BIT       AIN6
      000000E9H   SFRSYM    DATA     BYTE      CL
      00000090H.7 SFRSYM    DATA     BIT       AIN7
      00000090H.2 SFRSYM    DATA     BIT       CEX0
      000000FAH   SFRSYM    DATA     BYTE      CCAP0H
      000000C6H   SFRSYM    DATA     BYTE      ADCH
      00000090H.3 SFRSYM    DATA     BIT       CEX1
      000000FBH   SFRSYM    DATA     BYTE      CCAP1H
      000000B7H   SFRSYM    DATA     BYTE      IP0H
      000000A0H.2 SFRSYM    DATA     BIT       ALL_SDA
      00000090H.4 SFRSYM    DATA     BIT       CEX2
      000000FCH   SFRSYM    DATA     BYTE      CCAP2H
      000000B0H.3 SFRSYM    DATA     BIT       OFFSET_KEY
      00000090H.5 SFRSYM    DATA     BIT       CEX3
      000000FDH   SFRSYM    DATA     BYTE      CCAP3H
      00000090H.6 SFRSYM    DATA     BIT       CEX4
      000000D8H.6 SFRSYM    DATA     BIT       CR
      000000FEH   SFRSYM    DATA     BYTE      CCAP4H
      000000EAH   SFRSYM    DATA     BYTE      CCAP0L
      000000BEH   SFRSYM    DATA     BYTE      ADCL
      000000B0H.7 SFRSYM    DATA     BIT       RD
LX51 LINKER/LOCATER V4.47a                                                            06/06/2015  09:44:34  PAGE 64


      00000090H.7 SFRSYM    DATA     BIT       CEX5
      000000C8H.6 SFRSYM    DATA     BIT       EXF2
      00000098H.4 SFRSYM    DATA     BIT       REN0
      000000FFH   SFRSYM    DATA     BYTE      CCAP5H
      000000EBH   SFRSYM    DATA     BYTE      CCAP1L
      000000DAH   SFRSYM    DATA     BYTE      CCAPM0
      000000B8H   SFRSYM    DATA     BYTE      IP0L
      00000098H.4 SFRSYM    DATA     BIT       REN1
      000000ECH   SFRSYM    DATA     BYTE      CCAP2L
      000000DBH   SFRSYM    DATA     BYTE      CCAPM1
      000000C0H.3 SFRSYM    DATA     BIT       IT2H
      000000A8H.4 SFRSYM    DATA     BIT       ES
      00000097H   SFRSYM    DATA     BYTE      TSTWD
      000000EDH   SFRSYM    DATA     BYTE      CCAP3L
      000000DCH   SFRSYM    DATA     BYTE      CCAPM2
      000000C0H.7 SFRSYM    DATA     BIT       IT3H
      000000EEH   SFRSYM    DATA     BYTE      CCAP4L
      000000DDH   SFRSYM    DATA     BYTE      CCAPM3
      000000B8H   SFRSYM    DATA     BYTE      IP
      000000EFH   SFRSYM    DATA     BYTE      CCAP5L
      000000DEH   SFRSYM    DATA     BYTE      CCAPM4
      00000098H   SFRSYM    DATA     BIT       RI
      000000DFH   SFRSYM    DATA     BYTE      CCAPM5
      000000B0H.2 SFRSYM    DATA     BIT       INT0
      000000D0H.7 SFRSYM    DATA     BIT       CY
      000000B0H.4 SFRSYM    DATA     BIT       BEEP
      00000080H.4 SFRSYM    DATA     BIT       mV_OUT
      000000B0H.3 SFRSYM    DATA     BIT       INT1
      00000098H.1 SFRSYM    DATA     BIT       TI
      000000A0H.3 SFRSYM    DATA     BIT       EEP_SCL
      000000E8H.3 SFRSYM    DATA     BIT       INT2
      000000E8H.2 SFRSYM    DATA     BIT       INT3
      000000C6H   SFRSYM    DATA     BYTE      ADCV
      0000008FH   SFRSYM    DATA     BYTE      STRETCH
      000000B8H.1 SFRSYM    DATA     BIT       PT0L
      000000B8H.3 SFRSYM    DATA     BIT       PT1L
      000000CBH   SFRSYM    DATA     BYTE      RCAP2H
      000000A0H.2 SFRSYM    DATA     BIT       RTC_SDA
      000000B8H.4 SFRSYM    DATA     BIT       PS
      000000B8H.5 SFRSYM    DATA     BIT       PT2L
      00000081H   SFRSYM    DATA     BYTE      SP
      00000090H.1 SFRSYM    DATA     BIT       T2EX
      000000D9H   SFRSYM    DATA     BYTE      CMOD
      000000D8H   SFRSYM    DATA     BYTE      CCON
      0000009AH   SFRSYM    DATA     BYTE      SCFG
      000000B8H   SFRSYM    DATA     BIT       PX0L
      000000D0H.2 SFRSYM    DATA     BIT       OV
      000000B8H.2 SFRSYM    DATA     BIT       PX1L
      000000CAH   SFRSYM    DATA     BYTE      RCAP2L
      000000B8H.6 SFRSYM    DATA     BIT       PX2L
      00000090H.7 SFRSYM    DATA     BIT       SPI_CLK
      000000B8H.7 SFRSYM    DATA     BIT       PX3L
      000000E6H   SFRSYM    DATA     BYTE      SCMD
      000000B0H.6 SFRSYM    DATA     BIT       WR
      000000C8H.1 SFRSYM    DATA     BIT       C_T2
      00000084H   SFRSYM    DATA     BYTE      SPISTAT
      00000090H.6 SFRSYM    DATA     BIT       RTC_SCL
      000000C8H.5 SFRSYM    DATA     BIT       RCLK
      000000C8H.4 SFRSYM    DATA     BIT       TCLK
      00000080H   SFRSYM    DATA     BIT       P00
      000000E3H   SFRSYM    DATA     BYTE      IFADRH
      00000090H   SFRSYM    DATA     BIT       P10
      00000080H.1 SFRSYM    DATA     BIT       P01
      000000E5H   SFRSYM    DATA     BYTE      IFMT
      00000087H   SFRSYM    DATA     BYTE      PCON
LX51 LINKER/LOCATER V4.47a                                                            06/06/2015  09:44:34  PAGE 65


      00000099H   SFRSYM    DATA     BYTE      SBUF
      000000A0H   SFRSYM    DATA     BIT       P20
      00000090H.1 SFRSYM    DATA     BIT       P11
      00000080H.2 SFRSYM    DATA     BIT       P02
      000000B0H   SFRSYM    DATA     BIT       P30
      000000A0H.1 SFRSYM    DATA     BIT       P21
      00000090H.2 SFRSYM    DATA     BIT       P12
      00000080H.3 SFRSYM    DATA     BIT       P03
      000000B0H.2 SFRSYM    DATA     BIT       FUNCTION_KEY
      000000E8H   SFRSYM    DATA     BIT       P40
      000000B0H.1 SFRSYM    DATA     BIT       P31
      000000A0H.2 SFRSYM    DATA     BIT       P22
      00000090H.3 SFRSYM    DATA     BIT       P13
      00000080H.4 SFRSYM    DATA     BIT       P04
      000000E4H   SFRSYM    DATA     BYTE      IFADRL
      00000098H   SFRSYM    DATA     BYTE      SCON
      000000F8H   SFRSYM    DATA     BIT       P50
      000000E8H.1 SFRSYM    DATA     BIT       P41
      000000B0H.2 SFRSYM    DATA     BIT       P32
      000000A0H.3 SFRSYM    DATA     BIT       P23
      00000090H.4 SFRSYM    DATA     BIT       P14
      00000080H.5 SFRSYM    DATA     BIT       P05
      00000089H   SFRSYM    DATA     BYTE      TMOD
      00000088H   SFRSYM    DATA     BYTE      TCON
      000000C8H   SFRSYM    DATA     BIT       P60
      000000F8H.1 SFRSYM    DATA     BIT       P51
      000000E8H.2 SFRSYM    DATA     BIT       P42
      000000B0H.3 SFRSYM    DATA     BIT       P33
      000000A0H.4 SFRSYM    DATA     BIT       P24
      00000090H.5 SFRSYM    DATA     BIT       P15
      00000080H.6 SFRSYM    DATA     BIT       P06
      000000A0H.5 SFRSYM    DATA     BIT       TEMP
      000000C8H.1 SFRSYM    DATA     BIT       P61
      000000F8H.2 SFRSYM    DATA     BIT       P52
      000000E8H.3 SFRSYM    DATA     BIT       P43
      000000B0H.4 SFRSYM    DATA     BIT       P34
      000000A0H.5 SFRSYM    DATA     BIT       P25
      00000090H.6 SFRSYM    DATA     BIT       P16
      00000080H.7 SFRSYM    DATA     BIT       P07
      000000F8H.3 SFRSYM    DATA     BIT       P53
      000000E8H.4 SFRSYM    DATA     BIT       P44
      000000B0H.5 SFRSYM    DATA     BIT       P35
      000000A0H.6 SFRSYM    DATA     BIT       P26
      00000090H.7 SFRSYM    DATA     BIT       P17
      000000A0H   SFRSYM    DATA     BIT       Value_SDA
      000000E8H.5 SFRSYM    DATA     BIT       P45
      000000B0H.6 SFRSYM    DATA     BIT       P36
      000000A0H.7 SFRSYM    DATA     BIT       P27
      00000080H   SFRSYM    DATA     BIT       TC_C
      000000E8H.6 SFRSYM    DATA     BIT       P46
      000000B0H.7 SFRSYM    DATA     BIT       P37
      000000E8H.7 SFRSYM    DATA     BIT       P47
      000000D7H   SFRSYM    DATA     BYTE      KBMASK
      000000A0H.4 SFRSYM    DATA     BIT       OUT_SCL
      000000A0H   SFRSYM    DATA     BIT       AD_SDA
      00000088H.1 SFRSYM    DATA     BIT       IE0
      00000088H.3 SFRSYM    DATA     BIT       IE1
      00000090H   SFRSYM    DATA     BIT       LED1_SDA
      000000C0H.1 SFRSYM    DATA     BIT       IE2
      00000090H.3 SFRSYM    DATA     BIT       LED2_SDA
      000000C0H.5 SFRSYM    DATA     BIT       IE3
      000000A8H.6 SFRSYM    DATA     BIT       GF4
      0000008EH   SFRSYM    DATA     BYTE      AUXR
      000000F0H   SFRSYM    DATA     BYTE      B
      000000D5H   SFRSYM    DATA     BYTE      KBPATN
LX51 LINKER/LOCATER V4.47a                                                            06/06/2015  09:44:34  PAGE 66


      000000A0H.1 SFRSYM    DATA     BIT       Value_SCL
      000000C8H   SFRSYM    DATA     BIT       CP_RL2
      000000A0H.6 SFRSYM    DATA     BIT       NONE_4
      000000A0H.7 SFRSYM    DATA     BIT       NONE_5
      000000B0H.6 SFRSYM    DATA     BIT       NONE_6
      00000086H   SFRSYM    DATA     BYTE      SPIDAT
      000000E0H   SFRSYM    DATA     BYTE      ACC
      000000B0H.7 SFRSYM    DATA     BIT       NONE_7
      000000A0H.1 SFRSYM    DATA     BIT       AD_SCL
      000000A8H.4 SFRSYM    DATA     BIT       ES0
      000000A8H.1 SFRSYM    DATA     BIT       ET0
      00000090H.2 SFRSYM    DATA     BIT       LED1_SCL
      00000088H.5 SFRSYM    DATA     BIT       TF0
      000000A8H.3 SFRSYM    DATA     BIT       ET1
      00000090H.4 SFRSYM    DATA     BIT       LED2_SCL
      00000088H.7 SFRSYM    DATA     BIT       TF1
      00000098H   SFRSYM    DATA     BIT       RI0
      000000A8H.5 SFRSYM    DATA     BIT       ET2
      000000C8H.7 SFRSYM    DATA     BIT       TF2
      00000098H   SFRSYM    DATA     BIT       RI1
      00000098H.2 SFRSYM    DATA     BIT       RB8
      0000008CH   SFRSYM    DATA     BYTE      TH0
      00000088H   SFRSYM    DATA     BIT       IT0
      00000098H.1 SFRSYM    DATA     BIT       TI0
      000000A8H   SFRSYM    DATA     BIT       EX0
      0000008DH   SFRSYM    DATA     BYTE      TH1
      00000088H.2 SFRSYM    DATA     BIT       IT1
      00000098H.1 SFRSYM    DATA     BIT       TI1
      00000098H.3 SFRSYM    DATA     BIT       TB8
      000000A8H.2 SFRSYM    DATA     BIT       EX1
      00000085H   SFRSYM    DATA     BYTE      SPICON
      000000CDH   SFRSYM    DATA     BYTE      TH2
      000000C0H   SFRSYM    DATA     BIT       IT2
      000000C0H.2 SFRSYM    DATA     BIT       EX2
      000000D0H   SFRSYM    DATA     BIT       P
      000000C0H.4 SFRSYM    DATA     BIT       IT3
      000000C0H.6 SFRSYM    DATA     BIT       EX3
      00000098H.7 SFRSYM    DATA     BIT       SM0
      0000008AH   SFRSYM    DATA     BYTE      TL0
      00000080H.3 SFRSYM    DATA     BIT       mA_C
      000000C8H   SFRSYM    DATA     BIT       XOUT
      00000090H.1 SFRSYM    DATA     BIT       ECI
      00000098H.6 SFRSYM    DATA     BIT       SM1
      00000085H   SFRSYM    DATA     BYTE      SPICTL
      0000008BH   SFRSYM    DATA     BYTE      TL1
      000000AFH   SFRSYM    DATA     BYTE      AUXIPH
      000000E8H.6 SFRSYM    DATA     BIT       ALE
      00000098H.5 SFRSYM    DATA     BIT       SM2
      000000CCH   SFRSYM    DATA     BYTE      TL2
      000000E2H   SFRSYM    DATA     BYTE      IFD
      000000B8H.1 SFRSYM    DATA     BIT       PT0
      000000B0H.5 SFRSYM    DATA     BIT       R485_DE_RE
      000000B8H.3 SFRSYM    DATA     BIT       PT1
      000000D0H.3 SFRSYM    DATA     BIT       RS0
      00000088H.4 SFRSYM    DATA     BIT       TR0
      000000B8H.5 SFRSYM    DATA     BIT       PT2
      000000D0H.4 SFRSYM    DATA     BIT       RS1
      00000088H.6 SFRSYM    DATA     BIT       TR1
      000000C8H.2 SFRSYM    DATA     BIT       TR2
      000000B8H   SFRSYM    DATA     BIT       PX0
      000000AFH   SFRSYM    DATA     BYTE      EIP1H
      000000B8H.2 SFRSYM    DATA     BIT       PX1
      000000C0H.3 SFRSYM    DATA     BIT       PX2
      000000C0H.7 SFRSYM    DATA     BIT       PX3
      000000AEH   SFRSYM    DATA     BYTE      EIP1L
LX51 LINKER/LOCATER V4.47a                                                            06/06/2015  09:44:34  PAGE 67


      00000083H   SFRSYM    DATA     BYTE      DPH
      000000C8H   SFRSYM    DATA     BIT       CKO
      00000082H   SFRSYM    DATA     BYTE      DPL
      00000087H   SFRSYM    DATA     BYTE      PCON0
      00000084H   SFRSYM    DATA     BYTE      SPSTAT
      00000099H   SFRSYM    DATA     BYTE      SBUF0
      000000B7H   SFRSYM    DATA     BYTE      IPH
      000000B0H.4 SFRSYM    DATA     BIT       T0CKO
      00000097H   SFRSYM    DATA     BYTE      PCON1
      00000099H   SFRSYM    DATA     BYTE      SBUF1
      000000B0H.5 SFRSYM    DATA     BIT       T1CKO
      000000C8H.3 SFRSYM    DATA     BIT       EXEN2
      000000C7H   SFRSYM    DATA     BYTE      PCON2
      0000009AH   SFRSYM    DATA     BYTE      S2BUF
      00000098H   SFRSYM    DATA     BYTE      SCON0
      00000098H.4 SFRSYM    DATA     BIT       REN
      00000098H   SFRSYM    DATA     BYTE      SCON1
      00000080H.2 SFRSYM    DATA     BIT       mV_C
      000000C5H   SFRSYM    DATA     BYTE      ADCON
      000000A0H.2 SFRSYM    DATA     BIT       mA_SDA
      000000C9H   SFRSYM    DATA     BYTE      T2MOD
      000000C8H   SFRSYM    DATA     BYTE      T2CON
      000000C5H   SFRSYM    DATA     BYTE      ADCTL
      000000BEH   SFRSYM    DATA     BYTE      ADCVL
      000000B9H   SFRSYM    DATA     BYTE      SADEN
      0000009AH   SFRSYM    DATA     BYTE      S1BRT
      000000B0H   SFRSYM    DATA     BIT       RXD
      000000D6H   SFRSYM    DATA     BYTE      KBCON
      00000080H.6 SFRSYM    DATA     BIT       UP_KEY
      000000C8H.1 SFRSYM    DATA     BIT       XIN
      000000B8H.4 SFRSYM    DATA     BIT       PSL
      000000A9H   SFRSYM    DATA     BYTE      SADDR
      000000B0H.1 SFRSYM    DATA     BIT       TXD
      000000A0H.4 SFRSYM    DATA     BIT       mA_SCL
      0000008EH   SFRSYM    DATA     BYTE      AUXR0
      000000A2H   SFRSYM    DATA     BYTE      AUXR1
      00000090H.4 SFRSYM    DATA     BIT       SPI_SS
      000000A6H   SFRSYM    DATA     BYTE      AUXR2
      00000090H.2 SFRSYM    DATA     BIT       S2RXD
      000000D0H.5 SFRSYM    DATA     BIT       F0
      000000B0H.4 SFRSYM    DATA     BIT       BEEP_OUT
      00000090H.3 SFRSYM    DATA     BIT       S2TXD
      000000D0H.1 SFRSYM    DATA     BIT       F1
      00000090H.1 SFRSYM    DATA     BIT       LED1_LE
      00000090H.5 SFRSYM    DATA     BIT       LED2_LE
      000000F2H   SFRSYM    DATA     BYTE      PCAPWM0
      000000D0H   SFRSYM    DATA     BYTE      PSW
      000000F3H   SFRSYM    DATA     BYTE      PCAPWM1
      000000A0H.2 SFRSYM    DATA     BIT       mV_SDA
      000000D8H   SFRSYM    DATA     BIT       CCF0
      00000098H.2 SFRSYM    DATA     BIT       RB80
      000000F4H   SFRSYM    DATA     BYTE      PCAPWM2
      000000D8H.1 SFRSYM    DATA     BIT       CCF1
      00000098H.2 SFRSYM    DATA     BIT       RB81
      000000F5H   SFRSYM    DATA     BYTE      PCAPWM3
      00000086H   SFRSYM    DATA     BYTE      SPDAT
      00000093H   SFRSYM    DATA     BYTE      P0M0
      000000ADH   SFRSYM    DATA     BYTE      AUXIE

      01005B42H   BLOCK     CODE     ---       LVL=0
      01005B42H   BLOCK     CODE     NEAR LAB  LVL=1
      00000010H   SYMBOL    IDATA    BYTE      res
      ---         BLOCKEND  ---      ---       LVL=1
      01005B42H   LINE      CODE     ---       #25
      01005B42H   LINE      CODE     ---       #26
LX51 LINKER/LOCATER V4.47a                                                            06/06/2015  09:44:34  PAGE 68


      01005B42H   LINE      CODE     ---       #28
      01005B46H   LINE      CODE     ---       #29
      01005B49H   LINE      CODE     ---       #30
      01005B50H   LINE      CODE     ---       #31
      01005B55H   LINE      CODE     ---       #32
      01005B59H   LINE      CODE     ---       #33
      ---         BLOCKEND  ---      ---       LVL=0

      01005C94H   BLOCK     CODE     ---       LVL=0
      01005C94H   BLOCK     CODE     NEAR LAB  LVL=1
      00000007H   SYMBOL    DATA     BYTE      i
      ---         BLOCKEND  ---      ---       LVL=1
      01005C94H   LINE      CODE     ---       #35
      01005C94H   LINE      CODE     ---       #36
      01005C94H   LINE      CODE     ---       #39
      01005C9AH   LINE      CODE     ---       #40
      ---         BLOCKEND  ---      ---       LVL=0

      01005ABBH   BLOCK     CODE     ---       LVL=0
      01005ABBH   BLOCK     CODE     NEAR LAB  LVL=1
      00000007H   SYMBOL    DATA     BYTE      i
      ---         BLOCKEND  ---      ---       LVL=1
      01005ABBH   LINE      CODE     ---       #42
      01005ABBH   LINE      CODE     ---       #43
      01005ABBH   LINE      CODE     ---       #45
      01005ABDH   LINE      CODE     ---       #46
      01005AC0H   LINE      CODE     ---       #47
      01005AC2H   LINE      CODE     ---       #48
      01005AC5H   LINE      CODE     ---       #49
      01005AC8H   LINE      CODE     ---       #50
      01005ACBH   LINE      CODE     ---       #51
      01005ACEH   LINE      CODE     ---       #52
      01005AD0H   LINE      CODE     ---       #54
      01005AD6H   LINE      CODE     ---       #55
      ---         BLOCKEND  ---      ---       LVL=0

      01005B97H   BLOCK     CODE     ---       LVL=0
      01005B97H   LINE      CODE     ---       #57
      01005B97H   LINE      CODE     ---       #58
      01005B97H   LINE      CODE     ---       #59
      01005B99H   LINE      CODE     ---       #60
      01005B9CH   LINE      CODE     ---       #61
      01005B9EH   LINE      CODE     ---       #62
      01005BA1H   LINE      CODE     ---       #63
      01005BA3H   LINE      CODE     ---       #64
      01005BA6H   LINE      CODE     ---       #65
      01005BA8H   LINE      CODE     ---       #66
      ---         BLOCKEND  ---      ---       LVL=0

      01005C65H   BLOCK     CODE     ---       LVL=0
      01005C65H   LINE      CODE     ---       #68
      01005C65H   LINE      CODE     ---       #69
      01005C65H   LINE      CODE     ---       #70
      01005C67H   LINE      CODE     ---       #71
      01005C6AH   LINE      CODE     ---       #72
      01005C6CH   LINE      CODE     ---       #73
      ---         BLOCKEND  ---      ---       LVL=0

      01005756H   BLOCK     CODE     ---       LVL=0
      ---         BLOCKEND  ---      ---       LVL=0

      0100575DH   BLOCK     CODE     ---       LVL=0
      00000006H   SYMBOL    DATA     BYTE      bt
      00000011H   SYMBOL    IDATA    BYTE      i
      0100575FH   BLOCK     CODE     NEAR LAB  LVL=1
LX51 LINKER/LOCATER V4.47a                                                            06/06/2015  09:44:34  PAGE 69


      00000011H   SYMBOL    IDATA    BYTE      i
      ---         BLOCKEND  ---      ---       LVL=1
      0100575DH   LINE      CODE     ---       #76
      0100575FH   LINE      CODE     ---       #77
      0100575FH   LINE      CODE     ---       #80
      01005762H   LINE      CODE     ---       #82
      01005766H   LINE      CODE     ---       #83
      01005766H   LINE      CODE     ---       #84
      0100576AH   LINE      CODE     ---       #85
      0100576EH   LINE      CODE     ---       #87
      01005770H   LINE      CODE     ---       #89
      01005772H   LINE      CODE     ---       #90
      01005775H   LINE      CODE     ---       #91
      01005777H   LINE      CODE     ---       #92
      0100577AH   LINE      CODE     ---       #93
      0100577EH   LINE      CODE     ---       #94
      01005787H   LINE      CODE     ---       #96
      01005789H   LINE      CODE     ---       #98
      0100578BH   LINE      CODE     ---       #99
      0100578EH   LINE      CODE     ---       #100
      01005791H   LINE      CODE     ---       #101
      01005794H   LINE      CODE     ---       #102
      01005796H   LINE      CODE     ---       #103
      ---         BLOCKEND  ---      ---       LVL=0

      01005799H   BLOCK     CODE     ---       LVL=0
      00000006H   SYMBOL    DATA     BYTE      lastbyte
      0100579BH   BLOCK     CODE     NEAR LAB  LVL=1
      00000011H   SYMBOL    IDATA    BYTE      i
      00000012H   SYMBOL    IDATA    BYTE      res
      ---         BLOCKEND  ---      ---       LVL=1
      01005799H   LINE      CODE     ---       #106
      0100579BH   LINE      CODE     ---       #107
      0100579BH   LINE      CODE     ---       #109
      0100579FH   LINE      CODE     ---       #110
      010057A1H   LINE      CODE     ---       #111
      010057A3H   LINE      CODE     ---       #112
      010057A3H   LINE      CODE     ---       #113
      010057A5H   LINE      CODE     ---       #114
      010057A8H   LINE      CODE     ---       #115
      010057AFH   LINE      CODE     ---       #116
      010057B6H   LINE      CODE     ---       #117
      010057B8H   LINE      CODE     ---       #118
      010057BBH   LINE      CODE     ---       #119
      010057C4H   LINE      CODE     ---       #120
      010057C9H   LINE      CODE     ---       #121
      010057CBH   LINE      CODE     ---       #122
      010057CEH   LINE      CODE     ---       #123
      010057D0H   LINE      CODE     ---       #124
      010057D2H   LINE      CODE     ---       #125
      010057D5H   LINE      CODE     ---       #126
      010057D9H   LINE      CODE     ---       #127
      ---         BLOCKEND  ---      ---       LVL=0

      01005C5AH   BLOCK     CODE     ---       LVL=0
      00000006H   SYMBOL    DATA     BYTE      dev_id
      00000005H   SYMBOL    DATA     BYTE      reg_addr
      01005C5AH   LINE      CODE     ---       #129
      01005C5AH   LINE      CODE     ---       #130
      01005C5AH   LINE      CODE     ---       #131
      01005C5AH   LINE      CODE     ---       #132
      01005C5DH   LINE      CODE     ---       #133
      01005C62H   LINE      CODE     ---       #134
      ---         BLOCKEND  ---      ---       LVL=0

LX51 LINKER/LOCATER V4.47a                                                            06/06/2015  09:44:34  PAGE 70


      010059C3H   BLOCK     CODE     ---       LVL=0
      00000006H   SYMBOL    DATA     BYTE      dev_id
      010059C3H   BLOCK     CODE     NEAR LAB  LVL=1
      00000007H   SYMBOL    DATA     BYTE      i
      ---         BLOCKEND  ---      ---       LVL=1
      010059C3H   LINE      CODE     ---       #137
      010059C3H   LINE      CODE     ---       #138
      010059C3H   LINE      CODE     ---       #140
      010059C3H   LINE      CODE     ---       #141
      010059C6H   LINE      CODE     ---       #142
      010059CDH   LINE      CODE     ---       #143
      010059D4H   LINE      CODE     ---       #144
      010059DBH   LINE      CODE     ---       #145
      010059E2H   LINE      CODE     ---       #146
      010059E5H   LINE      CODE     ---       #147
      010059EAH   LINE      CODE     ---       #148
      010059EAH   LINE      CODE     ---       #149
      ---         BLOCKEND  ---      ---       LVL=0

      ---         MODULE    ---      ---       EEPROM
      0000000CH   PUBLIC    DATA     BYTE      EEPROM_ack
      01005AD7H   PUBLIC    CODE     ---       _EEPROM_read_word
      01005BCDH   PUBLIC    CODE     ---       _EEPROM_write_word
      01005A13H   PUBLIC    CODE     ---       _EEPROM_read_byte
      01005A3AH   PUBLIC    CODE     ---       _EEPROM_write_byte
      01005816H   PUBLIC    CODE     ---       EEPROM_read_byte0
      010057DAH   PUBLIC    CODE     ---       _EEPROM_write_byte0
      01005B71H   PUBLIC    CODE     ---       EEPROM_restart0
      01005C2EH   PUBLIC    CODE     ---       EEPROM_stop0
      01005C1FH   PUBLIC    CODE     ---       EEPROM_start0
      01005A7FH   PUBLIC    CODE     ---       EEPROM_Init
      01005C9BH   PUBLIC    CODE     ---       EEPROM_BitDly
      01005B5AH   PUBLIC    CODE     ---       _EEPROM_Delay
      000000B0H   SFRSYM    DATA     BIT       R485_RX
      000000D8H.2 SFRSYM    DATA     BIT       CCF2
      00000098H.3 SFRSYM    DATA     BIT       TB80
      000000F6H   SFRSYM    DATA     BYTE      PCAPWM4
      00000091H   SFRSYM    DATA     BYTE      P1M0
      00000094H   SFRSYM    DATA     BYTE      P0M1
      00000090H.7 SFRSYM    DATA     BIT       non3
      000000D8H.3 SFRSYM    DATA     BIT       CCF3
      00000098H.3 SFRSYM    DATA     BIT       TB81
      000000F7H   SFRSYM    DATA     BYTE      PCAPWM5
      00000095H   SFRSYM    DATA     BYTE      P2M0
      00000092H   SFRSYM    DATA     BYTE      P1M1
      00000080H   SFRSYM    DATA     BYTE      P0
      000000B0H.1 SFRSYM    DATA     BIT       R485_TX
      000000D8H.4 SFRSYM    DATA     BIT       CCF4
      00000098H.7 SFRSYM    DATA     BIT       SM00
      000000B1H   SFRSYM    DATA     BYTE      P3M0
      00000096H   SFRSYM    DATA     BYTE      P2M1
      00000090H   SFRSYM    DATA     BYTE      P1
      000000D8H.5 SFRSYM    DATA     BIT       CCF5
      00000098H.7 SFRSYM    DATA     BIT       SM01
      00000098H.6 SFRSYM    DATA     BIT       SM10
      000000B3H   SFRSYM    DATA     BYTE      P4M0
      000000B2H   SFRSYM    DATA     BYTE      P3M1
      000000A0H   SFRSYM    DATA     BYTE      P2
      00000098H.6 SFRSYM    DATA     BIT       SM11
      00000098H.5 SFRSYM    DATA     BIT       SM20
      000000E7H   SFRSYM    DATA     BYTE      ISPCR
      000000B5H   SFRSYM    DATA     BYTE      P5M0
      000000B4H   SFRSYM    DATA     BYTE      P4M1
      000000B0H   SFRSYM    DATA     BYTE      P3
      000000C0H   SFRSYM    DATA     BYTE      XICON
LX51 LINKER/LOCATER V4.47a                                                            06/06/2015  09:44:34  PAGE 71


      000000A0H.2 SFRSYM    DATA     BIT       EEPROM_SDA
      00000080H.7 SFRSYM    DATA     BIT       DOWN_KEY
      000000B0H.4 SFRSYM    DATA     BIT       T0
      00000098H.5 SFRSYM    DATA     BIT       SM21
      000000D0H.6 SFRSYM    DATA     BIT       AC
      00000097H   SFRSYM    DATA     BYTE      EVRCR
      000000B6H   SFRSYM    DATA     BYTE      P5M1
      000000E8H   SFRSYM    DATA     BYTE      P4
      000000B0H.5 SFRSYM    DATA     BIT       T1
      00000085H   SFRSYM    DATA     BYTE      SPCON
      000000F8H   SFRSYM    DATA     BYTE      P5
      000000ADH   SFRSYM    DATA     BYTE      EIE1
      00000090H   SFRSYM    DATA     BIT       T2
      000000A8H.7 SFRSYM    DATA     BIT       EA
      000000ACH   SFRSYM    DATA     BYTE      SFRPI
      000000E1H   SFRSYM    DATA     BYTE      WDTCR
      000000C8H   SFRSYM    DATA     BYTE      P6
      000000A0H.4 SFRSYM    DATA     BIT       mV_SCL
      000000A0H   SFRSYM    DATA     BIT       KBI0
      00000090H.5 SFRSYM    DATA     BIT       SPI_MOSI
      00000090H.6 SFRSYM    DATA     BIT       SPI_MISO
      00000080H.5 SFRSYM    DATA     BIT       mA_OUT
      000000A0H.1 SFRSYM    DATA     BIT       KBI1
      00000085H   SFRSYM    DATA     BYTE      SPCTL
      000000A0H.2 SFRSYM    DATA     BIT       KBI2
      00000090H   SFRSYM    DATA     BIT       AIN0
      000000D8H.7 SFRSYM    DATA     BIT       CF
      000000AEH   SFRSYM    DATA     BYTE      AUXIP
      000000A0H.3 SFRSYM    DATA     BIT       KBI3
      00000090H.1 SFRSYM    DATA     BIT       AIN1
      000000A0H.4 SFRSYM    DATA     BIT       KBI4
      00000090H.2 SFRSYM    DATA     BIT       AIN2
      00000098H.7 SFRSYM    DATA     BIT       FE
      000000F9H   SFRSYM    DATA     BYTE      CH
      000000A0H.5 SFRSYM    DATA     BIT       KBI5
      00000090H.3 SFRSYM    DATA     BIT       AIN3
      000000A0H.6 SFRSYM    DATA     BIT       KBI6
      00000090H.4 SFRSYM    DATA     BIT       AIN4
      000000A0H.3 SFRSYM    DATA     BIT       EEPROM_SCL
      00000080H.1 SFRSYM    DATA     BIT       RTD_C
      000000A0H.7 SFRSYM    DATA     BIT       KBI7
      00000090H.5 SFRSYM    DATA     BIT       AIN5
      000000A8H   SFRSYM    DATA     BYTE      IE
      00000090H.6 SFRSYM    DATA     BIT       AIN6
      000000E9H   SFRSYM    DATA     BYTE      CL
      00000090H.7 SFRSYM    DATA     BIT       AIN7
      00000090H.2 SFRSYM    DATA     BIT       CEX0
      000000FAH   SFRSYM    DATA     BYTE      CCAP0H
      000000C6H   SFRSYM    DATA     BYTE      ADCH
      00000090H.3 SFRSYM    DATA     BIT       CEX1
      000000FBH   SFRSYM    DATA     BYTE      CCAP1H
      000000B7H   SFRSYM    DATA     BYTE      IP0H
      000000A0H.2 SFRSYM    DATA     BIT       ALL_SDA
      00000090H.4 SFRSYM    DATA     BIT       CEX2
      000000FCH   SFRSYM    DATA     BYTE      CCAP2H
      000000B0H.3 SFRSYM    DATA     BIT       OFFSET_KEY
      00000090H.5 SFRSYM    DATA     BIT       CEX3
      000000FDH   SFRSYM    DATA     BYTE      CCAP3H
      00000090H.6 SFRSYM    DATA     BIT       CEX4
      000000D8H.6 SFRSYM    DATA     BIT       CR
      000000FEH   SFRSYM    DATA     BYTE      CCAP4H
      000000EAH   SFRSYM    DATA     BYTE      CCAP0L
      000000BEH   SFRSYM    DATA     BYTE      ADCL
      000000B0H.7 SFRSYM    DATA     BIT       RD
      00000090H.7 SFRSYM    DATA     BIT       CEX5
LX51 LINKER/LOCATER V4.47a                                                            06/06/2015  09:44:34  PAGE 72


      000000C8H.6 SFRSYM    DATA     BIT       EXF2
      00000098H.4 SFRSYM    DATA     BIT       REN0
      000000FFH   SFRSYM    DATA     BYTE      CCAP5H
      000000EBH   SFRSYM    DATA     BYTE      CCAP1L
      000000DAH   SFRSYM    DATA     BYTE      CCAPM0
      000000B8H   SFRSYM    DATA     BYTE      IP0L
      00000098H.4 SFRSYM    DATA     BIT       REN1
      000000ECH   SFRSYM    DATA     BYTE      CCAP2L
      000000DBH   SFRSYM    DATA     BYTE      CCAPM1
      000000C0H.3 SFRSYM    DATA     BIT       IT2H
      000000A8H.4 SFRSYM    DATA     BIT       ES
      00000097H   SFRSYM    DATA     BYTE      TSTWD
      000000EDH   SFRSYM    DATA     BYTE      CCAP3L
      000000DCH   SFRSYM    DATA     BYTE      CCAPM2
      000000C0H.7 SFRSYM    DATA     BIT       IT3H
      000000EEH   SFRSYM    DATA     BYTE      CCAP4L
      000000DDH   SFRSYM    DATA     BYTE      CCAPM3
      000000B8H   SFRSYM    DATA     BYTE      IP
      000000EFH   SFRSYM    DATA     BYTE      CCAP5L
      000000DEH   SFRSYM    DATA     BYTE      CCAPM4
      00000098H   SFRSYM    DATA     BIT       RI
      000000DFH   SFRSYM    DATA     BYTE      CCAPM5
      000000B0H.2 SFRSYM    DATA     BIT       INT0
      000000D0H.7 SFRSYM    DATA     BIT       CY
      000000B0H.4 SFRSYM    DATA     BIT       BEEP
      00000080H.4 SFRSYM    DATA     BIT       mV_OUT
      000000B0H.3 SFRSYM    DATA     BIT       INT1
      00000098H.1 SFRSYM    DATA     BIT       TI
      000000A0H.3 SFRSYM    DATA     BIT       EEP_SCL
      000000E8H.3 SFRSYM    DATA     BIT       INT2
      000000E8H.2 SFRSYM    DATA     BIT       INT3
      000000C6H   SFRSYM    DATA     BYTE      ADCV
      0000008FH   SFRSYM    DATA     BYTE      STRETCH
      000000B8H.1 SFRSYM    DATA     BIT       PT0L
      000000B8H.3 SFRSYM    DATA     BIT       PT1L
      000000CBH   SFRSYM    DATA     BYTE      RCAP2H
      000000A0H.2 SFRSYM    DATA     BIT       RTC_SDA
      000000B8H.4 SFRSYM    DATA     BIT       PS
      000000B8H.5 SFRSYM    DATA     BIT       PT2L
      00000081H   SFRSYM    DATA     BYTE      SP
      00000090H.1 SFRSYM    DATA     BIT       T2EX
      000000D9H   SFRSYM    DATA     BYTE      CMOD
      000000D8H   SFRSYM    DATA     BYTE      CCON
      0000009AH   SFRSYM    DATA     BYTE      SCFG
      000000B8H   SFRSYM    DATA     BIT       PX0L
      000000D0H.2 SFRSYM    DATA     BIT       OV
      000000B8H.2 SFRSYM    DATA     BIT       PX1L
      000000CAH   SFRSYM    DATA     BYTE      RCAP2L
      000000B8H.6 SFRSYM    DATA     BIT       PX2L
      00000090H.7 SFRSYM    DATA     BIT       SPI_CLK
      000000B8H.7 SFRSYM    DATA     BIT       PX3L
      000000E6H   SFRSYM    DATA     BYTE      SCMD
      000000B0H.6 SFRSYM    DATA     BIT       WR
      000000C8H.1 SFRSYM    DATA     BIT       C_T2
      00000084H   SFRSYM    DATA     BYTE      SPISTAT
      00000090H.6 SFRSYM    DATA     BIT       RTC_SCL
      000000C8H.5 SFRSYM    DATA     BIT       RCLK
      000000C8H.4 SFRSYM    DATA     BIT       TCLK
      00000080H   SFRSYM    DATA     BIT       P00
      000000E3H   SFRSYM    DATA     BYTE      IFADRH
      00000090H   SFRSYM    DATA     BIT       P10
      00000080H.1 SFRSYM    DATA     BIT       P01
      000000E5H   SFRSYM    DATA     BYTE      IFMT
      00000087H   SFRSYM    DATA     BYTE      PCON
      00000099H   SFRSYM    DATA     BYTE      SBUF
LX51 LINKER/LOCATER V4.47a                                                            06/06/2015  09:44:34  PAGE 73


      000000A0H   SFRSYM    DATA     BIT       P20
      00000090H.1 SFRSYM    DATA     BIT       P11
      00000080H.2 SFRSYM    DATA     BIT       P02
      000000B0H   SFRSYM    DATA     BIT       P30
      000000A0H.1 SFRSYM    DATA     BIT       P21
      00000090H.2 SFRSYM    DATA     BIT       P12
      00000080H.3 SFRSYM    DATA     BIT       P03
      000000B0H.2 SFRSYM    DATA     BIT       FUNCTION_KEY
      000000E8H   SFRSYM    DATA     BIT       P40
      000000B0H.1 SFRSYM    DATA     BIT       P31
      000000A0H.2 SFRSYM    DATA     BIT       P22
      00000090H.3 SFRSYM    DATA     BIT       P13
      00000080H.4 SFRSYM    DATA     BIT       P04
      000000E4H   SFRSYM    DATA     BYTE      IFADRL
      00000098H   SFRSYM    DATA     BYTE      SCON
      000000F8H   SFRSYM    DATA     BIT       P50
      000000E8H.1 SFRSYM    DATA     BIT       P41
      000000B0H.2 SFRSYM    DATA     BIT       P32
      000000A0H.3 SFRSYM    DATA     BIT       P23
      00000090H.4 SFRSYM    DATA     BIT       P14
      00000080H.5 SFRSYM    DATA     BIT       P05
      00000089H   SFRSYM    DATA     BYTE      TMOD
      00000088H   SFRSYM    DATA     BYTE      TCON
      000000C8H   SFRSYM    DATA     BIT       P60
      000000F8H.1 SFRSYM    DATA     BIT       P51
      000000E8H.2 SFRSYM    DATA     BIT       P42
      000000B0H.3 SFRSYM    DATA     BIT       P33
      000000A0H.4 SFRSYM    DATA     BIT       P24
      00000090H.5 SFRSYM    DATA     BIT       P15
      00000080H.6 SFRSYM    DATA     BIT       P06
      000000A0H.5 SFRSYM    DATA     BIT       TEMP
      000000C8H.1 SFRSYM    DATA     BIT       P61
      000000F8H.2 SFRSYM    DATA     BIT       P52
      000000E8H.3 SFRSYM    DATA     BIT       P43
      000000B0H.4 SFRSYM    DATA     BIT       P34
      000000A0H.5 SFRSYM    DATA     BIT       P25
      00000090H.6 SFRSYM    DATA     BIT       P16
      00000080H.7 SFRSYM    DATA     BIT       P07
      000000F8H.3 SFRSYM    DATA     BIT       P53
      000000E8H.4 SFRSYM    DATA     BIT       P44
      000000B0H.5 SFRSYM    DATA     BIT       P35
      000000A0H.6 SFRSYM    DATA     BIT       P26
      00000090H.7 SFRSYM    DATA     BIT       P17
      000000A0H   SFRSYM    DATA     BIT       Value_SDA
      000000E8H.5 SFRSYM    DATA     BIT       P45
      000000B0H.6 SFRSYM    DATA     BIT       P36
      000000A0H.7 SFRSYM    DATA     BIT       P27
      00000080H   SFRSYM    DATA     BIT       TC_C
      000000E8H.6 SFRSYM    DATA     BIT       P46
      000000B0H.7 SFRSYM    DATA     BIT       P37
      000000E8H.7 SFRSYM    DATA     BIT       P47
      000000D7H   SFRSYM    DATA     BYTE      KBMASK
      000000A0H.4 SFRSYM    DATA     BIT       OUT_SCL
      000000A0H   SFRSYM    DATA     BIT       AD_SDA
      00000088H.1 SFRSYM    DATA     BIT       IE0
      00000088H.3 SFRSYM    DATA     BIT       IE1
      00000090H   SFRSYM    DATA     BIT       LED1_SDA
      000000C0H.1 SFRSYM    DATA     BIT       IE2
      00000090H.3 SFRSYM    DATA     BIT       LED2_SDA
      000000C0H.5 SFRSYM    DATA     BIT       IE3
      000000A8H.6 SFRSYM    DATA     BIT       GF4
      0000008EH   SFRSYM    DATA     BYTE      AUXR
      000000F0H   SFRSYM    DATA     BYTE      B
      000000D5H   SFRSYM    DATA     BYTE      KBPATN
      000000A0H.1 SFRSYM    DATA     BIT       Value_SCL
LX51 LINKER/LOCATER V4.47a                                                            06/06/2015  09:44:34  PAGE 74


      000000C8H   SFRSYM    DATA     BIT       CP_RL2
      000000A0H.6 SFRSYM    DATA     BIT       NONE_4
      000000A0H.7 SFRSYM    DATA     BIT       NONE_5
      000000B0H.6 SFRSYM    DATA     BIT       NONE_6
      00000086H   SFRSYM    DATA     BYTE      SPIDAT
      000000E0H   SFRSYM    DATA     BYTE      ACC
      000000B0H.7 SFRSYM    DATA     BIT       NONE_7
      000000A0H.1 SFRSYM    DATA     BIT       AD_SCL
      000000A8H.4 SFRSYM    DATA     BIT       ES0
      000000A8H.1 SFRSYM    DATA     BIT       ET0
      00000090H.2 SFRSYM    DATA     BIT       LED1_SCL
      00000088H.5 SFRSYM    DATA     BIT       TF0
      000000A8H.3 SFRSYM    DATA     BIT       ET1
      00000090H.4 SFRSYM    DATA     BIT       LED2_SCL
      00000088H.7 SFRSYM    DATA     BIT       TF1
      00000098H   SFRSYM    DATA     BIT       RI0
      000000A8H.5 SFRSYM    DATA     BIT       ET2
      000000C8H.7 SFRSYM    DATA     BIT       TF2
      00000098H   SFRSYM    DATA     BIT       RI1
      00000098H.2 SFRSYM    DATA     BIT       RB8
      0000008CH   SFRSYM    DATA     BYTE      TH0
      00000088H   SFRSYM    DATA     BIT       IT0
      00000098H.1 SFRSYM    DATA     BIT       TI0
      000000A8H   SFRSYM    DATA     BIT       EX0
      0000008DH   SFRSYM    DATA     BYTE      TH1
      00000088H.2 SFRSYM    DATA     BIT       IT1
      00000098H.1 SFRSYM    DATA     BIT       TI1
      00000098H.3 SFRSYM    DATA     BIT       TB8
      000000A8H.2 SFRSYM    DATA     BIT       EX1
      00000085H   SFRSYM    DATA     BYTE      SPICON
      000000CDH   SFRSYM    DATA     BYTE      TH2
      000000C0H   SFRSYM    DATA     BIT       IT2
      000000C0H.2 SFRSYM    DATA     BIT       EX2
      000000D0H   SFRSYM    DATA     BIT       P
      000000C0H.4 SFRSYM    DATA     BIT       IT3
      000000C0H.6 SFRSYM    DATA     BIT       EX3
      00000098H.7 SFRSYM    DATA     BIT       SM0
      0000008AH   SFRSYM    DATA     BYTE      TL0
      00000080H.3 SFRSYM    DATA     BIT       mA_C
      000000C8H   SFRSYM    DATA     BIT       XOUT
      00000090H.1 SFRSYM    DATA     BIT       ECI
      00000098H.6 SFRSYM    DATA     BIT       SM1
      00000085H   SFRSYM    DATA     BYTE      SPICTL
      0000008BH   SFRSYM    DATA     BYTE      TL1
      000000AFH   SFRSYM    DATA     BYTE      AUXIPH
      000000E8H.6 SFRSYM    DATA     BIT       ALE
      00000098H.5 SFRSYM    DATA     BIT       SM2
      000000CCH   SFRSYM    DATA     BYTE      TL2
      000000E2H   SFRSYM    DATA     BYTE      IFD
      000000B8H.1 SFRSYM    DATA     BIT       PT0
      000000B0H.5 SFRSYM    DATA     BIT       R485_DE_RE
      000000B8H.3 SFRSYM    DATA     BIT       PT1
      000000D0H.3 SFRSYM    DATA     BIT       RS0
      00000088H.4 SFRSYM    DATA     BIT       TR0
      000000B8H.5 SFRSYM    DATA     BIT       PT2
      000000D0H.4 SFRSYM    DATA     BIT       RS1
      00000088H.6 SFRSYM    DATA     BIT       TR1
      000000C8H.2 SFRSYM    DATA     BIT       TR2
      000000B8H   SFRSYM    DATA     BIT       PX0
      000000AFH   SFRSYM    DATA     BYTE      EIP1H
      000000B8H.2 SFRSYM    DATA     BIT       PX1
      000000C0H.3 SFRSYM    DATA     BIT       PX2
      000000C0H.7 SFRSYM    DATA     BIT       PX3
      000000AEH   SFRSYM    DATA     BYTE      EIP1L
      00000083H   SFRSYM    DATA     BYTE      DPH
LX51 LINKER/LOCATER V4.47a                                                            06/06/2015  09:44:34  PAGE 75


      000000C8H   SFRSYM    DATA     BIT       CKO
      00000082H   SFRSYM    DATA     BYTE      DPL
      00000087H   SFRSYM    DATA     BYTE      PCON0
      00000084H   SFRSYM    DATA     BYTE      SPSTAT
      00000099H   SFRSYM    DATA     BYTE      SBUF0
      000000B7H   SFRSYM    DATA     BYTE      IPH
      000000B0H.4 SFRSYM    DATA     BIT       T0CKO
      00000097H   SFRSYM    DATA     BYTE      PCON1
      00000099H   SFRSYM    DATA     BYTE      SBUF1
      000000B0H.5 SFRSYM    DATA     BIT       T1CKO
      000000C8H.3 SFRSYM    DATA     BIT       EXEN2
      000000C7H   SFRSYM    DATA     BYTE      PCON2
      0000009AH   SFRSYM    DATA     BYTE      S2BUF
      00000098H   SFRSYM    DATA     BYTE      SCON0
      00000098H.4 SFRSYM    DATA     BIT       REN
      00000098H   SFRSYM    DATA     BYTE      SCON1
      00000080H.2 SFRSYM    DATA     BIT       mV_C
      000000C5H   SFRSYM    DATA     BYTE      ADCON
      000000A0H.2 SFRSYM    DATA     BIT       mA_SDA
      000000C9H   SFRSYM    DATA     BYTE      T2MOD
      000000C8H   SFRSYM    DATA     BYTE      T2CON
      000000C5H   SFRSYM    DATA     BYTE      ADCTL
      000000BEH   SFRSYM    DATA     BYTE      ADCVL
      000000B9H   SFRSYM    DATA     BYTE      SADEN
      0000009AH   SFRSYM    DATA     BYTE      S1BRT
      000000B0H   SFRSYM    DATA     BIT       RXD
      000000D6H   SFRSYM    DATA     BYTE      KBCON
      00000080H.6 SFRSYM    DATA     BIT       UP_KEY
      000000C8H.1 SFRSYM    DATA     BIT       XIN
      000000B8H.4 SFRSYM    DATA     BIT       PSL
      000000A9H   SFRSYM    DATA     BYTE      SADDR
      000000B0H.1 SFRSYM    DATA     BIT       TXD
      000000A0H.4 SFRSYM    DATA     BIT       mA_SCL
      0000008EH   SFRSYM    DATA     BYTE      AUXR0
      000000A2H   SFRSYM    DATA     BYTE      AUXR1
      00000090H.4 SFRSYM    DATA     BIT       SPI_SS
      000000A6H   SFRSYM    DATA     BYTE      AUXR2
      00000090H.2 SFRSYM    DATA     BIT       S2RXD
      000000D0H.5 SFRSYM    DATA     BIT       F0
      000000B0H.4 SFRSYM    DATA     BIT       BEEP_OUT
      00000090H.3 SFRSYM    DATA     BIT       S2TXD
      000000D0H.1 SFRSYM    DATA     BIT       F1
      00000090H.1 SFRSYM    DATA     BIT       LED1_LE
      00000090H.5 SFRSYM    DATA     BIT       LED2_LE
      000000F2H   SFRSYM    DATA     BYTE      PCAPWM0
      000000D0H   SFRSYM    DATA     BYTE      PSW
      000000F3H   SFRSYM    DATA     BYTE      PCAPWM1
      000000A0H.2 SFRSYM    DATA     BIT       mV_SDA
      000000D8H   SFRSYM    DATA     BIT       CCF0
      00000098H.2 SFRSYM    DATA     BIT       RB80
      000000F4H   SFRSYM    DATA     BYTE      PCAPWM2
      000000D8H.1 SFRSYM    DATA     BIT       CCF1
      00000098H.2 SFRSYM    DATA     BIT       RB81
      000000F5H   SFRSYM    DATA     BYTE      PCAPWM3
      00000086H   SFRSYM    DATA     BYTE      SPDAT
      00000093H   SFRSYM    DATA     BYTE      P0M0
      000000ADH   SFRSYM    DATA     BYTE      AUXIE

      01005B5AH   BLOCK     CODE     ---       LVL=0
      00000006H   SYMBOL    DATA     WORD      i
      01005B5AH   BLOCK     CODE     NEAR LAB  LVL=1
      00000005H   SYMBOL    DATA     BYTE      j
      ---         BLOCKEND  ---      ---       LVL=1
      01005B5AH   LINE      CODE     ---       #14
      01005B5AH   LINE      CODE     ---       #15
LX51 LINKER/LOCATER V4.47a                                                            06/06/2015  09:44:34  PAGE 76


      01005B5AH   LINE      CODE     ---       #17
      01005B63H   LINE      CODE     ---       #18
      01005B70H   LINE      CODE     ---       #19
      ---         BLOCKEND  ---      ---       LVL=0

      01005C9BH   BLOCK     CODE     ---       LVL=0
      01005C9BH   BLOCK     CODE     NEAR LAB  LVL=1
      00000007H   SYMBOL    DATA     BYTE      i
      ---         BLOCKEND  ---      ---       LVL=1
      01005C9BH   LINE      CODE     ---       #21
      01005C9BH   LINE      CODE     ---       #22
      01005C9BH   LINE      CODE     ---       #25
      01005CA1H   LINE      CODE     ---       #26
      ---         BLOCKEND  ---      ---       LVL=0

      01005A7FH   BLOCK     CODE     ---       LVL=0
      01005A7FH   BLOCK     CODE     NEAR LAB  LVL=1
      00000006H   SYMBOL    DATA     WORD      i
      ---         BLOCKEND  ---      ---       LVL=1
      01005A7FH   LINE      CODE     ---       #28
      01005A7FH   LINE      CODE     ---       #29
      01005A7FH   LINE      CODE     ---       #32
      01005A81H   LINE      CODE     ---       #33
      01005A84H   LINE      CODE     ---       #34
      01005A87H   LINE      CODE     ---       #35
      01005A8AH   LINE      CODE     ---       #36
      01005A8CH   LINE      CODE     ---       #37
      01005A9CH   LINE      CODE     ---       #38
      ---         BLOCKEND  ---      ---       LVL=0

      01005C1FH   BLOCK     CODE     ---       LVL=0
      01005C1FH   LINE      CODE     ---       #40
      01005C1FH   LINE      CODE     ---       #41
      01005C1FH   LINE      CODE     ---       #42
      01005C21H   LINE      CODE     ---       #43
      01005C24H   LINE      CODE     ---       #44
      01005C26H   LINE      CODE     ---       #45
      01005C29H   LINE      CODE     ---       #46
      01005C2BH   LINE      CODE     ---       #47
      ---         BLOCKEND  ---      ---       LVL=0

      01005C2EH   BLOCK     CODE     ---       LVL=0
      01005C2EH   LINE      CODE     ---       #50
      01005C2EH   LINE      CODE     ---       #51
      01005C2EH   LINE      CODE     ---       #52
      01005C30H   LINE      CODE     ---       #53
      01005C33H   LINE      CODE     ---       #54
      01005C35H   LINE      CODE     ---       #55
      01005C38H   LINE      CODE     ---       #56
      01005C3AH   LINE      CODE     ---       #57
      ---         BLOCKEND  ---      ---       LVL=0

      01005B71H   BLOCK     CODE     ---       LVL=0
      01005B71H   LINE      CODE     ---       #60
      01005B71H   LINE      CODE     ---       #61
      01005B71H   LINE      CODE     ---       #62
      01005B73H   LINE      CODE     ---       #63
      01005B76H   LINE      CODE     ---       #64
      01005B78H   LINE      CODE     ---       #65
      01005B7BH   LINE      CODE     ---       #66
      01005B7DH   LINE      CODE     ---       #67
      01005B80H   LINE      CODE     ---       #68
      01005B82H   LINE      CODE     ---       #69
      ---         BLOCKEND  ---      ---       LVL=0

LX51 LINKER/LOCATER V4.47a                                                            06/06/2015  09:44:34  PAGE 77


      010057DAH   BLOCK     CODE     ---       LVL=0
      00000006H   SYMBOL    DATA     BYTE      bt
      010057DCH   BLOCK     CODE     NEAR LAB  LVL=1
      00000010H   SYMBOL    IDATA    BYTE      i
      ---         BLOCKEND  ---      ---       LVL=1
      010057DAH   LINE      CODE     ---       #72
      010057DCH   LINE      CODE     ---       #73
      010057DCH   LINE      CODE     ---       #76
      010057DFH   LINE      CODE     ---       #78
      010057E3H   LINE      CODE     ---       #79
      010057E3H   LINE      CODE     ---       #80
      010057E7H   LINE      CODE     ---       #81
      010057EBH   LINE      CODE     ---       #83
      010057EDH   LINE      CODE     ---       #84
      010057EFH   LINE      CODE     ---       #85
      010057F2H   LINE      CODE     ---       #86
      010057F4H   LINE      CODE     ---       #87
      010057F7H   LINE      CODE     ---       #88
      010057FBH   LINE      CODE     ---       #89
      01005804H   LINE      CODE     ---       #91
      01005806H   LINE      CODE     ---       #92
      01005808H   LINE      CODE     ---       #93
      0100580BH   LINE      CODE     ---       #95
      0100580EH   LINE      CODE     ---       #96
      01005811H   LINE      CODE     ---       #97
      01005813H   LINE      CODE     ---       #98
      ---         BLOCKEND  ---      ---       LVL=0

      01005816H   BLOCK     CODE     ---       LVL=0
      01005816H   BLOCK     CODE     NEAR LAB  LVL=1
      00000010H   SYMBOL    IDATA    BYTE      i
      00000011H   SYMBOL    IDATA    BYTE      res
      ---         BLOCKEND  ---      ---       LVL=1
      01005816H   LINE      CODE     ---       #101
      01005816H   LINE      CODE     ---       #102
      01005816H   LINE      CODE     ---       #104
      0100581AH   LINE      CODE     ---       #105
      0100581CH   LINE      CODE     ---       #107
      0100581EH   LINE      CODE     ---       #108
      0100581EH   LINE      CODE     ---       #109
      01005820H   LINE      CODE     ---       #110
      01005823H   LINE      CODE     ---       #111
      0100582AH   LINE      CODE     ---       #112
      01005831H   LINE      CODE     ---       #113
      01005833H   LINE      CODE     ---       #114
      01005836H   LINE      CODE     ---       #115
      0100583FH   LINE      CODE     ---       #116
      01005841H   LINE      CODE     ---       #117
      01005843H   LINE      CODE     ---       #118
      01005846H   LINE      CODE     ---       #119
      01005848H   LINE      CODE     ---       #120
      0100584AH   LINE      CODE     ---       #121
      0100584DH   LINE      CODE     ---       #122
      01005851H   LINE      CODE     ---       #123
      ---         BLOCKEND  ---      ---       LVL=0

      01005A3AH   BLOCK     CODE     ---       LVL=0
      00000004H   SYMBOL    DATA     BYTE      reg_addr
      00000005H   SYMBOL    DATA     BYTE      reg_data
      01005A3AH   LINE      CODE     ---       #125
      01005A3CH   LINE      CODE     ---       #126
      01005A3CH   LINE      CODE     ---       #127
      01005A3FH   LINE      CODE     ---       #128
      01005A44H   LINE      CODE     ---       #129
      01005A49H   LINE      CODE     ---       #130
LX51 LINKER/LOCATER V4.47a                                                            06/06/2015  09:44:34  PAGE 78


      01005A4EH   LINE      CODE     ---       #131
      01005A53H   LINE      CODE     ---       #132
      01005A56H   LINE      CODE     ---       #133
      ---         BLOCKEND  ---      ---       LVL=0

      01005A13H   BLOCK     CODE     ---       LVL=0
      00000005H   SYMBOL    DATA     BYTE      reg_addr
      01005A15H   BLOCK     CODE     NEAR LAB  LVL=1
      00000006H   SYMBOL    DATA     BYTE      retb
      ---         BLOCKEND  ---      ---       LVL=1
      01005A13H   LINE      CODE     ---       #136
      01005A15H   LINE      CODE     ---       #137
      01005A15H   LINE      CODE     ---       #140
      01005A18H   LINE      CODE     ---       #141
      01005A1DH   LINE      CODE     ---       #142
      01005A22H   LINE      CODE     ---       #143
      01005A27H   LINE      CODE     ---       #145
      01005A2AH   LINE      CODE     ---       #146
      01005A2FH   LINE      CODE     ---       #147
      01005A34H   LINE      CODE     ---       #148
      01005A37H   LINE      CODE     ---       #150
      01005A39H   LINE      CODE     ---       #151
      ---         BLOCKEND  ---      ---       LVL=0

      01005BCDH   BLOCK     CODE     ---       LVL=0
      00000001H   SYMBOL    DATA     BYTE      addr
      00000002H   SYMBOL    DATA     WORD      intdata
      01005BCDH   LINE      CODE     ---       #153
      01005BD3H   LINE      CODE     ---       #154
      01005BD3H   LINE      CODE     ---       #155
      01005BD7H   LINE      CODE     ---       #156
      ---         BLOCKEND  ---      ---       LVL=0

      01005AD7H   BLOCK     CODE     ---       LVL=0
      00000004H   SYMBOL    DATA     BYTE      addr
      01005AD9H   BLOCK     CODE     NEAR LAB  LVL=1
      00000002H   SYMBOL    DATA     WORD      rdata
      ---         BLOCKEND  ---      ---       LVL=1
      01005AD7H   LINE      CODE     ---       #159
      01005AD9H   LINE      CODE     ---       #160
      01005AD9H   LINE      CODE     ---       #163
      01005AE1H   LINE      CODE     ---       #164
      01005AE5H   LINE      CODE     ---       #165
      01005AEFH   LINE      CODE     ---       #167
      01005AF2H   LINE      CODE     ---       #168
      ---         BLOCKEND  ---      ---       LVL=0

      ---         MODULE    ---      ---       DAC6571_MV
      0000000DH   PUBLIC    DATA     BYTE      _mV_ack
      010059EBH   PUBLIC    CODE     ---       _Set_mV
      01005852H   PUBLIC    CODE     ---       _DAC6571mV_write_byte
      01005C6FH   PUBLIC    CODE     ---       DAC6571mV_stop
      01005BA9H   PUBLIC    CODE     ---       DAC6571mV_start
      01005CA2H   PUBLIC    CODE     ---       _mVBitDly
      000000B0H   SFRSYM    DATA     BIT       R485_RX
      000000D8H.2 SFRSYM    DATA     BIT       CCF2
      00000098H.3 SFRSYM    DATA     BIT       TB80
      000000F6H   SFRSYM    DATA     BYTE      PCAPWM4
      00000091H   SFRSYM    DATA     BYTE      P1M0
      00000094H   SFRSYM    DATA     BYTE      P0M1
      00000090H.7 SFRSYM    DATA     BIT       non3
      000000D8H.3 SFRSYM    DATA     BIT       CCF3
      00000098H.3 SFRSYM    DATA     BIT       TB81
      000000F7H   SFRSYM    DATA     BYTE      PCAPWM5
      00000095H   SFRSYM    DATA     BYTE      P2M0
LX51 LINKER/LOCATER V4.47a                                                            06/06/2015  09:44:34  PAGE 79


      00000092H   SFRSYM    DATA     BYTE      P1M1
      00000080H   SFRSYM    DATA     BYTE      P0
      000000B0H.1 SFRSYM    DATA     BIT       R485_TX
      000000D8H.4 SFRSYM    DATA     BIT       CCF4
      00000098H.7 SFRSYM    DATA     BIT       SM00
      000000B1H   SFRSYM    DATA     BYTE      P3M0
      00000096H   SFRSYM    DATA     BYTE      P2M1
      00000090H   SFRSYM    DATA     BYTE      P1
      000000D8H.5 SFRSYM    DATA     BIT       CCF5
      00000098H.7 SFRSYM    DATA     BIT       SM01
      00000098H.6 SFRSYM    DATA     BIT       SM10
      000000B3H   SFRSYM    DATA     BYTE      P4M0
      000000B2H   SFRSYM    DATA     BYTE      P3M1
      000000A0H   SFRSYM    DATA     BYTE      P2
      00000098H.6 SFRSYM    DATA     BIT       SM11
      00000098H.5 SFRSYM    DATA     BIT       SM20
      000000E7H   SFRSYM    DATA     BYTE      ISPCR
      000000B5H   SFRSYM    DATA     BYTE      P5M0
      000000B4H   SFRSYM    DATA     BYTE      P4M1
      000000B0H   SFRSYM    DATA     BYTE      P3
      000000C0H   SFRSYM    DATA     BYTE      XICON
      000000A0H.2 SFRSYM    DATA     BIT       EEPROM_SDA
      00000080H.7 SFRSYM    DATA     BIT       DOWN_KEY
      000000B0H.4 SFRSYM    DATA     BIT       T0
      00000098H.5 SFRSYM    DATA     BIT       SM21
      000000D0H.6 SFRSYM    DATA     BIT       AC
      00000097H   SFRSYM    DATA     BYTE      EVRCR
      000000B6H   SFRSYM    DATA     BYTE      P5M1
      000000E8H   SFRSYM    DATA     BYTE      P4
      000000B0H.5 SFRSYM    DATA     BIT       T1
      00000085H   SFRSYM    DATA     BYTE      SPCON
      000000F8H   SFRSYM    DATA     BYTE      P5
      000000ADH   SFRSYM    DATA     BYTE      EIE1
      00000090H   SFRSYM    DATA     BIT       T2
      000000A8H.7 SFRSYM    DATA     BIT       EA
      000000ACH   SFRSYM    DATA     BYTE      SFRPI
      000000E1H   SFRSYM    DATA     BYTE      WDTCR
      000000C8H   SFRSYM    DATA     BYTE      P6
      000000A0H.4 SFRSYM    DATA     BIT       mV_SCL
      000000A0H   SFRSYM    DATA     BIT       KBI0
      00000090H.5 SFRSYM    DATA     BIT       SPI_MOSI
      00000090H.6 SFRSYM    DATA     BIT       SPI_MISO
      00000080H.5 SFRSYM    DATA     BIT       mA_OUT
      000000A0H.1 SFRSYM    DATA     BIT       KBI1
      00000085H   SFRSYM    DATA     BYTE      SPCTL
      000000A0H.2 SFRSYM    DATA     BIT       KBI2
      00000090H   SFRSYM    DATA     BIT       AIN0
      000000D8H.7 SFRSYM    DATA     BIT       CF
      000000AEH   SFRSYM    DATA     BYTE      AUXIP
      000000A0H.3 SFRSYM    DATA     BIT       KBI3
      00000090H.1 SFRSYM    DATA     BIT       AIN1
      000000A0H.4 SFRSYM    DATA     BIT       KBI4
      00000090H.2 SFRSYM    DATA     BIT       AIN2
      00000098H.7 SFRSYM    DATA     BIT       FE
      000000F9H   SFRSYM    DATA     BYTE      CH
      000000A0H.5 SFRSYM    DATA     BIT       KBI5
      00000090H.3 SFRSYM    DATA     BIT       AIN3
      000000A0H.6 SFRSYM    DATA     BIT       KBI6
      00000090H.4 SFRSYM    DATA     BIT       AIN4
      000000A0H.3 SFRSYM    DATA     BIT       EEPROM_SCL
      00000080H.1 SFRSYM    DATA     BIT       RTD_C
      000000A0H.7 SFRSYM    DATA     BIT       KBI7
      00000090H.5 SFRSYM    DATA     BIT       AIN5
      000000A8H   SFRSYM    DATA     BYTE      IE
      00000090H.6 SFRSYM    DATA     BIT       AIN6
LX51 LINKER/LOCATER V4.47a                                                            06/06/2015  09:44:34  PAGE 80


      000000E9H   SFRSYM    DATA     BYTE      CL
      00000090H.7 SFRSYM    DATA     BIT       AIN7
      00000090H.2 SFRSYM    DATA     BIT       CEX0
      000000FAH   SFRSYM    DATA     BYTE      CCAP0H
      000000C6H   SFRSYM    DATA     BYTE      ADCH
      00000090H.3 SFRSYM    DATA     BIT       CEX1
      000000FBH   SFRSYM    DATA     BYTE      CCAP1H
      000000B7H   SFRSYM    DATA     BYTE      IP0H
      000000A0H.2 SFRSYM    DATA     BIT       ALL_SDA
      00000090H.4 SFRSYM    DATA     BIT       CEX2
      000000FCH   SFRSYM    DATA     BYTE      CCAP2H
      000000B0H.3 SFRSYM    DATA     BIT       OFFSET_KEY
      00000090H.5 SFRSYM    DATA     BIT       CEX3
      000000FDH   SFRSYM    DATA     BYTE      CCAP3H
      00000090H.6 SFRSYM    DATA     BIT       CEX4
      000000D8H.6 SFRSYM    DATA     BIT       CR
      000000FEH   SFRSYM    DATA     BYTE      CCAP4H
      000000EAH   SFRSYM    DATA     BYTE      CCAP0L
      000000BEH   SFRSYM    DATA     BYTE      ADCL
      000000B0H.7 SFRSYM    DATA     BIT       RD
      00000090H.7 SFRSYM    DATA     BIT       CEX5
      000000C8H.6 SFRSYM    DATA     BIT       EXF2
      00000098H.4 SFRSYM    DATA     BIT       REN0
      000000FFH   SFRSYM    DATA     BYTE      CCAP5H
      000000EBH   SFRSYM    DATA     BYTE      CCAP1L
      000000DAH   SFRSYM    DATA     BYTE      CCAPM0
      000000B8H   SFRSYM    DATA     BYTE      IP0L
      00000098H.4 SFRSYM    DATA     BIT       REN1
      000000ECH   SFRSYM    DATA     BYTE      CCAP2L
      000000DBH   SFRSYM    DATA     BYTE      CCAPM1
      000000C0H.3 SFRSYM    DATA     BIT       IT2H
      000000A8H.4 SFRSYM    DATA     BIT       ES
      00000097H   SFRSYM    DATA     BYTE      TSTWD
      000000EDH   SFRSYM    DATA     BYTE      CCAP3L
      000000DCH   SFRSYM    DATA     BYTE      CCAPM2
      000000C0H.7 SFRSYM    DATA     BIT       IT3H
      000000EEH   SFRSYM    DATA     BYTE      CCAP4L
      000000DDH   SFRSYM    DATA     BYTE      CCAPM3
      000000B8H   SFRSYM    DATA     BYTE      IP
      000000EFH   SFRSYM    DATA     BYTE      CCAP5L
      000000DEH   SFRSYM    DATA     BYTE      CCAPM4
      00000098H   SFRSYM    DATA     BIT       RI
      000000DFH   SFRSYM    DATA     BYTE      CCAPM5
      000000B0H.2 SFRSYM    DATA     BIT       INT0
      000000D0H.7 SFRSYM    DATA     BIT       CY
      000000B0H.4 SFRSYM    DATA     BIT       BEEP
      00000080H.4 SFRSYM    DATA     BIT       mV_OUT
      000000B0H.3 SFRSYM    DATA     BIT       INT1
      00000098H.1 SFRSYM    DATA     BIT       TI
      000000A0H.3 SFRSYM    DATA     BIT       EEP_SCL
      000000E8H.3 SFRSYM    DATA     BIT       INT2
      000000E8H.2 SFRSYM    DATA     BIT       INT3
      000000C6H   SFRSYM    DATA     BYTE      ADCV
      0000008FH   SFRSYM    DATA     BYTE      STRETCH
      000000B8H.1 SFRSYM    DATA     BIT       PT0L
      000000B8H.3 SFRSYM    DATA     BIT       PT1L
      000000CBH   SFRSYM    DATA     BYTE      RCAP2H
      000000A0H.2 SFRSYM    DATA     BIT       RTC_SDA
      000000B8H.4 SFRSYM    DATA     BIT       PS
      000000B8H.5 SFRSYM    DATA     BIT       PT2L
      00000081H   SFRSYM    DATA     BYTE      SP
      00000090H.1 SFRSYM    DATA     BIT       T2EX
      000000D9H   SFRSYM    DATA     BYTE      CMOD
      000000D8H   SFRSYM    DATA     BYTE      CCON
      0000009AH   SFRSYM    DATA     BYTE      SCFG
LX51 LINKER/LOCATER V4.47a                                                            06/06/2015  09:44:34  PAGE 81


      000000B8H   SFRSYM    DATA     BIT       PX0L
      000000D0H.2 SFRSYM    DATA     BIT       OV
      000000B8H.2 SFRSYM    DATA     BIT       PX1L
      000000CAH   SFRSYM    DATA     BYTE      RCAP2L
      000000B8H.6 SFRSYM    DATA     BIT       PX2L
      00000090H.7 SFRSYM    DATA     BIT       SPI_CLK
      000000B8H.7 SFRSYM    DATA     BIT       PX3L
      000000E6H   SFRSYM    DATA     BYTE      SCMD
      000000B0H.6 SFRSYM    DATA     BIT       WR
      000000C8H.1 SFRSYM    DATA     BIT       C_T2
      00000084H   SFRSYM    DATA     BYTE      SPISTAT
      00000090H.6 SFRSYM    DATA     BIT       RTC_SCL
      000000C8H.5 SFRSYM    DATA     BIT       RCLK
      000000C8H.4 SFRSYM    DATA     BIT       TCLK
      00000080H   SFRSYM    DATA     BIT       P00
      000000E3H   SFRSYM    DATA     BYTE      IFADRH
      00000090H   SFRSYM    DATA     BIT       P10
      00000080H.1 SFRSYM    DATA     BIT       P01
      000000E5H   SFRSYM    DATA     BYTE      IFMT
      00000087H   SFRSYM    DATA     BYTE      PCON
      00000099H   SFRSYM    DATA     BYTE      SBUF
      000000A0H   SFRSYM    DATA     BIT       P20
      00000090H.1 SFRSYM    DATA     BIT       P11
      00000080H.2 SFRSYM    DATA     BIT       P02
      000000B0H   SFRSYM    DATA     BIT       P30
      000000A0H.1 SFRSYM    DATA     BIT       P21
      00000090H.2 SFRSYM    DATA     BIT       P12
      00000080H.3 SFRSYM    DATA     BIT       P03
      000000B0H.2 SFRSYM    DATA     BIT       FUNCTION_KEY
      000000E8H   SFRSYM    DATA     BIT       P40
      000000B0H.1 SFRSYM    DATA     BIT       P31
      000000A0H.2 SFRSYM    DATA     BIT       P22
      00000090H.3 SFRSYM    DATA     BIT       P13
      00000080H.4 SFRSYM    DATA     BIT       P04
      000000E4H   SFRSYM    DATA     BYTE      IFADRL
      00000098H   SFRSYM    DATA     BYTE      SCON
      000000F8H   SFRSYM    DATA     BIT       P50
      000000E8H.1 SFRSYM    DATA     BIT       P41
      000000B0H.2 SFRSYM    DATA     BIT       P32
      000000A0H.3 SFRSYM    DATA     BIT       P23
      00000090H.4 SFRSYM    DATA     BIT       P14
      00000080H.5 SFRSYM    DATA     BIT       P05
      00000089H   SFRSYM    DATA     BYTE      TMOD
      00000088H   SFRSYM    DATA     BYTE      TCON
      000000C8H   SFRSYM    DATA     BIT       P60
      000000F8H.1 SFRSYM    DATA     BIT       P51
      000000E8H.2 SFRSYM    DATA     BIT       P42
      000000B0H.3 SFRSYM    DATA     BIT       P33
      000000A0H.4 SFRSYM    DATA     BIT       P24
      00000090H.5 SFRSYM    DATA     BIT       P15
      00000080H.6 SFRSYM    DATA     BIT       P06
      000000A0H.5 SFRSYM    DATA     BIT       TEMP
      000000C8H.1 SFRSYM    DATA     BIT       P61
      000000F8H.2 SFRSYM    DATA     BIT       P52
      000000E8H.3 SFRSYM    DATA     BIT       P43
      000000B0H.4 SFRSYM    DATA     BIT       P34
      000000A0H.5 SFRSYM    DATA     BIT       P25
      00000090H.6 SFRSYM    DATA     BIT       P16
      00000080H.7 SFRSYM    DATA     BIT       P07
      000000F8H.3 SFRSYM    DATA     BIT       P53
      000000E8H.4 SFRSYM    DATA     BIT       P44
      000000B0H.5 SFRSYM    DATA     BIT       P35
      000000A0H.6 SFRSYM    DATA     BIT       P26
      00000090H.7 SFRSYM    DATA     BIT       P17
      000000A0H   SFRSYM    DATA     BIT       Value_SDA
LX51 LINKER/LOCATER V4.47a                                                            06/06/2015  09:44:34  PAGE 82


      000000E8H.5 SFRSYM    DATA     BIT       P45
      000000B0H.6 SFRSYM    DATA     BIT       P36
      000000A0H.7 SFRSYM    DATA     BIT       P27
      00000080H   SFRSYM    DATA     BIT       TC_C
      000000E8H.6 SFRSYM    DATA     BIT       P46
      000000B0H.7 SFRSYM    DATA     BIT       P37
      000000E8H.7 SFRSYM    DATA     BIT       P47
      000000D7H   SFRSYM    DATA     BYTE      KBMASK
      000000A0H.4 SFRSYM    DATA     BIT       OUT_SCL
      000000A0H   SFRSYM    DATA     BIT       AD_SDA
      00000088H.1 SFRSYM    DATA     BIT       IE0
      00000088H.3 SFRSYM    DATA     BIT       IE1
      00000090H   SFRSYM    DATA     BIT       LED1_SDA
      000000C0H.1 SFRSYM    DATA     BIT       IE2
      00000090H.3 SFRSYM    DATA     BIT       LED2_SDA
      000000C0H.5 SFRSYM    DATA     BIT       IE3
      000000A8H.6 SFRSYM    DATA     BIT       GF4
      0000008EH   SFRSYM    DATA     BYTE      AUXR
      000000F0H   SFRSYM    DATA     BYTE      B
      000000D5H   SFRSYM    DATA     BYTE      KBPATN
      000000A0H.1 SFRSYM    DATA     BIT       Value_SCL
      000000C8H   SFRSYM    DATA     BIT       CP_RL2
      000000A0H.6 SFRSYM    DATA     BIT       NONE_4
      000000A0H.7 SFRSYM    DATA     BIT       NONE_5
      000000B0H.6 SFRSYM    DATA     BIT       NONE_6
      00000086H   SFRSYM    DATA     BYTE      SPIDAT
      000000E0H   SFRSYM    DATA     BYTE      ACC
      000000B0H.7 SFRSYM    DATA     BIT       NONE_7
      000000A0H.1 SFRSYM    DATA     BIT       AD_SCL
      000000A8H.4 SFRSYM    DATA     BIT       ES0
      000000A8H.1 SFRSYM    DATA     BIT       ET0
      00000090H.2 SFRSYM    DATA     BIT       LED1_SCL
      00000088H.5 SFRSYM    DATA     BIT       TF0
      000000A8H.3 SFRSYM    DATA     BIT       ET1
      00000090H.4 SFRSYM    DATA     BIT       LED2_SCL
      00000088H.7 SFRSYM    DATA     BIT       TF1
      00000098H   SFRSYM    DATA     BIT       RI0
      000000A8H.5 SFRSYM    DATA     BIT       ET2
      000000C8H.7 SFRSYM    DATA     BIT       TF2
      00000098H   SFRSYM    DATA     BIT       RI1
      00000098H.2 SFRSYM    DATA     BIT       RB8
      0000008CH   SFRSYM    DATA     BYTE      TH0
      00000088H   SFRSYM    DATA     BIT       IT0
      00000098H.1 SFRSYM    DATA     BIT       TI0
      000000A8H   SFRSYM    DATA     BIT       EX0
      0000008DH   SFRSYM    DATA     BYTE      TH1
      00000088H.2 SFRSYM    DATA     BIT       IT1
      00000098H.1 SFRSYM    DATA     BIT       TI1
      00000098H.3 SFRSYM    DATA     BIT       TB8
      000000A8H.2 SFRSYM    DATA     BIT       EX1
      00000085H   SFRSYM    DATA     BYTE      SPICON
      000000CDH   SFRSYM    DATA     BYTE      TH2
      000000C0H   SFRSYM    DATA     BIT       IT2
      000000C0H.2 SFRSYM    DATA     BIT       EX2
      000000D0H   SFRSYM    DATA     BIT       P
      000000C0H.4 SFRSYM    DATA     BIT       IT3
      000000C0H.6 SFRSYM    DATA     BIT       EX3
      00000098H.7 SFRSYM    DATA     BIT       SM0
      0000008AH   SFRSYM    DATA     BYTE      TL0
      00000080H.3 SFRSYM    DATA     BIT       mA_C
      000000C8H   SFRSYM    DATA     BIT       XOUT
      00000090H.1 SFRSYM    DATA     BIT       ECI
      00000098H.6 SFRSYM    DATA     BIT       SM1
      00000085H   SFRSYM    DATA     BYTE      SPICTL
      0000008BH   SFRSYM    DATA     BYTE      TL1
LX51 LINKER/LOCATER V4.47a                                                            06/06/2015  09:44:34  PAGE 83


      000000AFH   SFRSYM    DATA     BYTE      AUXIPH
      000000E8H.6 SFRSYM    DATA     BIT       ALE
      00000098H.5 SFRSYM    DATA     BIT       SM2
      000000CCH   SFRSYM    DATA     BYTE      TL2
      000000E2H   SFRSYM    DATA     BYTE      IFD
      000000B8H.1 SFRSYM    DATA     BIT       PT0
      000000B0H.5 SFRSYM    DATA     BIT       R485_DE_RE
      000000B8H.3 SFRSYM    DATA     BIT       PT1
      000000D0H.3 SFRSYM    DATA     BIT       RS0
      00000088H.4 SFRSYM    DATA     BIT       TR0
      000000B8H.5 SFRSYM    DATA     BIT       PT2
      000000D0H.4 SFRSYM    DATA     BIT       RS1
      00000088H.6 SFRSYM    DATA     BIT       TR1
      000000C8H.2 SFRSYM    DATA     BIT       TR2
      000000B8H   SFRSYM    DATA     BIT       PX0
      000000AFH   SFRSYM    DATA     BYTE      EIP1H
      000000B8H.2 SFRSYM    DATA     BIT       PX1
      000000C0H.3 SFRSYM    DATA     BIT       PX2
      000000C0H.7 SFRSYM    DATA     BIT       PX3
      000000AEH   SFRSYM    DATA     BYTE      EIP1L
      00000083H   SFRSYM    DATA     BYTE      DPH
      000000C8H   SFRSYM    DATA     BIT       CKO
      00000082H   SFRSYM    DATA     BYTE      DPL
      00000087H   SFRSYM    DATA     BYTE      PCON0
      00000084H   SFRSYM    DATA     BYTE      SPSTAT
      00000099H   SFRSYM    DATA     BYTE      SBUF0
      000000B7H   SFRSYM    DATA     BYTE      IPH
      000000B0H.4 SFRSYM    DATA     BIT       T0CKO
      00000097H   SFRSYM    DATA     BYTE      PCON1
      00000099H   SFRSYM    DATA     BYTE      SBUF1
      000000B0H.5 SFRSYM    DATA     BIT       T1CKO
      000000C8H.3 SFRSYM    DATA     BIT       EXEN2
      000000C7H   SFRSYM    DATA     BYTE      PCON2
      0000009AH   SFRSYM    DATA     BYTE      S2BUF
      00000098H   SFRSYM    DATA     BYTE      SCON0
      00000098H.4 SFRSYM    DATA     BIT       REN
      00000098H   SFRSYM    DATA     BYTE      SCON1
      00000080H.2 SFRSYM    DATA     BIT       mV_C
      000000C5H   SFRSYM    DATA     BYTE      ADCON
      000000A0H.2 SFRSYM    DATA     BIT       mA_SDA
      000000C9H   SFRSYM    DATA     BYTE      T2MOD
      000000C8H   SFRSYM    DATA     BYTE      T2CON
      000000C5H   SFRSYM    DATA     BYTE      ADCTL
      000000BEH   SFRSYM    DATA     BYTE      ADCVL
      000000B9H   SFRSYM    DATA     BYTE      SADEN
      0000009AH   SFRSYM    DATA     BYTE      S1BRT
      000000B0H   SFRSYM    DATA     BIT       RXD
      000000D6H   SFRSYM    DATA     BYTE      KBCON
      00000080H.6 SFRSYM    DATA     BIT       UP_KEY
      000000C8H.1 SFRSYM    DATA     BIT       XIN
      000000B8H.4 SFRSYM    DATA     BIT       PSL
      000000A9H   SFRSYM    DATA     BYTE      SADDR
      000000B0H.1 SFRSYM    DATA     BIT       TXD
      000000A0H.4 SFRSYM    DATA     BIT       mA_SCL
      0000008EH   SFRSYM    DATA     BYTE      AUXR0
      000000A2H   SFRSYM    DATA     BYTE      AUXR1
      00000090H.4 SFRSYM    DATA     BIT       SPI_SS
      000000A6H   SFRSYM    DATA     BYTE      AUXR2
      00000090H.2 SFRSYM    DATA     BIT       S2RXD
      000000D0H.5 SFRSYM    DATA     BIT       F0
      000000B0H.4 SFRSYM    DATA     BIT       BEEP_OUT
      00000090H.3 SFRSYM    DATA     BIT       S2TXD
      000000D0H.1 SFRSYM    DATA     BIT       F1
      00000090H.1 SFRSYM    DATA     BIT       LED1_LE
      00000090H.5 SFRSYM    DATA     BIT       LED2_LE
LX51 LINKER/LOCATER V4.47a                                                            06/06/2015  09:44:34  PAGE 84


      000000F2H   SFRSYM    DATA     BYTE      PCAPWM0
      000000D0H   SFRSYM    DATA     BYTE      PSW
      000000F3H   SFRSYM    DATA     BYTE      PCAPWM1
      000000A0H.2 SFRSYM    DATA     BIT       mV_SDA
      000000D8H   SFRSYM    DATA     BIT       CCF0
      00000098H.2 SFRSYM    DATA     BIT       RB80
      000000F4H   SFRSYM    DATA     BYTE      PCAPWM2
      000000D8H.1 SFRSYM    DATA     BIT       CCF1
      00000098H.2 SFRSYM    DATA     BIT       RB81
      000000F5H   SFRSYM    DATA     BYTE      PCAPWM3
      00000086H   SFRSYM    DATA     BYTE      SPDAT
      00000093H   SFRSYM    DATA     BYTE      P0M0
      000000ADH   SFRSYM    DATA     BYTE      AUXIE

      01005CA2H   BLOCK     CODE     ---       LVL=0
      01005CA2H   BLOCK     CODE     NEAR LAB  LVL=1
      00000007H   SYMBOL    DATA     BYTE      i
      ---         BLOCKEND  ---      ---       LVL=1
      01005CA2H   LINE      CODE     ---       #22
      01005CA2H   LINE      CODE     ---       #23
      01005CA2H   LINE      CODE     ---       #26
      01005CA8H   LINE      CODE     ---       #27
      ---         BLOCKEND  ---      ---       LVL=0
      00000006H   SYMBOL    DATA     WORD      i

      01005BA9H   BLOCK     CODE     ---       LVL=0
      01005BA9H   LINE      CODE     ---       #44
      01005BA9H   LINE      CODE     ---       #45
      01005BA9H   LINE      CODE     ---       #46
      01005BABH   LINE      CODE     ---       #47
      01005BAEH   LINE      CODE     ---       #48
      01005BB0H   LINE      CODE     ---       #49
      01005BB3H   LINE      CODE     ---       #50
      01005BB5H   LINE      CODE     ---       #51
      01005BB8H   LINE      CODE     ---       #52
      01005BBAH   LINE      CODE     ---       #53
      ---         BLOCKEND  ---      ---       LVL=0

      01005C6FH   BLOCK     CODE     ---       LVL=0
      01005C6FH   LINE      CODE     ---       #55
      01005C6FH   LINE      CODE     ---       #56
      01005C6FH   LINE      CODE     ---       #57
      01005C71H   LINE      CODE     ---       #58
      01005C74H   LINE      CODE     ---       #59
      01005C76H   LINE      CODE     ---       #60
      ---         BLOCKEND  ---      ---       LVL=0

      01005852H   BLOCK     CODE     ---       LVL=0
      00000006H   SYMBOL    DATA     BYTE      bt
      01005854H   BLOCK     CODE     NEAR LAB  LVL=1
      00000010H   SYMBOL    IDATA    BYTE      i
      ---         BLOCKEND  ---      ---       LVL=1
      01005852H   LINE      CODE     ---       #63
      01005854H   LINE      CODE     ---       #64
      01005854H   LINE      CODE     ---       #67
      01005857H   LINE      CODE     ---       #69
      0100585BH   LINE      CODE     ---       #70
      0100585BH   LINE      CODE     ---       #71
      0100585FH   LINE      CODE     ---       #72
      01005863H   LINE      CODE     ---       #74
      01005865H   LINE      CODE     ---       #75
      01005867H   LINE      CODE     ---       #76
      0100586AH   LINE      CODE     ---       #77
      0100586CH   LINE      CODE     ---       #78
      0100586FH   LINE      CODE     ---       #79
LX51 LINKER/LOCATER V4.47a                                                            06/06/2015  09:44:34  PAGE 85


      01005873H   LINE      CODE     ---       #80
      0100587CH   LINE      CODE     ---       #82
      0100587EH   LINE      CODE     ---       #83
      01005880H   LINE      CODE     ---       #84
      01005883H   LINE      CODE     ---       #85
      01005886H   LINE      CODE     ---       #86
      01005889H   LINE      CODE     ---       #87
      0100588BH   LINE      CODE     ---       #88
      ---         BLOCKEND  ---      ---       LVL=0

      010059EBH   BLOCK     CODE     ---       LVL=0
      00000006H   SYMBOL    DATA     WORD      mV_V
      010059EBH   BLOCK     CODE     NEAR LAB  LVL=1
      00000003H   SYMBOL    DATA     BYTE      HI_CODE
      00000002H   SYMBOL    DATA     BYTE      LO_CODE
      ---         BLOCKEND  ---      ---       LVL=1
      010059EBH   LINE      CODE     ---       #91
      010059EBH   LINE      CODE     ---       #92
      010059EBH   LINE      CODE     ---       #96
      010059EBH   LINE      CODE     ---       #98
      010059EFH   LINE      CODE     ---       #99
      010059F5H   LINE      CODE     ---       #100
      010059F7H   LINE      CODE     ---       #101
      010059F9H   LINE      CODE     ---       #102
      010059FEH   LINE      CODE     ---       #104
      01005A01H   LINE      CODE     ---       #105
      01005A06H   LINE      CODE     ---       #107
      01005A0BH   LINE      CODE     ---       #108
      01005A10H   LINE      CODE     ---       #109
      ---         BLOCKEND  ---      ---       LVL=0
      00000006H   SYMBOL    DATA     WORD      n

      ---         MODULE    ---      ---       DAC6571_MA
      0000000EH   PUBLIC    DATA     BYTE      _mA_ack
      0100593CH   PUBLIC    CODE     ---       _Set_mA
      0100588EH   PUBLIC    CODE     ---       _DAC6571mA_write_byte
      01005C79H   PUBLIC    CODE     ---       DAC6571mA_stop
      01005BBBH   PUBLIC    CODE     ---       DAC6571mA_start
      01005CA9H   PUBLIC    CODE     ---       _mABitDly
      000000B0H   SFRSYM    DATA     BIT       R485_RX
      000000D8H.2 SFRSYM    DATA     BIT       CCF2
      00000098H.3 SFRSYM    DATA     BIT       TB80
      000000F6H   SFRSYM    DATA     BYTE      PCAPWM4
      00000091H   SFRSYM    DATA     BYTE      P1M0
      00000094H   SFRSYM    DATA     BYTE      P0M1
      00000090H.7 SFRSYM    DATA     BIT       non3
      000000D8H.3 SFRSYM    DATA     BIT       CCF3
      00000098H.3 SFRSYM    DATA     BIT       TB81
      000000F7H   SFRSYM    DATA     BYTE      PCAPWM5
      00000095H   SFRSYM    DATA     BYTE      P2M0
      00000092H   SFRSYM    DATA     BYTE      P1M1
      00000080H   SFRSYM    DATA     BYTE      P0
      000000B0H.1 SFRSYM    DATA     BIT       R485_TX
      000000D8H.4 SFRSYM    DATA     BIT       CCF4
      00000098H.7 SFRSYM    DATA     BIT       SM00
      000000B1H   SFRSYM    DATA     BYTE      P3M0
      00000096H   SFRSYM    DATA     BYTE      P2M1
      00000090H   SFRSYM    DATA     BYTE      P1
      000000D8H.5 SFRSYM    DATA     BIT       CCF5
      00000098H.7 SFRSYM    DATA     BIT       SM01
      00000098H.6 SFRSYM    DATA     BIT       SM10
      000000B3H   SFRSYM    DATA     BYTE      P4M0
      000000B2H   SFRSYM    DATA     BYTE      P3M1
      000000A0H   SFRSYM    DATA     BYTE      P2
      00000098H.6 SFRSYM    DATA     BIT       SM11
LX51 LINKER/LOCATER V4.47a                                                            06/06/2015  09:44:34  PAGE 86


      00000098H.5 SFRSYM    DATA     BIT       SM20
      000000E7H   SFRSYM    DATA     BYTE      ISPCR
      000000B5H   SFRSYM    DATA     BYTE      P5M0
      000000B4H   SFRSYM    DATA     BYTE      P4M1
      000000B0H   SFRSYM    DATA     BYTE      P3
      000000C0H   SFRSYM    DATA     BYTE      XICON
      000000A0H.2 SFRSYM    DATA     BIT       EEPROM_SDA
      00000080H.7 SFRSYM    DATA     BIT       DOWN_KEY
      000000B0H.4 SFRSYM    DATA     BIT       T0
      00000098H.5 SFRSYM    DATA     BIT       SM21
      000000D0H.6 SFRSYM    DATA     BIT       AC
      00000097H   SFRSYM    DATA     BYTE      EVRCR
      000000B6H   SFRSYM    DATA     BYTE      P5M1
      000000E8H   SFRSYM    DATA     BYTE      P4
      000000B0H.5 SFRSYM    DATA     BIT       T1
      00000085H   SFRSYM    DATA     BYTE      SPCON
      000000F8H   SFRSYM    DATA     BYTE      P5
      000000ADH   SFRSYM    DATA     BYTE      EIE1
      00000090H   SFRSYM    DATA     BIT       T2
      000000A8H.7 SFRSYM    DATA     BIT       EA
      000000ACH   SFRSYM    DATA     BYTE      SFRPI
      000000E1H   SFRSYM    DATA     BYTE      WDTCR
      000000C8H   SFRSYM    DATA     BYTE      P6
      000000A0H.4 SFRSYM    DATA     BIT       mV_SCL
      000000A0H   SFRSYM    DATA     BIT       KBI0
      00000090H.5 SFRSYM    DATA     BIT       SPI_MOSI
      00000090H.6 SFRSYM    DATA     BIT       SPI_MISO
      00000080H.5 SFRSYM    DATA     BIT       mA_OUT
      000000A0H.1 SFRSYM    DATA     BIT       KBI1
      00000085H   SFRSYM    DATA     BYTE      SPCTL
      000000A0H.2 SFRSYM    DATA     BIT       KBI2
      00000090H   SFRSYM    DATA     BIT       AIN0
      000000D8H.7 SFRSYM    DATA     BIT       CF
      000000AEH   SFRSYM    DATA     BYTE      AUXIP
      000000A0H.3 SFRSYM    DATA     BIT       KBI3
      00000090H.1 SFRSYM    DATA     BIT       AIN1
      000000A0H.4 SFRSYM    DATA     BIT       KBI4
      00000090H.2 SFRSYM    DATA     BIT       AIN2
      00000098H.7 SFRSYM    DATA     BIT       FE
      000000F9H   SFRSYM    DATA     BYTE      CH
      000000A0H.5 SFRSYM    DATA     BIT       KBI5
      00000090H.3 SFRSYM    DATA     BIT       AIN3
      000000A0H.6 SFRSYM    DATA     BIT       KBI6
      00000090H.4 SFRSYM    DATA     BIT       AIN4
      000000A0H.3 SFRSYM    DATA     BIT       EEPROM_SCL
      00000080H.1 SFRSYM    DATA     BIT       RTD_C
      000000A0H.7 SFRSYM    DATA     BIT       KBI7
      00000090H.5 SFRSYM    DATA     BIT       AIN5
      000000A8H   SFRSYM    DATA     BYTE      IE
      00000090H.6 SFRSYM    DATA     BIT       AIN6
      000000E9H   SFRSYM    DATA     BYTE      CL
      00000090H.7 SFRSYM    DATA     BIT       AIN7
      00000090H.2 SFRSYM    DATA     BIT       CEX0
      000000FAH   SFRSYM    DATA     BYTE      CCAP0H
      000000C6H   SFRSYM    DATA     BYTE      ADCH
      00000090H.3 SFRSYM    DATA     BIT       CEX1
      000000FBH   SFRSYM    DATA     BYTE      CCAP1H
      000000B7H   SFRSYM    DATA     BYTE      IP0H
      000000A0H.2 SFRSYM    DATA     BIT       ALL_SDA
      00000090H.4 SFRSYM    DATA     BIT       CEX2
      000000FCH   SFRSYM    DATA     BYTE      CCAP2H
      000000B0H.3 SFRSYM    DATA     BIT       OFFSET_KEY
      00000090H.5 SFRSYM    DATA     BIT       CEX3
      000000FDH   SFRSYM    DATA     BYTE      CCAP3H
      00000090H.6 SFRSYM    DATA     BIT       CEX4
LX51 LINKER/LOCATER V4.47a                                                            06/06/2015  09:44:34  PAGE 87


      000000D8H.6 SFRSYM    DATA     BIT       CR
      000000FEH   SFRSYM    DATA     BYTE      CCAP4H
      000000EAH   SFRSYM    DATA     BYTE      CCAP0L
      000000BEH   SFRSYM    DATA     BYTE      ADCL
      000000B0H.7 SFRSYM    DATA     BIT       RD
      00000090H.7 SFRSYM    DATA     BIT       CEX5
      000000C8H.6 SFRSYM    DATA     BIT       EXF2
      00000098H.4 SFRSYM    DATA     BIT       REN0
      000000FFH   SFRSYM    DATA     BYTE      CCAP5H
      000000EBH   SFRSYM    DATA     BYTE      CCAP1L
      000000DAH   SFRSYM    DATA     BYTE      CCAPM0
      000000B8H   SFRSYM    DATA     BYTE      IP0L
      00000098H.4 SFRSYM    DATA     BIT       REN1
      000000ECH   SFRSYM    DATA     BYTE      CCAP2L
      000000DBH   SFRSYM    DATA     BYTE      CCAPM1
      000000C0H.3 SFRSYM    DATA     BIT       IT2H
      000000A8H.4 SFRSYM    DATA     BIT       ES
      00000097H   SFRSYM    DATA     BYTE      TSTWD
      000000EDH   SFRSYM    DATA     BYTE      CCAP3L
      000000DCH   SFRSYM    DATA     BYTE      CCAPM2
      000000C0H.7 SFRSYM    DATA     BIT       IT3H
      000000EEH   SFRSYM    DATA     BYTE      CCAP4L
      000000DDH   SFRSYM    DATA     BYTE      CCAPM3
      000000B8H   SFRSYM    DATA     BYTE      IP
      000000EFH   SFRSYM    DATA     BYTE      CCAP5L
      000000DEH   SFRSYM    DATA     BYTE      CCAPM4
      00000098H   SFRSYM    DATA     BIT       RI
      000000DFH   SFRSYM    DATA     BYTE      CCAPM5
      000000B0H.2 SFRSYM    DATA     BIT       INT0
      000000D0H.7 SFRSYM    DATA     BIT       CY
      000000B0H.4 SFRSYM    DATA     BIT       BEEP
      00000080H.4 SFRSYM    DATA     BIT       mV_OUT
      000000B0H.3 SFRSYM    DATA     BIT       INT1
      00000098H.1 SFRSYM    DATA     BIT       TI
      000000A0H.3 SFRSYM    DATA     BIT       EEP_SCL
      000000E8H.3 SFRSYM    DATA     BIT       INT2
      000000E8H.2 SFRSYM    DATA     BIT       INT3
      000000C6H   SFRSYM    DATA     BYTE      ADCV
      0000008FH   SFRSYM    DATA     BYTE      STRETCH
      000000B8H.1 SFRSYM    DATA     BIT       PT0L
      000000B8H.3 SFRSYM    DATA     BIT       PT1L
      000000CBH   SFRSYM    DATA     BYTE      RCAP2H
      000000A0H.2 SFRSYM    DATA     BIT       RTC_SDA
      000000B8H.4 SFRSYM    DATA     BIT       PS
      000000B8H.5 SFRSYM    DATA     BIT       PT2L
      00000081H   SFRSYM    DATA     BYTE      SP
      00000090H.1 SFRSYM    DATA     BIT       T2EX
      000000D9H   SFRSYM    DATA     BYTE      CMOD
      000000D8H   SFRSYM    DATA     BYTE      CCON
      0000009AH   SFRSYM    DATA     BYTE      SCFG
      000000B8H   SFRSYM    DATA     BIT       PX0L
      000000D0H.2 SFRSYM    DATA     BIT       OV
      000000B8H.2 SFRSYM    DATA     BIT       PX1L
      000000CAH   SFRSYM    DATA     BYTE      RCAP2L
      000000B8H.6 SFRSYM    DATA     BIT       PX2L
      00000090H.7 SFRSYM    DATA     BIT       SPI_CLK
      000000B8H.7 SFRSYM    DATA     BIT       PX3L
      000000E6H   SFRSYM    DATA     BYTE      SCMD
      000000B0H.6 SFRSYM    DATA     BIT       WR
      000000C8H.1 SFRSYM    DATA     BIT       C_T2
      00000084H   SFRSYM    DATA     BYTE      SPISTAT
      00000090H.6 SFRSYM    DATA     BIT       RTC_SCL
      000000C8H.5 SFRSYM    DATA     BIT       RCLK
      000000C8H.4 SFRSYM    DATA     BIT       TCLK
      00000080H   SFRSYM    DATA     BIT       P00
LX51 LINKER/LOCATER V4.47a                                                            06/06/2015  09:44:34  PAGE 88


      000000E3H   SFRSYM    DATA     BYTE      IFADRH
      00000090H   SFRSYM    DATA     BIT       P10
      00000080H.1 SFRSYM    DATA     BIT       P01
      000000E5H   SFRSYM    DATA     BYTE      IFMT
      00000087H   SFRSYM    DATA     BYTE      PCON
      00000099H   SFRSYM    DATA     BYTE      SBUF
      000000A0H   SFRSYM    DATA     BIT       P20
      00000090H.1 SFRSYM    DATA     BIT       P11
      00000080H.2 SFRSYM    DATA     BIT       P02
      000000B0H   SFRSYM    DATA     BIT       P30
      000000A0H.1 SFRSYM    DATA     BIT       P21
      00000090H.2 SFRSYM    DATA     BIT       P12
      00000080H.3 SFRSYM    DATA     BIT       P03
      000000B0H.2 SFRSYM    DATA     BIT       FUNCTION_KEY
      000000E8H   SFRSYM    DATA     BIT       P40
      000000B0H.1 SFRSYM    DATA     BIT       P31
      000000A0H.2 SFRSYM    DATA     BIT       P22
      00000090H.3 SFRSYM    DATA     BIT       P13
      00000080H.4 SFRSYM    DATA     BIT       P04
      000000E4H   SFRSYM    DATA     BYTE      IFADRL
      00000098H   SFRSYM    DATA     BYTE      SCON
      000000F8H   SFRSYM    DATA     BIT       P50
      000000E8H.1 SFRSYM    DATA     BIT       P41
      000000B0H.2 SFRSYM    DATA     BIT       P32
      000000A0H.3 SFRSYM    DATA     BIT       P23
      00000090H.4 SFRSYM    DATA     BIT       P14
      00000080H.5 SFRSYM    DATA     BIT       P05
      00000089H   SFRSYM    DATA     BYTE      TMOD
      00000088H   SFRSYM    DATA     BYTE      TCON
      000000C8H   SFRSYM    DATA     BIT       P60
      000000F8H.1 SFRSYM    DATA     BIT       P51
      000000E8H.2 SFRSYM    DATA     BIT       P42
      000000B0H.3 SFRSYM    DATA     BIT       P33
      000000A0H.4 SFRSYM    DATA     BIT       P24
      00000090H.5 SFRSYM    DATA     BIT       P15
      00000080H.6 SFRSYM    DATA     BIT       P06
      000000A0H.5 SFRSYM    DATA     BIT       TEMP
      000000C8H.1 SFRSYM    DATA     BIT       P61
      000000F8H.2 SFRSYM    DATA     BIT       P52
      000000E8H.3 SFRSYM    DATA     BIT       P43
      000000B0H.4 SFRSYM    DATA     BIT       P34
      000000A0H.5 SFRSYM    DATA     BIT       P25
      00000090H.6 SFRSYM    DATA     BIT       P16
      00000080H.7 SFRSYM    DATA     BIT       P07
      000000F8H.3 SFRSYM    DATA     BIT       P53
      000000E8H.4 SFRSYM    DATA     BIT       P44
      000000B0H.5 SFRSYM    DATA     BIT       P35
      000000A0H.6 SFRSYM    DATA     BIT       P26
      00000090H.7 SFRSYM    DATA     BIT       P17
      000000A0H   SFRSYM    DATA     BIT       Value_SDA
      000000E8H.5 SFRSYM    DATA     BIT       P45
      000000B0H.6 SFRSYM    DATA     BIT       P36
      000000A0H.7 SFRSYM    DATA     BIT       P27
      00000080H   SFRSYM    DATA     BIT       TC_C
      000000E8H.6 SFRSYM    DATA     BIT       P46
      000000B0H.7 SFRSYM    DATA     BIT       P37
      000000E8H.7 SFRSYM    DATA     BIT       P47
      000000D7H   SFRSYM    DATA     BYTE      KBMASK
      000000A0H.4 SFRSYM    DATA     BIT       OUT_SCL
      000000A0H   SFRSYM    DATA     BIT       AD_SDA
      00000088H.1 SFRSYM    DATA     BIT       IE0
      00000088H.3 SFRSYM    DATA     BIT       IE1
      00000090H   SFRSYM    DATA     BIT       LED1_SDA
      000000C0H.1 SFRSYM    DATA     BIT       IE2
      00000090H.3 SFRSYM    DATA     BIT       LED2_SDA
LX51 LINKER/LOCATER V4.47a                                                            06/06/2015  09:44:34  PAGE 89


      000000C0H.5 SFRSYM    DATA     BIT       IE3
      000000A8H.6 SFRSYM    DATA     BIT       GF4
      0000008EH   SFRSYM    DATA     BYTE      AUXR
      000000F0H   SFRSYM    DATA     BYTE      B
      000000D5H   SFRSYM    DATA     BYTE      KBPATN
      000000A0H.1 SFRSYM    DATA     BIT       Value_SCL
      000000C8H   SFRSYM    DATA     BIT       CP_RL2
      000000A0H.6 SFRSYM    DATA     BIT       NONE_4
      000000A0H.7 SFRSYM    DATA     BIT       NONE_5
      000000B0H.6 SFRSYM    DATA     BIT       NONE_6
      00000086H   SFRSYM    DATA     BYTE      SPIDAT
      000000E0H   SFRSYM    DATA     BYTE      ACC
      000000B0H.7 SFRSYM    DATA     BIT       NONE_7
      000000A0H.1 SFRSYM    DATA     BIT       AD_SCL
      000000A8H.4 SFRSYM    DATA     BIT       ES0
      000000A8H.1 SFRSYM    DATA     BIT       ET0
      00000090H.2 SFRSYM    DATA     BIT       LED1_SCL
      00000088H.5 SFRSYM    DATA     BIT       TF0
      000000A8H.3 SFRSYM    DATA     BIT       ET1
      00000090H.4 SFRSYM    DATA     BIT       LED2_SCL
      00000088H.7 SFRSYM    DATA     BIT       TF1
      00000098H   SFRSYM    DATA     BIT       RI0
      000000A8H.5 SFRSYM    DATA     BIT       ET2
      000000C8H.7 SFRSYM    DATA     BIT       TF2
      00000098H   SFRSYM    DATA     BIT       RI1
      00000098H.2 SFRSYM    DATA     BIT       RB8
      0000008CH   SFRSYM    DATA     BYTE      TH0
      00000088H   SFRSYM    DATA     BIT       IT0
      00000098H.1 SFRSYM    DATA     BIT       TI0
      000000A8H   SFRSYM    DATA     BIT       EX0
      0000008DH   SFRSYM    DATA     BYTE      TH1
      00000088H.2 SFRSYM    DATA     BIT       IT1
      00000098H.1 SFRSYM    DATA     BIT       TI1
      00000098H.3 SFRSYM    DATA     BIT       TB8
      000000A8H.2 SFRSYM    DATA     BIT       EX1
      00000085H   SFRSYM    DATA     BYTE      SPICON
      000000CDH   SFRSYM    DATA     BYTE      TH2
      000000C0H   SFRSYM    DATA     BIT       IT2
      000000C0H.2 SFRSYM    DATA     BIT       EX2
      000000D0H   SFRSYM    DATA     BIT       P
      000000C0H.4 SFRSYM    DATA     BIT       IT3
      000000C0H.6 SFRSYM    DATA     BIT       EX3
      00000098H.7 SFRSYM    DATA     BIT       SM0
      0000008AH   SFRSYM    DATA     BYTE      TL0
      00000080H.3 SFRSYM    DATA     BIT       mA_C
      000000C8H   SFRSYM    DATA     BIT       XOUT
      00000090H.1 SFRSYM    DATA     BIT       ECI
      00000098H.6 SFRSYM    DATA     BIT       SM1
      00000085H   SFRSYM    DATA     BYTE      SPICTL
      0000008BH   SFRSYM    DATA     BYTE      TL1
      000000AFH   SFRSYM    DATA     BYTE      AUXIPH
      000000E8H.6 SFRSYM    DATA     BIT       ALE
      00000098H.5 SFRSYM    DATA     BIT       SM2
      000000CCH   SFRSYM    DATA     BYTE      TL2
      000000E2H   SFRSYM    DATA     BYTE      IFD
      000000B8H.1 SFRSYM    DATA     BIT       PT0
      000000B0H.5 SFRSYM    DATA     BIT       R485_DE_RE
      000000B8H.3 SFRSYM    DATA     BIT       PT1
      000000D0H.3 SFRSYM    DATA     BIT       RS0
      00000088H.4 SFRSYM    DATA     BIT       TR0
      000000B8H.5 SFRSYM    DATA     BIT       PT2
      000000D0H.4 SFRSYM    DATA     BIT       RS1
      00000088H.6 SFRSYM    DATA     BIT       TR1
      000000C8H.2 SFRSYM    DATA     BIT       TR2
      000000B8H   SFRSYM    DATA     BIT       PX0
LX51 LINKER/LOCATER V4.47a                                                            06/06/2015  09:44:34  PAGE 90


      000000AFH   SFRSYM    DATA     BYTE      EIP1H
      000000B8H.2 SFRSYM    DATA     BIT       PX1
      000000C0H.3 SFRSYM    DATA     BIT       PX2
      000000C0H.7 SFRSYM    DATA     BIT       PX3
      000000AEH   SFRSYM    DATA     BYTE      EIP1L
      00000083H   SFRSYM    DATA     BYTE      DPH
      000000C8H   SFRSYM    DATA     BIT       CKO
      00000082H   SFRSYM    DATA     BYTE      DPL
      00000087H   SFRSYM    DATA     BYTE      PCON0
      00000084H   SFRSYM    DATA     BYTE      SPSTAT
      00000099H   SFRSYM    DATA     BYTE      SBUF0
      000000B7H   SFRSYM    DATA     BYTE      IPH
      000000B0H.4 SFRSYM    DATA     BIT       T0CKO
      00000097H   SFRSYM    DATA     BYTE      PCON1
      00000099H   SFRSYM    DATA     BYTE      SBUF1
      000000B0H.5 SFRSYM    DATA     BIT       T1CKO
      000000C8H.3 SFRSYM    DATA     BIT       EXEN2
      000000C7H   SFRSYM    DATA     BYTE      PCON2
      0000009AH   SFRSYM    DATA     BYTE      S2BUF
      00000098H   SFRSYM    DATA     BYTE      SCON0
      00000098H.4 SFRSYM    DATA     BIT       REN
      00000098H   SFRSYM    DATA     BYTE      SCON1
      00000080H.2 SFRSYM    DATA     BIT       mV_C
      000000C5H   SFRSYM    DATA     BYTE      ADCON
      000000A0H.2 SFRSYM    DATA     BIT       mA_SDA
      000000C9H   SFRSYM    DATA     BYTE      T2MOD
      000000C8H   SFRSYM    DATA     BYTE      T2CON
      000000C5H   SFRSYM    DATA     BYTE      ADCTL
      000000BEH   SFRSYM    DATA     BYTE      ADCVL
      000000B9H   SFRSYM    DATA     BYTE      SADEN
      0000009AH   SFRSYM    DATA     BYTE      S1BRT
      000000B0H   SFRSYM    DATA     BIT       RXD
      000000D6H   SFRSYM    DATA     BYTE      KBCON
      00000080H.6 SFRSYM    DATA     BIT       UP_KEY
      000000C8H.1 SFRSYM    DATA     BIT       XIN
      000000B8H.4 SFRSYM    DATA     BIT       PSL
      000000A9H   SFRSYM    DATA     BYTE      SADDR
      000000B0H.1 SFRSYM    DATA     BIT       TXD
      000000A0H.4 SFRSYM    DATA     BIT       mA_SCL
      0000008EH   SFRSYM    DATA     BYTE      AUXR0
      000000A2H   SFRSYM    DATA     BYTE      AUXR1
      00000090H.4 SFRSYM    DATA     BIT       SPI_SS
      000000A6H   SFRSYM    DATA     BYTE      AUXR2
      00000090H.2 SFRSYM    DATA     BIT       S2RXD
      000000D0H.5 SFRSYM    DATA     BIT       F0
      000000B0H.4 SFRSYM    DATA     BIT       BEEP_OUT
      00000090H.3 SFRSYM    DATA     BIT       S2TXD
      000000D0H.1 SFRSYM    DATA     BIT       F1
      00000090H.1 SFRSYM    DATA     BIT       LED1_LE
      00000090H.5 SFRSYM    DATA     BIT       LED2_LE
      000000F2H   SFRSYM    DATA     BYTE      PCAPWM0
      000000D0H   SFRSYM    DATA     BYTE      PSW
      000000F3H   SFRSYM    DATA     BYTE      PCAPWM1
      000000A0H.2 SFRSYM    DATA     BIT       mV_SDA
      000000D8H   SFRSYM    DATA     BIT       CCF0
      00000098H.2 SFRSYM    DATA     BIT       RB80
      000000F4H   SFRSYM    DATA     BYTE      PCAPWM2
      000000D8H.1 SFRSYM    DATA     BIT       CCF1
      00000098H.2 SFRSYM    DATA     BIT       RB81
      000000F5H   SFRSYM    DATA     BYTE      PCAPWM3
      00000086H   SFRSYM    DATA     BYTE      SPDAT
      00000093H   SFRSYM    DATA     BYTE      P0M0
      000000ADH   SFRSYM    DATA     BYTE      AUXIE

      01005CA9H   BLOCK     CODE     ---       LVL=0
LX51 LINKER/LOCATER V4.47a                                                            06/06/2015  09:44:34  PAGE 91


      01005CA9H   BLOCK     CODE     NEAR LAB  LVL=1
      00000007H   SYMBOL    DATA     BYTE      k
      ---         BLOCKEND  ---      ---       LVL=1
      01005CA9H   LINE      CODE     ---       #23
      01005CA9H   LINE      CODE     ---       #24
      01005CA9H   LINE      CODE     ---       #27
      01005CAFH   LINE      CODE     ---       #28
      ---         BLOCKEND  ---      ---       LVL=0
      00000006H   SYMBOL    DATA     WORD      i

      01005BBBH   BLOCK     CODE     ---       LVL=0
      01005BBBH   LINE      CODE     ---       #45
      01005BBBH   LINE      CODE     ---       #46
      01005BBBH   LINE      CODE     ---       #47
      01005BBDH   LINE      CODE     ---       #48
      01005BC0H   LINE      CODE     ---       #49
      01005BC2H   LINE      CODE     ---       #50
      01005BC5H   LINE      CODE     ---       #51
      01005BC7H   LINE      CODE     ---       #52
      01005BCAH   LINE      CODE     ---       #53
      01005BCCH   LINE      CODE     ---       #54
      ---         BLOCKEND  ---      ---       LVL=0

      01005C79H   BLOCK     CODE     ---       LVL=0
      01005C79H   LINE      CODE     ---       #56
      01005C79H   LINE      CODE     ---       #57
      01005C79H   LINE      CODE     ---       #58
      01005C7BH   LINE      CODE     ---       #59
      01005C7EH   LINE      CODE     ---       #60
      01005C80H   LINE      CODE     ---       #61
      ---         BLOCKEND  ---      ---       LVL=0

      0100588EH   BLOCK     CODE     ---       LVL=0
      00000006H   SYMBOL    DATA     BYTE      bt
      01005890H   BLOCK     CODE     NEAR LAB  LVL=1
      00000010H   SYMBOL    IDATA    BYTE      i
      ---         BLOCKEND  ---      ---       LVL=1
      0100588EH   LINE      CODE     ---       #64
      01005890H   LINE      CODE     ---       #65
      01005890H   LINE      CODE     ---       #68
      01005893H   LINE      CODE     ---       #70
      01005897H   LINE      CODE     ---       #71
      01005897H   LINE      CODE     ---       #72
      0100589BH   LINE      CODE     ---       #73
      0100589FH   LINE      CODE     ---       #75
      010058A1H   LINE      CODE     ---       #76
      010058A3H   LINE      CODE     ---       #77
      010058A6H   LINE      CODE     ---       #78
      010058A8H   LINE      CODE     ---       #79
      010058ABH   LINE      CODE     ---       #80
      010058AFH   LINE      CODE     ---       #81
      010058B8H   LINE      CODE     ---       #83
      010058BAH   LINE      CODE     ---       #84
      010058BCH   LINE      CODE     ---       #85
      010058BFH   LINE      CODE     ---       #86
      010058C2H   LINE      CODE     ---       #87
      010058C5H   LINE      CODE     ---       #88
      010058C7H   LINE      CODE     ---       #89
      ---         BLOCKEND  ---      ---       LVL=0

      0100593CH   BLOCK     CODE     ---       LVL=0
      00000002H   SYMBOL    DATA     WORD      mA_Value
      01005940H   BLOCK     CODE     NEAR LAB  LVL=1
      00000004H   SYMBOL    DATA     BYTE      HI_CODE
      00000005H   SYMBOL    DATA     BYTE      LO_CODE
LX51 LINKER/LOCATER V4.47a                                                            06/06/2015  09:44:34  PAGE 92


      ---         BLOCKEND  ---      ---       LVL=1
      0100593CH   LINE      CODE     ---       #92
      01005940H   LINE      CODE     ---       #93
      01005940H   LINE      CODE     ---       #96
      01005944H   LINE      CODE     ---       #97
      0100594EH   LINE      CODE     ---       #99
      01005952H   LINE      CODE     ---       #100
      01005956H   LINE      CODE     ---       #101
      01005959H   LINE      CODE     ---       #102
      0100595CH   LINE      CODE     ---       #103
      01005961H   LINE      CODE     ---       #104
      01005966H   LINE      CODE     ---       #105
      0100596BH   LINE      CODE     ---       #106
      ---         BLOCKEND  ---      ---       LVL=0
      00000006H   SYMBOL    DATA     WORD      n

      ---         MODULE    ---      ---       TYPE_SLOPE
      0000000AH   PUBLIC    DATA     BYTE      ng_flog
      00000009H   PUBLIC    DATA     BYTE      NP_COD
      0200004AH   PUBLIC    XDATA    ---       RTD_Slope
      00000008H   PUBLIC    DATA     BYTE      AV_COD
      02000040H   PUBLIC    XDATA    ---       T_Slope
      02000030H   PUBLIC    XDATA    ---       S_Slope
      02000020H   PUBLIC    XDATA    ---       R_Slope
      02000015H   PUBLIC    XDATA    ---       K_Slope
      0200000CH   PUBLIC    XDATA    ---       J_Slope
      02000000H   PUBLIC    XDATA    ---       E_Slope
      01002FE7H   PUBLIC    CODE     ---       _Get_RTD_Slope
      01004080H   PUBLIC    CODE     ---       _Get_S_Slope
      010043CFH   PUBLIC    CODE     ---       _Get_R_Slope
      01000BC3H   PUBLIC    CODE     ---       _Get_E_Slope
      01002A77H   PUBLIC    CODE     ---       _Get_T_Slope
      01003484H   PUBLIC    CODE     ---       _Get_J_Slope
      01001425H   PUBLIC    CODE     ---       _Get_K_Slope
      000000D8H.2 SFRSYM    DATA     BIT       CCF2
      00000098H.3 SFRSYM    DATA     BIT       TB80
      000000F6H   SFRSYM    DATA     BYTE      PCAPWM4
      00000091H   SFRSYM    DATA     BYTE      P1M0
      00000094H   SFRSYM    DATA     BYTE      P0M1
      000000D8H.3 SFRSYM    DATA     BIT       CCF3
      00000098H.3 SFRSYM    DATA     BIT       TB81
      000000F7H   SFRSYM    DATA     BYTE      PCAPWM5
      00000095H   SFRSYM    DATA     BYTE      P2M0
      00000092H   SFRSYM    DATA     BYTE      P1M1
      00000080H   SFRSYM    DATA     BYTE      P0
      000000D8H.4 SFRSYM    DATA     BIT       CCF4
      00000098H.7 SFRSYM    DATA     BIT       SM00
      000000B1H   SFRSYM    DATA     BYTE      P3M0
      00000096H   SFRSYM    DATA     BYTE      P2M1
      00000090H   SFRSYM    DATA     BYTE      P1
      000000D8H.5 SFRSYM    DATA     BIT       CCF5
      00000098H.7 SFRSYM    DATA     BIT       SM01
      00000098H.6 SFRSYM    DATA     BIT       SM10
      000000B3H   SFRSYM    DATA     BYTE      P4M0
      000000B2H   SFRSYM    DATA     BYTE      P3M1
      000000A0H   SFRSYM    DATA     BYTE      P2
      00000098H.6 SFRSYM    DATA     BIT       SM11
      00000098H.5 SFRSYM    DATA     BIT       SM20
      000000E7H   SFRSYM    DATA     BYTE      ISPCR
      000000B5H   SFRSYM    DATA     BYTE      P5M0
      000000B4H   SFRSYM    DATA     BYTE      P4M1
      000000B0H   SFRSYM    DATA     BYTE      P3
      000000C0H   SFRSYM    DATA     BYTE      XICON
      000000B0H.4 SFRSYM    DATA     BIT       T0
      00000098H.5 SFRSYM    DATA     BIT       SM21
LX51 LINKER/LOCATER V4.47a                                                            06/06/2015  09:44:34  PAGE 93


      000000D0H.6 SFRSYM    DATA     BIT       AC
      00000097H   SFRSYM    DATA     BYTE      EVRCR
      000000B6H   SFRSYM    DATA     BYTE      P5M1
      000000E8H   SFRSYM    DATA     BYTE      P4
      000000B0H.5 SFRSYM    DATA     BIT       T1
      00000085H   SFRSYM    DATA     BYTE      SPCON
      000000F8H   SFRSYM    DATA     BYTE      P5
      000000ADH   SFRSYM    DATA     BYTE      EIE1
      00000090H   SFRSYM    DATA     BIT       T2
      000000A8H.7 SFRSYM    DATA     BIT       EA
      000000ACH   SFRSYM    DATA     BYTE      SFRPI
      000000E1H   SFRSYM    DATA     BYTE      WDTCR
      000000C8H   SFRSYM    DATA     BYTE      P6
      000000A0H   SFRSYM    DATA     BIT       KBI0
      00000090H.5 SFRSYM    DATA     BIT       SPI_MOSI
      00000090H.6 SFRSYM    DATA     BIT       SPI_MISO
      000000A0H.1 SFRSYM    DATA     BIT       KBI1
      00000085H   SFRSYM    DATA     BYTE      SPCTL
      000000A0H.2 SFRSYM    DATA     BIT       KBI2
      00000090H   SFRSYM    DATA     BIT       AIN0
      000000D8H.7 SFRSYM    DATA     BIT       CF
      000000AEH   SFRSYM    DATA     BYTE      AUXIP
      000000A0H.3 SFRSYM    DATA     BIT       KBI3
      00000090H.1 SFRSYM    DATA     BIT       AIN1
      000000A0H.4 SFRSYM    DATA     BIT       KBI4
      00000090H.2 SFRSYM    DATA     BIT       AIN2
      00000098H.7 SFRSYM    DATA     BIT       FE
      000000F9H   SFRSYM    DATA     BYTE      CH
      000000A0H.5 SFRSYM    DATA     BIT       KBI5
      00000090H.3 SFRSYM    DATA     BIT       AIN3
      000000A0H.6 SFRSYM    DATA     BIT       KBI6
      00000090H.4 SFRSYM    DATA     BIT       AIN4
      000000A0H.7 SFRSYM    DATA     BIT       KBI7
      00000090H.5 SFRSYM    DATA     BIT       AIN5
      000000A8H   SFRSYM    DATA     BYTE      IE
      00000090H.6 SFRSYM    DATA     BIT       AIN6
      000000E9H   SFRSYM    DATA     BYTE      CL
      00000090H.7 SFRSYM    DATA     BIT       AIN7
      00000090H.2 SFRSYM    DATA     BIT       CEX0
      000000FAH   SFRSYM    DATA     BYTE      CCAP0H
      000000C6H   SFRSYM    DATA     BYTE      ADCH
      00000090H.3 SFRSYM    DATA     BIT       CEX1
      000000FBH   SFRSYM    DATA     BYTE      CCAP1H
      000000B7H   SFRSYM    DATA     BYTE      IP0H
      00000090H.4 SFRSYM    DATA     BIT       CEX2
      000000FCH   SFRSYM    DATA     BYTE      CCAP2H
      00000090H.5 SFRSYM    DATA     BIT       CEX3
      000000FDH   SFRSYM    DATA     BYTE      CCAP3H
      00000090H.6 SFRSYM    DATA     BIT       CEX4
      000000D8H.6 SFRSYM    DATA     BIT       CR
      000000FEH   SFRSYM    DATA     BYTE      CCAP4H
      000000EAH   SFRSYM    DATA     BYTE      CCAP0L
      000000BEH   SFRSYM    DATA     BYTE      ADCL
      000000B0H.7 SFRSYM    DATA     BIT       RD
      00000090H.7 SFRSYM    DATA     BIT       CEX5
      000000C8H.6 SFRSYM    DATA     BIT       EXF2
      00000098H.4 SFRSYM    DATA     BIT       REN0
      000000FFH   SFRSYM    DATA     BYTE      CCAP5H
      000000EBH   SFRSYM    DATA     BYTE      CCAP1L
      000000DAH   SFRSYM    DATA     BYTE      CCAPM0
      000000B8H   SFRSYM    DATA     BYTE      IP0L
      00000098H.4 SFRSYM    DATA     BIT       REN1
      000000ECH   SFRSYM    DATA     BYTE      CCAP2L
      000000DBH   SFRSYM    DATA     BYTE      CCAPM1
      000000C0H.3 SFRSYM    DATA     BIT       IT2H
LX51 LINKER/LOCATER V4.47a                                                            06/06/2015  09:44:34  PAGE 94


      000000A8H.4 SFRSYM    DATA     BIT       ES
      00000097H   SFRSYM    DATA     BYTE      TSTWD
      000000EDH   SFRSYM    DATA     BYTE      CCAP3L
      000000DCH   SFRSYM    DATA     BYTE      CCAPM2
      000000C0H.7 SFRSYM    DATA     BIT       IT3H
      000000EEH   SFRSYM    DATA     BYTE      CCAP4L
      000000DDH   SFRSYM    DATA     BYTE      CCAPM3
      000000B8H   SFRSYM    DATA     BYTE      IP
      000000EFH   SFRSYM    DATA     BYTE      CCAP5L
      000000DEH   SFRSYM    DATA     BYTE      CCAPM4
      00000098H   SFRSYM    DATA     BIT       RI
      000000DFH   SFRSYM    DATA     BYTE      CCAPM5
      000000B0H.2 SFRSYM    DATA     BIT       INT0
      000000D0H.7 SFRSYM    DATA     BIT       CY
      000000B0H.3 SFRSYM    DATA     BIT       INT1
      00000098H.1 SFRSYM    DATA     BIT       TI
      000000E8H.3 SFRSYM    DATA     BIT       INT2
      000000E8H.2 SFRSYM    DATA     BIT       INT3
      000000C6H   SFRSYM    DATA     BYTE      ADCV
      0000008FH   SFRSYM    DATA     BYTE      STRETCH
      000000B8H.1 SFRSYM    DATA     BIT       PT0L
      000000B8H.3 SFRSYM    DATA     BIT       PT1L
      000000CBH   SFRSYM    DATA     BYTE      RCAP2H
      000000B8H.4 SFRSYM    DATA     BIT       PS
      000000B8H.5 SFRSYM    DATA     BIT       PT2L
      00000081H   SFRSYM    DATA     BYTE      SP
      00000090H.1 SFRSYM    DATA     BIT       T2EX
      000000D9H   SFRSYM    DATA     BYTE      CMOD
      000000D8H   SFRSYM    DATA     BYTE      CCON
      0000009AH   SFRSYM    DATA     BYTE      SCFG
      000000B8H   SFRSYM    DATA     BIT       PX0L
      000000D0H.2 SFRSYM    DATA     BIT       OV
      000000B8H.2 SFRSYM    DATA     BIT       PX1L
      000000CAH   SFRSYM    DATA     BYTE      RCAP2L
      000000B8H.6 SFRSYM    DATA     BIT       PX2L
      00000090H.7 SFRSYM    DATA     BIT       SPI_CLK
      000000B8H.7 SFRSYM    DATA     BIT       PX3L
      000000E6H   SFRSYM    DATA     BYTE      SCMD
      000000B0H.6 SFRSYM    DATA     BIT       WR
      000000C8H.1 SFRSYM    DATA     BIT       C_T2
      00000084H   SFRSYM    DATA     BYTE      SPISTAT
      000000C8H.5 SFRSYM    DATA     BIT       RCLK
      000000C8H.4 SFRSYM    DATA     BIT       TCLK
      00000080H   SFRSYM    DATA     BIT       P00
      000000E3H   SFRSYM    DATA     BYTE      IFADRH
      00000090H   SFRSYM    DATA     BIT       P10
      00000080H.1 SFRSYM    DATA     BIT       P01
      000000E5H   SFRSYM    DATA     BYTE      IFMT
      00000087H   SFRSYM    DATA     BYTE      PCON
      00000099H   SFRSYM    DATA     BYTE      SBUF
      000000A0H   SFRSYM    DATA     BIT       P20
      00000090H.1 SFRSYM    DATA     BIT       P11
      00000080H.2 SFRSYM    DATA     BIT       P02
      000000B0H   SFRSYM    DATA     BIT       P30
      000000A0H.1 SFRSYM    DATA     BIT       P21
      00000090H.2 SFRSYM    DATA     BIT       P12
      00000080H.3 SFRSYM    DATA     BIT       P03
      000000E8H   SFRSYM    DATA     BIT       P40
      000000B0H.1 SFRSYM    DATA     BIT       P31
      000000A0H.2 SFRSYM    DATA     BIT       P22
      00000090H.3 SFRSYM    DATA     BIT       P13
      00000080H.4 SFRSYM    DATA     BIT       P04
      000000E4H   SFRSYM    DATA     BYTE      IFADRL
      00000098H   SFRSYM    DATA     BYTE      SCON
      000000F8H   SFRSYM    DATA     BIT       P50
LX51 LINKER/LOCATER V4.47a                                                            06/06/2015  09:44:34  PAGE 95


      000000E8H.1 SFRSYM    DATA     BIT       P41
      000000B0H.2 SFRSYM    DATA     BIT       P32
      000000A0H.3 SFRSYM    DATA     BIT       P23
      00000090H.4 SFRSYM    DATA     BIT       P14
      00000080H.5 SFRSYM    DATA     BIT       P05
      00000089H   SFRSYM    DATA     BYTE      TMOD
      00000088H   SFRSYM    DATA     BYTE      TCON
      000000C8H   SFRSYM    DATA     BIT       P60
      000000F8H.1 SFRSYM    DATA     BIT       P51
      000000E8H.2 SFRSYM    DATA     BIT       P42
      000000B0H.3 SFRSYM    DATA     BIT       P33
      000000A0H.4 SFRSYM    DATA     BIT       P24
      00000090H.5 SFRSYM    DATA     BIT       P15
      00000080H.6 SFRSYM    DATA     BIT       P06
      000000C8H.1 SFRSYM    DATA     BIT       P61
      000000F8H.2 SFRSYM    DATA     BIT       P52
      000000E8H.3 SFRSYM    DATA     BIT       P43
      000000B0H.4 SFRSYM    DATA     BIT       P34
      000000A0H.5 SFRSYM    DATA     BIT       P25
      00000090H.6 SFRSYM    DATA     BIT       P16
      00000080H.7 SFRSYM    DATA     BIT       P07
      000000F8H.3 SFRSYM    DATA     BIT       P53
      000000E8H.4 SFRSYM    DATA     BIT       P44
      000000B0H.5 SFRSYM    DATA     BIT       P35
      000000A0H.6 SFRSYM    DATA     BIT       P26
      00000090H.7 SFRSYM    DATA     BIT       P17
      000000E8H.5 SFRSYM    DATA     BIT       P45
      000000B0H.6 SFRSYM    DATA     BIT       P36
      000000A0H.7 SFRSYM    DATA     BIT       P27
      000000E8H.6 SFRSYM    DATA     BIT       P46
      000000B0H.7 SFRSYM    DATA     BIT       P37
      000000E8H.7 SFRSYM    DATA     BIT       P47
      000000D7H   SFRSYM    DATA     BYTE      KBMASK
      00000088H.1 SFRSYM    DATA     BIT       IE0
      00000088H.3 SFRSYM    DATA     BIT       IE1
      000000C0H.1 SFRSYM    DATA     BIT       IE2
      000000C0H.5 SFRSYM    DATA     BIT       IE3
      000000A8H.6 SFRSYM    DATA     BIT       GF4
      0000008EH   SFRSYM    DATA     BYTE      AUXR
      000000F0H   SFRSYM    DATA     BYTE      B
      000000D5H   SFRSYM    DATA     BYTE      KBPATN
      000000C8H   SFRSYM    DATA     BIT       CP_RL2
      00000086H   SFRSYM    DATA     BYTE      SPIDAT
      000000E0H   SFRSYM    DATA     BYTE      ACC
      000000A8H.4 SFRSYM    DATA     BIT       ES0
      000000A8H.1 SFRSYM    DATA     BIT       ET0
      00000088H.5 SFRSYM    DATA     BIT       TF0
      000000A8H.3 SFRSYM    DATA     BIT       ET1
      00000088H.7 SFRSYM    DATA     BIT       TF1
      00000098H   SFRSYM    DATA     BIT       RI0
      000000A8H.5 SFRSYM    DATA     BIT       ET2
      000000C8H.7 SFRSYM    DATA     BIT       TF2
      00000098H   SFRSYM    DATA     BIT       RI1
      00000098H.2 SFRSYM    DATA     BIT       RB8
      0000008CH   SFRSYM    DATA     BYTE      TH0
      00000088H   SFRSYM    DATA     BIT       IT0
      00000098H.1 SFRSYM    DATA     BIT       TI0
      000000A8H   SFRSYM    DATA     BIT       EX0
      0000008DH   SFRSYM    DATA     BYTE      TH1
      00000088H.2 SFRSYM    DATA     BIT       IT1
      00000098H.1 SFRSYM    DATA     BIT       TI1
      00000098H.3 SFRSYM    DATA     BIT       TB8
      000000A8H.2 SFRSYM    DATA     BIT       EX1
      00000085H   SFRSYM    DATA     BYTE      SPICON
      000000CDH   SFRSYM    DATA     BYTE      TH2
LX51 LINKER/LOCATER V4.47a                                                            06/06/2015  09:44:34  PAGE 96


      000000C0H   SFRSYM    DATA     BIT       IT2
      000000C0H.2 SFRSYM    DATA     BIT       EX2
      000000D0H   SFRSYM    DATA     BIT       P
      000000C0H.4 SFRSYM    DATA     BIT       IT3
      000000C0H.6 SFRSYM    DATA     BIT       EX3
      00000098H.7 SFRSYM    DATA     BIT       SM0
      0000008AH   SFRSYM    DATA     BYTE      TL0
      000000C8H   SFRSYM    DATA     BIT       XOUT
      00000090H.1 SFRSYM    DATA     BIT       ECI
      00000098H.6 SFRSYM    DATA     BIT       SM1
      00000085H   SFRSYM    DATA     BYTE      SPICTL
      0000008BH   SFRSYM    DATA     BYTE      TL1
      000000AFH   SFRSYM    DATA     BYTE      AUXIPH
      000000E8H.6 SFRSYM    DATA     BIT       ALE
      00000098H.5 SFRSYM    DATA     BIT       SM2
      000000CCH   SFRSYM    DATA     BYTE      TL2
      000000E2H   SFRSYM    DATA     BYTE      IFD
      000000B8H.1 SFRSYM    DATA     BIT       PT0
      000000B8H.3 SFRSYM    DATA     BIT       PT1
      000000D0H.3 SFRSYM    DATA     BIT       RS0
      00000088H.4 SFRSYM    DATA     BIT       TR0
      000000B8H.5 SFRSYM    DATA     BIT       PT2
      000000D0H.4 SFRSYM    DATA     BIT       RS1
      00000088H.6 SFRSYM    DATA     BIT       TR1
      000000C8H.2 SFRSYM    DATA     BIT       TR2
      000000B8H   SFRSYM    DATA     BIT       PX0
      000000AFH   SFRSYM    DATA     BYTE      EIP1H
      000000B8H.2 SFRSYM    DATA     BIT       PX1
      000000C0H.3 SFRSYM    DATA     BIT       PX2
      000000C0H.7 SFRSYM    DATA     BIT       PX3
      000000AEH   SFRSYM    DATA     BYTE      EIP1L
      00000083H   SFRSYM    DATA     BYTE      DPH
      000000C8H   SFRSYM    DATA     BIT       CKO
      00000082H   SFRSYM    DATA     BYTE      DPL
      00000087H   SFRSYM    DATA     BYTE      PCON0
      00000084H   SFRSYM    DATA     BYTE      SPSTAT
      00000099H   SFRSYM    DATA     BYTE      SBUF0
      000000B7H   SFRSYM    DATA     BYTE      IPH
      000000B0H.4 SFRSYM    DATA     BIT       T0CKO
      00000097H   SFRSYM    DATA     BYTE      PCON1
      00000099H   SFRSYM    DATA     BYTE      SBUF1
      000000B0H.5 SFRSYM    DATA     BIT       T1CKO
      000000C8H.3 SFRSYM    DATA     BIT       EXEN2
      000000C7H   SFRSYM    DATA     BYTE      PCON2
      0000009AH   SFRSYM    DATA     BYTE      S2BUF
      00000098H   SFRSYM    DATA     BYTE      SCON0
      00000098H.4 SFRSYM    DATA     BIT       REN
      00000098H   SFRSYM    DATA     BYTE      SCON1
      000000C5H   SFRSYM    DATA     BYTE      ADCON
      000000C9H   SFRSYM    DATA     BYTE      T2MOD
      000000C8H   SFRSYM    DATA     BYTE      T2CON
      000000C5H   SFRSYM    DATA     BYTE      ADCTL
      000000BEH   SFRSYM    DATA     BYTE      ADCVL
      000000B9H   SFRSYM    DATA     BYTE      SADEN
      0000009AH   SFRSYM    DATA     BYTE      S1BRT
      000000B0H   SFRSYM    DATA     BIT       RXD
      000000D6H   SFRSYM    DATA     BYTE      KBCON
      000000C8H.1 SFRSYM    DATA     BIT       XIN
      000000B8H.4 SFRSYM    DATA     BIT       PSL
      000000A9H   SFRSYM    DATA     BYTE      SADDR
      000000B0H.1 SFRSYM    DATA     BIT       TXD
      0000008EH   SFRSYM    DATA     BYTE      AUXR0
      000000A2H   SFRSYM    DATA     BYTE      AUXR1
      00000090H.4 SFRSYM    DATA     BIT       SPI_SS
      000000A6H   SFRSYM    DATA     BYTE      AUXR2
LX51 LINKER/LOCATER V4.47a                                                            06/06/2015  09:44:34  PAGE 97


      00000090H.2 SFRSYM    DATA     BIT       S2RXD
      000000D0H.5 SFRSYM    DATA     BIT       F0
      00000090H.3 SFRSYM    DATA     BIT       S2TXD
      000000D0H.1 SFRSYM    DATA     BIT       F1
      000000F2H   SFRSYM    DATA     BYTE      PCAPWM0
      000000D0H   SFRSYM    DATA     BYTE      PSW
      000000F3H   SFRSYM    DATA     BYTE      PCAPWM1
      000000D8H   SFRSYM    DATA     BIT       CCF0
      00000098H.2 SFRSYM    DATA     BIT       RB80
      000000F4H   SFRSYM    DATA     BYTE      PCAPWM2
      000000D8H.1 SFRSYM    DATA     BIT       CCF1
      00000098H.2 SFRSYM    DATA     BIT       RB81
      000000F5H   SFRSYM    DATA     BYTE      PCAPWM3
      00000086H   SFRSYM    DATA     BYTE      SPDAT
      00000093H   SFRSYM    DATA     BYTE      P0M0
      000000ADH   SFRSYM    DATA     BYTE      AUXIE

      01001425H   BLOCK     CODE     ---       LVL=0
      0000006CH   SYMBOL    DATA     WORD      Code_Value
      01001429H   BLOCK     CODE     NEAR LAB  LVL=1
      0000006EH   SYMBOL    DATA     WORD      out_Value
      ---         BLOCKEND  ---      ---       LVL=1
      01001425H   LINE      CODE     ---       #50
      01001429H   LINE      CODE     ---       #51
      01001429H   LINE      CODE     ---       #54
      0100142CH   LINE      CODE     ---       #55
      01001435H   LINE      CODE     ---       #56
      01001435H   LINE      CODE     ---       #57
      01001440H   LINE      CODE     ---       #58
      01001440H   LINE      CODE     ---       #59
      01001457H   LINE      CODE     ---       #60
      0100145AH   LINE      CODE     ---       #61
      0100145DH   LINE      CODE     ---       #62
      0100145FH   LINE      CODE     ---       #64
      0100145FH   LINE      CODE     ---       #65
      01001479H   LINE      CODE     ---       #66
      0100147CH   LINE      CODE     ---       #67
      0100147CH   LINE      CODE     ---       #68
      0100148BH   LINE      CODE     ---       #69
      0100148BH   LINE      CODE     ---       #70
      010014A9H   LINE      CODE     ---       #71
      010014A9H   LINE      CODE     ---       #72
      010014BEH   LINE      CODE     ---       #73
      010014BEH   LINE      CODE     ---       #74
      010014DCH   LINE      CODE     ---       #75
      010014DCH   LINE      CODE     ---       #76
      010014DFH   LINE      CODE     ---       #78
      010014DFH   LINE      CODE     ---       #79
      01001503H   LINE      CODE     ---       #81
      0100150EH   LINE      CODE     ---       #82
      0100150EH   LINE      CODE     ---       #83
      0100152DH   LINE      CODE     ---       #84
      0100152DH   LINE      CODE     ---       #85
      01001538H   LINE      CODE     ---       #86
      01001538H   LINE      CODE     ---       #87
      01001557H   LINE      CODE     ---       #88
      01001557H   LINE      CODE     ---       #89
      01001562H   LINE      CODE     ---       #90
      01001562H   LINE      CODE     ---       #91
      01001580H   LINE      CODE     ---       #92
      01001580H   LINE      CODE     ---       #93
      0100158BH   LINE      CODE     ---       #94
      0100158BH   LINE      CODE     ---       #95
      010015AAH   LINE      CODE     ---       #96
      010015AAH   LINE      CODE     ---       #97
LX51 LINKER/LOCATER V4.47a                                                            06/06/2015  09:44:34  PAGE 98


      010015B5H   LINE      CODE     ---       #98
      010015B5H   LINE      CODE     ---       #99
      010015D3H   LINE      CODE     ---       #100
      010015D3H   LINE      CODE     ---       #101
      010015DEH   LINE      CODE     ---       #102
      010015DEH   LINE      CODE     ---       #103
      010015FCH   LINE      CODE     ---       #104
      010015FCH   LINE      CODE     ---       #105
      01001607H   LINE      CODE     ---       #106
      01001607H   LINE      CODE     ---       #107
      01001626H   LINE      CODE     ---       #108
      01001626H   LINE      CODE     ---       #109
      01001631H   LINE      CODE     ---       #110
      01001631H   LINE      CODE     ---       #111
      01001650H   LINE      CODE     ---       #112
      01001650H   LINE      CODE     ---       #113
      0100165BH   LINE      CODE     ---       #114
      0100165BH   LINE      CODE     ---       #115
      0100167AH   LINE      CODE     ---       #116
      0100167AH   LINE      CODE     ---       #117
      01001685H   LINE      CODE     ---       #118
      01001685H   LINE      CODE     ---       #119
      010016A4H   LINE      CODE     ---       #120
      010016A4H   LINE      CODE     ---       #122
      010016AFH   LINE      CODE     ---       #123
      010016AFH   LINE      CODE     ---       #124
      010016CEH   LINE      CODE     ---       #125
      010016CEH   LINE      CODE     ---       #126
      010016D9H   LINE      CODE     ---       #127
      010016D9H   LINE      CODE     ---       #128
      010016F7H   LINE      CODE     ---       #129
      010016F7H   LINE      CODE     ---       #130
      01001702H   LINE      CODE     ---       #131
      01001702H   LINE      CODE     ---       #132
      01001721H   LINE      CODE     ---       #133
      01001721H   LINE      CODE     ---       #134
      0100172CH   LINE      CODE     ---       #135
      0100172CH   LINE      CODE     ---       #136
      0100174BH   LINE      CODE     ---       #137
      0100174BH   LINE      CODE     ---       #138
      01001756H   LINE      CODE     ---       #139
      01001756H   LINE      CODE     ---       #140
      01001774H   LINE      CODE     ---       #141
      01001774H   LINE      CODE     ---       #142
      0100177FH   LINE      CODE     ---       #143
      0100177FH   LINE      CODE     ---       #144
      0100179EH   LINE      CODE     ---       #145
      0100179EH   LINE      CODE     ---       #146
      010017A9H   LINE      CODE     ---       #147
      010017A9H   LINE      CODE     ---       #148
      010017C7H   LINE      CODE     ---       #149
      010017C7H   LINE      CODE     ---       #150
      010017D2H   LINE      CODE     ---       #151
      010017D2H   LINE      CODE     ---       #152
      010017F0H   LINE      CODE     ---       #153
      010017F0H   LINE      CODE     ---       #154
      010017FBH   LINE      CODE     ---       #155
      010017FBH   LINE      CODE     ---       #156
      0100181AH   LINE      CODE     ---       #157
      0100181AH   LINE      CODE     ---       #158
      01001825H   LINE      CODE     ---       #159
      01001825H   LINE      CODE     ---       #160
      01001843H   LINE      CODE     ---       #161
      01001843H   LINE      CODE     ---       #162
      01001856H   LINE      CODE     ---       #163
LX51 LINKER/LOCATER V4.47a                                                            06/06/2015  09:44:34  PAGE 99


      01001856H   LINE      CODE     ---       #164
      01001881H   LINE      CODE     ---       #165
      01001881H   LINE      CODE     ---       #166
      01001894H   LINE      CODE     ---       #167
      01001894H   LINE      CODE     ---       #168
      010018BFH   LINE      CODE     ---       #169
      010018BFH   LINE      CODE     ---       #170
      010018D2H   LINE      CODE     ---       #171
      010018D2H   LINE      CODE     ---       #172
      010018FDH   LINE      CODE     ---       #173
      010018FDH   LINE      CODE     ---       #174
      01001910H   LINE      CODE     ---       #175
      01001910H   LINE      CODE     ---       #176
      0100193BH   LINE      CODE     ---       #177
      0100193BH   LINE      CODE     ---       #178
      0100194EH   LINE      CODE     ---       #179
      0100194EH   LINE      CODE     ---       #180
      01001979H   LINE      CODE     ---       #181
      01001979H   LINE      CODE     ---       #182
      0100198CH   LINE      CODE     ---       #183
      0100198CH   LINE      CODE     ---       #184
      010019B7H   LINE      CODE     ---       #185
      010019B7H   LINE      CODE     ---       #186
      010019CAH   LINE      CODE     ---       #187
      010019CAH   LINE      CODE     ---       #188
      010019F5H   LINE      CODE     ---       #189
      010019F5H   LINE      CODE     ---       #190
      01001A08H   LINE      CODE     ---       #191
      01001A08H   LINE      CODE     ---       #192
      01001A32H   LINE      CODE     ---       #193
      01001A32H   LINE      CODE     ---       #194
      01001A45H   LINE      CODE     ---       #195
      01001A45H   LINE      CODE     ---       #196
      01001A70H   LINE      CODE     ---       #197
      01001A70H   LINE      CODE     ---       #198
      01001A83H   LINE      CODE     ---       #199
      01001A83H   LINE      CODE     ---       #200
      01001AAEH   LINE      CODE     ---       #201
      01001AAEH   LINE      CODE     ---       #202
      01001AC1H   LINE      CODE     ---       #203
      01001AC1H   LINE      CODE     ---       #204
      01001AECH   LINE      CODE     ---       #205
      01001AECH   LINE      CODE     ---       #206
      01001AFFH   LINE      CODE     ---       #207
      01001AFFH   LINE      CODE     ---       #208
      01001B2AH   LINE      CODE     ---       #209
      01001B2AH   LINE      CODE     ---       #210
      01001B3DH   LINE      CODE     ---       #211
      01001B3DH   LINE      CODE     ---       #212
      01001B68H   LINE      CODE     ---       #213
      01001B68H   LINE      CODE     ---       #214
      01001B7BH   LINE      CODE     ---       #215
      01001B7BH   LINE      CODE     ---       #216
      01001BA6H   LINE      CODE     ---       #217
      01001BA6H   LINE      CODE     ---       #218
      01001BB9H   LINE      CODE     ---       #219
      01001BB9H   LINE      CODE     ---       #220
      01001BE4H   LINE      CODE     ---       #221
      01001BE4H   LINE      CODE     ---       #222
      01001BF7H   LINE      CODE     ---       #223
      01001BF7H   LINE      CODE     ---       #224
      01001BFDH   LINE      CODE     ---       #225
      01001BFDH   LINE      CODE     ---       #226
      01001BFDH   LINE      CODE     ---       #228
      01001C01H   LINE      CODE     ---       #229
LX51 LINKER/LOCATER V4.47a                                                            06/06/2015  09:44:34  PAGE 100


      ---         BLOCKEND  ---      ---       LVL=0

      01003484H   BLOCK     CODE     ---       LVL=0
      0000006CH   SYMBOL    DATA     WORD      Code_Value
      01003488H   BLOCK     CODE     NEAR LAB  LVL=1
      0000006EH   SYMBOL    DATA     WORD      out_Value
      ---         BLOCKEND  ---      ---       LVL=1
      01003484H   LINE      CODE     ---       #233
      01003488H   LINE      CODE     ---       #234
      01003488H   LINE      CODE     ---       #237
      0100348BH   LINE      CODE     ---       #238
      01003491H   LINE      CODE     ---       #239
      01003491H   LINE      CODE     ---       #240
      010034A0H   LINE      CODE     ---       #241
      010034A0H   LINE      CODE     ---       #242
      010034C8H   LINE      CODE     ---       #243
      010034CBH   LINE      CODE     ---       #244
      010034CEH   LINE      CODE     ---       #245
      010034D1H   LINE      CODE     ---       #247
      010034D1H   LINE      CODE     ---       #248
      010034F1H   LINE      CODE     ---       #249
      010034F4H   LINE      CODE     ---       #251
      010034F4H   LINE      CODE     ---       #252
      010034F7H   LINE      CODE     ---       #254
      010034F7H   LINE      CODE     ---       #255
      0100351BH   LINE      CODE     ---       #257
      01003526H   LINE      CODE     ---       #258
      01003526H   LINE      CODE     ---       #259
      01003545H   LINE      CODE     ---       #260
      01003545H   LINE      CODE     ---       #261
      01003550H   LINE      CODE     ---       #262
      01003550H   LINE      CODE     ---       #263
      0100356FH   LINE      CODE     ---       #264
      0100356FH   LINE      CODE     ---       #265
      0100357AH   LINE      CODE     ---       #266
      0100357AH   LINE      CODE     ---       #267
      01003599H   LINE      CODE     ---       #268
      01003599H   LINE      CODE     ---       #269
      010035A4H   LINE      CODE     ---       #270
      010035A4H   LINE      CODE     ---       #271
      010035C2H   LINE      CODE     ---       #272
      010035C2H   LINE      CODE     ---       #273
      010035CDH   LINE      CODE     ---       #274
      010035CDH   LINE      CODE     ---       #275
      010035ECH   LINE      CODE     ---       #276
      010035ECH   LINE      CODE     ---       #277
      010035F7H   LINE      CODE     ---       #278
      010035F7H   LINE      CODE     ---       #279
      01003615H   LINE      CODE     ---       #280
      01003615H   LINE      CODE     ---       #281
      01003620H   LINE      CODE     ---       #282
      01003620H   LINE      CODE     ---       #283
      0100363FH   LINE      CODE     ---       #284
      0100363FH   LINE      CODE     ---       #285
      0100364AH   LINE      CODE     ---       #286
      0100364AH   LINE      CODE     ---       #287
      01003668H   LINE      CODE     ---       #288
      01003668H   LINE      CODE     ---       #289
      01003673H   LINE      CODE     ---       #290
      01003673H   LINE      CODE     ---       #291
      01003692H   LINE      CODE     ---       #292
      01003692H   LINE      CODE     ---       #293
      0100369DH   LINE      CODE     ---       #294
      0100369DH   LINE      CODE     ---       #295
      010036BBH   LINE      CODE     ---       #296
LX51 LINKER/LOCATER V4.47a                                                            06/06/2015  09:44:34  PAGE 101


      010036BBH   LINE      CODE     ---       #297
      010036C6H   LINE      CODE     ---       #298
      010036C6H   LINE      CODE     ---       #299
      010036E5H   LINE      CODE     ---       #300
      010036E5H   LINE      CODE     ---       #301
      010036F0H   LINE      CODE     ---       #302
      010036F0H   LINE      CODE     ---       #303
      0100370EH   LINE      CODE     ---       #304
      0100370EH   LINE      CODE     ---       #305
      01003719H   LINE      CODE     ---       #306
      01003719H   LINE      CODE     ---       #307
      01003738H   LINE      CODE     ---       #308
      01003738H   LINE      CODE     ---       #309
      01003743H   LINE      CODE     ---       #310
      01003743H   LINE      CODE     ---       #311
      01003761H   LINE      CODE     ---       #312
      01003761H   LINE      CODE     ---       #313
      0100376CH   LINE      CODE     ---       #314
      0100376CH   LINE      CODE     ---       #315
      0100378BH   LINE      CODE     ---       #316
      0100378BH   LINE      CODE     ---       #317
      01003796H   LINE      CODE     ---       #318
      01003796H   LINE      CODE     ---       #319
      010037B5H   LINE      CODE     ---       #320
      010037B5H   LINE      CODE     ---       #321
      010037C0H   LINE      CODE     ---       #322
      010037C0H   LINE      CODE     ---       #323
      010037DFH   LINE      CODE     ---       #324
      010037DFH   LINE      CODE     ---       #325
      010037F2H   LINE      CODE     ---       #326
      010037F2H   LINE      CODE     ---       #327
      0100381EH   LINE      CODE     ---       #328
      0100381EH   LINE      CODE     ---       #329
      01003831H   LINE      CODE     ---       #330
      01003831H   LINE      CODE     ---       #331
      0100385DH   LINE      CODE     ---       #332
      0100385DH   LINE      CODE     ---       #333
      01003870H   LINE      CODE     ---       #334
      01003870H   LINE      CODE     ---       #335
      0100389CH   LINE      CODE     ---       #336
      0100389CH   LINE      CODE     ---       #337
      010038AFH   LINE      CODE     ---       #338
      010038AFH   LINE      CODE     ---       #339
      010038DBH   LINE      CODE     ---       #340
      010038DBH   LINE      CODE     ---       #341
      010038EEH   LINE      CODE     ---       #342
      010038EEH   LINE      CODE     ---       #343
      0100391AH   LINE      CODE     ---       #344
      0100391AH   LINE      CODE     ---       #345
      0100391AH   LINE      CODE     ---       #347
      0100391EH   LINE      CODE     ---       #349
      ---         BLOCKEND  ---      ---       LVL=0

      01002A77H   BLOCK     CODE     ---       LVL=0
      0000006CH   SYMBOL    DATA     WORD      Code_Value
      01002A7BH   BLOCK     CODE     NEAR LAB  LVL=1
      0000006EH   SYMBOL    DATA     WORD      outlo_Value
      00000070H   SYMBOL    DATA     WORD      out_Value
      ---         BLOCKEND  ---      ---       LVL=1
      01002A77H   LINE      CODE     ---       #353
      01002A7BH   LINE      CODE     ---       #354
      01002A7BH   LINE      CODE     ---       #358
      01002A81H   LINE      CODE     ---       #359
      01002A84H   LINE      CODE     ---       #361
      01002A8DH   LINE      CODE     ---       #362
LX51 LINKER/LOCATER V4.47a                                                            06/06/2015  09:44:34  PAGE 102


      01002A8DH   LINE      CODE     ---       #363
      01002A9CH   LINE      CODE     ---       #364
      01002A9CH   LINE      CODE     ---       #365
      01002AC4H   LINE      CODE     ---       #366
      01002AC7H   LINE      CODE     ---       #367
      01002ACAH   LINE      CODE     ---       #368
      01002ACCH   LINE      CODE     ---       #370
      01002ACCH   LINE      CODE     ---       #371
      01002AECH   LINE      CODE     ---       #372
      01002AEFH   LINE      CODE     ---       #373
      01002AF2H   LINE      CODE     ---       #374
      01002AF2H   LINE      CODE     ---       #376
      01002B01H   LINE      CODE     ---       #377
      01002B01H   LINE      CODE     ---       #378
      01002B1FH   LINE      CODE     ---       #379
      01002B1FH   LINE      CODE     ---       #380
      01002B2EH   LINE      CODE     ---       #381
      01002B2EH   LINE      CODE     ---       #382
      01002B4CH   LINE      CODE     ---       #383
      01002B4CH   LINE      CODE     ---       #384
      01002B5BH   LINE      CODE     ---       #385
      01002B5BH   LINE      CODE     ---       #386
      01002B79H   LINE      CODE     ---       #387
      01002B79H   LINE      CODE     ---       #388
      01002B88H   LINE      CODE     ---       #389
      01002B88H   LINE      CODE     ---       #390
      01002BA6H   LINE      CODE     ---       #391
      01002BA6H   LINE      CODE     ---       #392
      01002BB5H   LINE      CODE     ---       #393
      01002BB5H   LINE      CODE     ---       #394
      01002BD3H   LINE      CODE     ---       #395
      01002BD3H   LINE      CODE     ---       #396
      01002BE2H   LINE      CODE     ---       #397
      01002BE2H   LINE      CODE     ---       #398
      01002C00H   LINE      CODE     ---       #399
      01002C00H   LINE      CODE     ---       #400
      01002C0FH   LINE      CODE     ---       #401
      01002C0FH   LINE      CODE     ---       #402
      01002C2DH   LINE      CODE     ---       #403
      01002C2DH   LINE      CODE     ---       #404
      01002C3CH   LINE      CODE     ---       #405
      01002C3CH   LINE      CODE     ---       #406
      01002C5AH   LINE      CODE     ---       #407
      01002C5AH   LINE      CODE     ---       #408
      01002C69H   LINE      CODE     ---       #409
      01002C69H   LINE      CODE     ---       #410
      01002C87H   LINE      CODE     ---       #411
      01002C87H   LINE      CODE     ---       #412
      01002C96H   LINE      CODE     ---       #413
      01002C96H   LINE      CODE     ---       #414
      01002CB4H   LINE      CODE     ---       #415
      01002CB4H   LINE      CODE     ---       #416
      01002CC3H   LINE      CODE     ---       #417
      01002CC3H   LINE      CODE     ---       #418
      01002CE1H   LINE      CODE     ---       #419
      01002CE1H   LINE      CODE     ---       #420
      01002CF0H   LINE      CODE     ---       #421
      01002CF0H   LINE      CODE     ---       #422
      01002D0EH   LINE      CODE     ---       #423
      01002D0EH   LINE      CODE     ---       #424
      01002D1DH   LINE      CODE     ---       #425
      01002D1DH   LINE      CODE     ---       #426
      01002D3BH   LINE      CODE     ---       #427
      01002D3BH   LINE      CODE     ---       #428
      01002D4AH   LINE      CODE     ---       #429
LX51 LINKER/LOCATER V4.47a                                                            06/06/2015  09:44:34  PAGE 103


      01002D4AH   LINE      CODE     ---       #430
      01002D68H   LINE      CODE     ---       #431
      01002D68H   LINE      CODE     ---       #432
      01002D77H   LINE      CODE     ---       #433
      01002D77H   LINE      CODE     ---       #434
      01002D95H   LINE      CODE     ---       #435
      01002D95H   LINE      CODE     ---       #436
      01002DA4H   LINE      CODE     ---       #437
      01002DA4H   LINE      CODE     ---       #438
      01002DC2H   LINE      CODE     ---       #439
      01002DC2H   LINE      CODE     ---       #440
      01002DD1H   LINE      CODE     ---       #441
      01002DD1H   LINE      CODE     ---       #442
      01002DEFH   LINE      CODE     ---       #443
      01002DEFH   LINE      CODE     ---       #444
      01002E03H   LINE      CODE     ---       #445
      01002E06H   LINE      CODE     ---       #447
      01002E06H   LINE      CODE     ---       #448
      01002E0CH   LINE      CODE     ---       #450
      01002E30H   LINE      CODE     ---       #452
      01002E3BH   LINE      CODE     ---       #453
      01002E3BH   LINE      CODE     ---       #454
      01002E5AH   LINE      CODE     ---       #455
      01002E5AH   LINE      CODE     ---       #456
      01002E65H   LINE      CODE     ---       #457
      01002E65H   LINE      CODE     ---       #458
      01002E84H   LINE      CODE     ---       #459
      01002E84H   LINE      CODE     ---       #460
      01002E8FH   LINE      CODE     ---       #461
      01002E8FH   LINE      CODE     ---       #462
      01002EAEH   LINE      CODE     ---       #463
      01002EAEH   LINE      CODE     ---       #464
      01002EB9H   LINE      CODE     ---       #465
      01002EB9H   LINE      CODE     ---       #466
      01002ED8H   LINE      CODE     ---       #467
      01002ED8H   LINE      CODE     ---       #468
      01002EE3H   LINE      CODE     ---       #469
      01002EE3H   LINE      CODE     ---       #470
      01002F02H   LINE      CODE     ---       #471
      01002F02H   LINE      CODE     ---       #472
      01002F0DH   LINE      CODE     ---       #473
      01002F0DH   LINE      CODE     ---       #474
      01002F29H   LINE      CODE     ---       #475
      01002F29H   LINE      CODE     ---       #476
      01002F34H   LINE      CODE     ---       #477
      01002F34H   LINE      CODE     ---       #478
      01002F53H   LINE      CODE     ---       #479
      01002F53H   LINE      CODE     ---       #480
      01002F5EH   LINE      CODE     ---       #481
      01002F5EH   LINE      CODE     ---       #482
      01002F7DH   LINE      CODE     ---       #483
      01002F7DH   LINE      CODE     ---       #484
      01002F88H   LINE      CODE     ---       #485
      01002F88H   LINE      CODE     ---       #486
      01002FA7H   LINE      CODE     ---       #487
      01002FA7H   LINE      CODE     ---       #488
      01002FB2H   LINE      CODE     ---       #489
      01002FB2H   LINE      CODE     ---       #490
      01002FD1H   LINE      CODE     ---       #491
      01002FD1H   LINE      CODE     ---       #492
      01002FE2H   LINE      CODE     ---       #493
      01002FE2H   LINE      CODE     ---       #494
      01002FE6H   LINE      CODE     ---       #495
      ---         BLOCKEND  ---      ---       LVL=0

LX51 LINKER/LOCATER V4.47a                                                            06/06/2015  09:44:34  PAGE 104


      01000BC3H   BLOCK     CODE     ---       LVL=0
      0000006CH   SYMBOL    DATA     WORD      Code_Value
      01000BC7H   BLOCK     CODE     NEAR LAB  LVL=1
      0000006EH   SYMBOL    DATA     WORD      out_Value
      ---         BLOCKEND  ---      ---       LVL=1
      01000BC3H   LINE      CODE     ---       #499
      01000BC7H   LINE      CODE     ---       #500
      01000BC7H   LINE      CODE     ---       #503
      01000BCDH   LINE      CODE     ---       #504
      01000BD0H   LINE      CODE     ---       #505
      01000BD6H   LINE      CODE     ---       #506
      01000BD6H   LINE      CODE     ---       #507
      01000BE5H   LINE      CODE     ---       #508
      01000BE5H   LINE      CODE     ---       #509
      01000C0DH   LINE      CODE     ---       #510
      01000C10H   LINE      CODE     ---       #511
      01000C13H   LINE      CODE     ---       #512
      01000C16H   LINE      CODE     ---       #514
      01000C16H   LINE      CODE     ---       #515
      01000C36H   LINE      CODE     ---       #516
      01000C39H   LINE      CODE     ---       #517
      01000C39H   LINE      CODE     ---       #518
      01000C3CH   LINE      CODE     ---       #520
      01000C3CH   LINE      CODE     ---       #521
      01000C60H   LINE      CODE     ---       #523
      01000C6BH   LINE      CODE     ---       #524
      01000C6BH   LINE      CODE     ---       #525
      01000C8AH   LINE      CODE     ---       #526
      01000C8AH   LINE      CODE     ---       #527
      01000C95H   LINE      CODE     ---       #528
      01000C95H   LINE      CODE     ---       #529
      01000CB4H   LINE      CODE     ---       #530
      01000CB4H   LINE      CODE     ---       #531
      01000CBFH   LINE      CODE     ---       #532
      01000CBFH   LINE      CODE     ---       #533
      01000CDEH   LINE      CODE     ---       #534
      01000CDEH   LINE      CODE     ---       #535
      01000CE9H   LINE      CODE     ---       #536
      01000CE9H   LINE      CODE     ---       #537
      01000D08H   LINE      CODE     ---       #538
      01000D08H   LINE      CODE     ---       #539
      01000D13H   LINE      CODE     ---       #540
      01000D13H   LINE      CODE     ---       #541
      01000D32H   LINE      CODE     ---       #542
      01000D32H   LINE      CODE     ---       #543
      01000D3DH   LINE      CODE     ---       #544
      01000D3DH   LINE      CODE     ---       #545
      01000D5CH   LINE      CODE     ---       #546
      01000D5CH   LINE      CODE     ---       #547
      01000D67H   LINE      CODE     ---       #548
      01000D67H   LINE      CODE     ---       #549
      01000D86H   LINE      CODE     ---       #550
      01000D86H   LINE      CODE     ---       #551
      01000D91H   LINE      CODE     ---       #552
      01000D91H   LINE      CODE     ---       #553
      01000DB0H   LINE      CODE     ---       #554
      01000DB0H   LINE      CODE     ---       #555
      01000DBBH   LINE      CODE     ---       #556
      01000DBBH   LINE      CODE     ---       #557
      01000DD9H   LINE      CODE     ---       #558
      01000DD9H   LINE      CODE     ---       #559
      01000DE4H   LINE      CODE     ---       #560
      01000DE4H   LINE      CODE     ---       #561
      01000E03H   LINE      CODE     ---       #562
      01000E03H   LINE      CODE     ---       #563
LX51 LINKER/LOCATER V4.47a                                                            06/06/2015  09:44:34  PAGE 105


      01000E0EH   LINE      CODE     ---       #564
      01000E0EH   LINE      CODE     ---       #565
      01000E2CH   LINE      CODE     ---       #566
      01000E2CH   LINE      CODE     ---       #567
      01000E37H   LINE      CODE     ---       #568
      01000E37H   LINE      CODE     ---       #569
      01000E56H   LINE      CODE     ---       #570
      01000E56H   LINE      CODE     ---       #571
      01000E61H   LINE      CODE     ---       #572
      01000E61H   LINE      CODE     ---       #573
      01000E80H   LINE      CODE     ---       #574
      01000E80H   LINE      CODE     ---       #575
      01000E8BH   LINE      CODE     ---       #576
      01000E8BH   LINE      CODE     ---       #577
      01000EA9H   LINE      CODE     ---       #578
      01000EA9H   LINE      CODE     ---       #579
      01000EB4H   LINE      CODE     ---       #580
      01000EB4H   LINE      CODE     ---       #581
      01000ED3H   LINE      CODE     ---       #582
      01000ED3H   LINE      CODE     ---       #583
      01000EDEH   LINE      CODE     ---       #584
      01000EDEH   LINE      CODE     ---       #585
      01000EFCH   LINE      CODE     ---       #586
      01000EFCH   LINE      CODE     ---       #587
      01000F07H   LINE      CODE     ---       #588
      01000F07H   LINE      CODE     ---       #589
      01000F26H   LINE      CODE     ---       #590
      01000F26H   LINE      CODE     ---       #591
      01000F39H   LINE      CODE     ---       #592
      01000F39H   LINE      CODE     ---       #593
      01000F64H   LINE      CODE     ---       #594
      01000F64H   LINE      CODE     ---       #595
      01000F77H   LINE      CODE     ---       #596
      01000F77H   LINE      CODE     ---       #597
      01000FA3H   LINE      CODE     ---       #598
      01000FA3H   LINE      CODE     ---       #599
      01000FB6H   LINE      CODE     ---       #600
      01000FB6H   LINE      CODE     ---       #601
      01000FE1H   LINE      CODE     ---       #602
      01000FE1H   LINE      CODE     ---       #603
      01000FF4H   LINE      CODE     ---       #604
      01000FF4H   LINE      CODE     ---       #605
      01001020H   LINE      CODE     ---       #606
      01001020H   LINE      CODE     ---       #607
      01001033H   LINE      CODE     ---       #608
      01001033H   LINE      CODE     ---       #609
      0100105EH   LINE      CODE     ---       #610
      0100105EH   LINE      CODE     ---       #611
      01001071H   LINE      CODE     ---       #612
      01001071H   LINE      CODE     ---       #613
      0100109DH   LINE      CODE     ---       #614
      0100109DH   LINE      CODE     ---       #615
      010010B0H   LINE      CODE     ---       #616
      010010B0H   LINE      CODE     ---       #617
      010010DBH   LINE      CODE     ---       #618
      010010DBH   LINE      CODE     ---       #619
      010010EEH   LINE      CODE     ---       #620
      010010EEH   LINE      CODE     ---       #621
      0100111AH   LINE      CODE     ---       #622
      0100111AH   LINE      CODE     ---       #623
      0100112DH   LINE      CODE     ---       #624
      0100112DH   LINE      CODE     ---       #625
      01001158H   LINE      CODE     ---       #626
      01001158H   LINE      CODE     ---       #627
      0100116BH   LINE      CODE     ---       #628
LX51 LINKER/LOCATER V4.47a                                                            06/06/2015  09:44:34  PAGE 106


      0100116BH   LINE      CODE     ---       #629
      01001197H   LINE      CODE     ---       #630
      01001197H   LINE      CODE     ---       #631
      010011AAH   LINE      CODE     ---       #632
      010011AAH   LINE      CODE     ---       #633
      010011D5H   LINE      CODE     ---       #634
      010011D5H   LINE      CODE     ---       #635
      010011E8H   LINE      CODE     ---       #636
      010011E8H   LINE      CODE     ---       #637
      01001214H   LINE      CODE     ---       #638
      01001214H   LINE      CODE     ---       #639
      01001227H   LINE      CODE     ---       #640
      01001227H   LINE      CODE     ---       #641
      01001252H   LINE      CODE     ---       #642
      01001252H   LINE      CODE     ---       #643
      01001265H   LINE      CODE     ---       #644
      01001265H   LINE      CODE     ---       #645
      01001291H   LINE      CODE     ---       #646
      01001291H   LINE      CODE     ---       #647
      010012A4H   LINE      CODE     ---       #648
      010012A4H   LINE      CODE     ---       #649
      010012CFH   LINE      CODE     ---       #650
      010012CFH   LINE      CODE     ---       #651
      010012E2H   LINE      CODE     ---       #652
      010012E2H   LINE      CODE     ---       #653
      0100130DH   LINE      CODE     ---       #654
      0100130DH   LINE      CODE     ---       #655
      01001320H   LINE      CODE     ---       #656
      01001320H   LINE      CODE     ---       #657
      0100134CH   LINE      CODE     ---       #658
      0100134CH   LINE      CODE     ---       #659
      0100135FH   LINE      CODE     ---       #660
      0100135FH   LINE      CODE     ---       #661
      0100138AH   LINE      CODE     ---       #662
      0100138AH   LINE      CODE     ---       #663
      0100139DH   LINE      CODE     ---       #664
      0100139DH   LINE      CODE     ---       #665
      010013C9H   LINE      CODE     ---       #666
      010013C9H   LINE      CODE     ---       #667
      010013DCH   LINE      CODE     ---       #668
      010013DCH   LINE      CODE     ---       #669
      01001407H   LINE      CODE     ---       #670
      01001407H   LINE      CODE     ---       #672
      0100141BH   LINE      CODE     ---       #673
      0100141BH   LINE      CODE     ---       #674
      01001420H   LINE      CODE     ---       #675
      01001420H   LINE      CODE     ---       #676
      01001420H   LINE      CODE     ---       #677
      01001424H   LINE      CODE     ---       #679
      ---         BLOCKEND  ---      ---       LVL=0

      010043CFH   BLOCK     CODE     ---       LVL=0
      0000006CH   SYMBOL    DATA     WORD      Code_Value
      010043D3H   BLOCK     CODE     NEAR LAB  LVL=1
      0000006EH   SYMBOL    DATA     WORD      out_Value
      00000002H   SYMBOL    DATA     WORD      B_code
      ---         BLOCKEND  ---      ---       LVL=1
      010043CFH   LINE      CODE     ---       #683
      010043D3H   LINE      CODE     ---       #684
      010043D3H   LINE      CODE     ---       #687
      010043D9H   LINE      CODE     ---       #688
      010043D9H   LINE      CODE     ---       #689
      010043E4H   LINE      CODE     ---       #690
      010043E4H   LINE      CODE     ---       #691
      0100440FH   LINE      CODE     ---       #692
LX51 LINKER/LOCATER V4.47a                                                            06/06/2015  09:44:34  PAGE 107


      01004412H   LINE      CODE     ---       #693
      01004415H   LINE      CODE     ---       #694
      01004418H   LINE      CODE     ---       #696
      01004418H   LINE      CODE     ---       #697
      0100441BH   LINE      CODE     ---       #698
      0100441FH   LINE      CODE     ---       #699
      0100441FH   LINE      CODE     ---       #700
      01004422H   LINE      CODE     ---       #702
      01004422H   LINE      CODE     ---       #703
      01004445H   LINE      CODE     ---       #704
      01004449H   LINE      CODE     ---       #706
      01004452H   LINE      CODE     ---       #707
      01004452H   LINE      CODE     ---       #708
      0100446FH   LINE      CODE     ---       #709
      0100446FH   LINE      CODE     ---       #710
      01004478H   LINE      CODE     ---       #711
      01004478H   LINE      CODE     ---       #712
      01004495H   LINE      CODE     ---       #713
      01004495H   LINE      CODE     ---       #714
      0100449EH   LINE      CODE     ---       #715
      0100449EH   LINE      CODE     ---       #716
      010044BBH   LINE      CODE     ---       #717
      010044BBH   LINE      CODE     ---       #718
      010044C4H   LINE      CODE     ---       #719
      010044C4H   LINE      CODE     ---       #720
      010044E1H   LINE      CODE     ---       #721
      010044E1H   LINE      CODE     ---       #722
      010044EAH   LINE      CODE     ---       #723
      010044EAH   LINE      CODE     ---       #724
      01004507H   LINE      CODE     ---       #725
      01004507H   LINE      CODE     ---       #726
      01004510H   LINE      CODE     ---       #727
      01004510H   LINE      CODE     ---       #728
      0100452DH   LINE      CODE     ---       #729
      0100452DH   LINE      CODE     ---       #730
      01004533H   LINE      CODE     ---       #731
      01004533H   LINE      CODE     ---       #732
      01004550H   LINE      CODE     ---       #733
      01004550H   LINE      CODE     ---       #734
      01004559H   LINE      CODE     ---       #735
      01004559H   LINE      CODE     ---       #736
      01004576H   LINE      CODE     ---       #737
      01004576H   LINE      CODE     ---       #738
      0100457FH   LINE      CODE     ---       #739
      0100457FH   LINE      CODE     ---       #740
      0100459CH   LINE      CODE     ---       #741
      0100459CH   LINE      CODE     ---       #742
      010045A5H   LINE      CODE     ---       #743
      010045A5H   LINE      CODE     ---       #744
      010045C2H   LINE      CODE     ---       #745
      010045C2H   LINE      CODE     ---       #746
      010045CBH   LINE      CODE     ---       #747
      010045CBH   LINE      CODE     ---       #748
      010045E8H   LINE      CODE     ---       #749
      010045E8H   LINE      CODE     ---       #750
      010045F1H   LINE      CODE     ---       #751
      010045F1H   LINE      CODE     ---       #752
      0100460EH   LINE      CODE     ---       #753
      0100460EH   LINE      CODE     ---       #754
      01004617H   LINE      CODE     ---       #755
      01004617H   LINE      CODE     ---       #756
      01004634H   LINE      CODE     ---       #757
      01004634H   LINE      CODE     ---       #758
      0100463DH   LINE      CODE     ---       #759
      0100463DH   LINE      CODE     ---       #760
LX51 LINKER/LOCATER V4.47a                                                            06/06/2015  09:44:34  PAGE 108


      0100465AH   LINE      CODE     ---       #761
      0100465AH   LINE      CODE     ---       #762
      01004663H   LINE      CODE     ---       #763
      01004663H   LINE      CODE     ---       #764
      01004680H   LINE      CODE     ---       #765
      01004680H   LINE      CODE     ---       #766
      01004689H   LINE      CODE     ---       #767
      01004689H   LINE      CODE     ---       #768
      010046A6H   LINE      CODE     ---       #769
      010046A6H   LINE      CODE     ---       #770
      010046AFH   LINE      CODE     ---       #771
      010046AFH   LINE      CODE     ---       #772
      010046CCH   LINE      CODE     ---       #773
      010046CCH   LINE      CODE     ---       #774
      010046D5H   LINE      CODE     ---       #775
      010046D5H   LINE      CODE     ---       #776
      010046F2H   LINE      CODE     ---       #777
      010046F2H   LINE      CODE     ---       #778
      010046FBH   LINE      CODE     ---       #779
      010046FBH   LINE      CODE     ---       #780
      01004718H   LINE      CODE     ---       #781
      01004718H   LINE      CODE     ---       #782
      01004718H   LINE      CODE     ---       #783
      0100471CH   LINE      CODE     ---       #785
      ---         BLOCKEND  ---      ---       LVL=0

      01004080H   BLOCK     CODE     ---       LVL=0
      0000006CH   SYMBOL    DATA     WORD      Code_Value
      01004084H   BLOCK     CODE     NEAR LAB  LVL=1
      0000006EH   SYMBOL    DATA     WORD      out_Value
      00000002H   SYMBOL    DATA     WORD      B_code
      ---         BLOCKEND  ---      ---       LVL=1
      01004080H   LINE      CODE     ---       #789
      01004084H   LINE      CODE     ---       #790
      01004084H   LINE      CODE     ---       #793
      0100408AH   LINE      CODE     ---       #794
      0100408AH   LINE      CODE     ---       #795
      01004095H   LINE      CODE     ---       #796
      01004095H   LINE      CODE     ---       #797
      010040C0H   LINE      CODE     ---       #798
      010040C3H   LINE      CODE     ---       #799
      010040C6H   LINE      CODE     ---       #800
      010040C9H   LINE      CODE     ---       #802
      010040C9H   LINE      CODE     ---       #803
      010040CCH   LINE      CODE     ---       #804
      010040D0H   LINE      CODE     ---       #805
      010040D0H   LINE      CODE     ---       #806
      010040D3H   LINE      CODE     ---       #808
      010040D3H   LINE      CODE     ---       #809
      010040F6H   LINE      CODE     ---       #811
      010040FAH   LINE      CODE     ---       #813
      01004103H   LINE      CODE     ---       #814
      01004103H   LINE      CODE     ---       #815
      01004120H   LINE      CODE     ---       #816
      01004120H   LINE      CODE     ---       #817
      01004129H   LINE      CODE     ---       #818
      01004129H   LINE      CODE     ---       #819
      01004146H   LINE      CODE     ---       #820
      01004146H   LINE      CODE     ---       #821
      0100414FH   LINE      CODE     ---       #822
      0100414FH   LINE      CODE     ---       #823
      0100416CH   LINE      CODE     ---       #824
      0100416CH   LINE      CODE     ---       #825
      01004175H   LINE      CODE     ---       #826
      01004175H   LINE      CODE     ---       #827
LX51 LINKER/LOCATER V4.47a                                                            06/06/2015  09:44:34  PAGE 109


      01004192H   LINE      CODE     ---       #828
      01004192H   LINE      CODE     ---       #829
      0100419BH   LINE      CODE     ---       #830
      0100419BH   LINE      CODE     ---       #831
      010041B8H   LINE      CODE     ---       #832
      010041B8H   LINE      CODE     ---       #833
      010041C1H   LINE      CODE     ---       #834
      010041C1H   LINE      CODE     ---       #835
      010041DEH   LINE      CODE     ---       #836
      010041DEH   LINE      CODE     ---       #837
      010041E7H   LINE      CODE     ---       #838
      010041E7H   LINE      CODE     ---       #839
      01004204H   LINE      CODE     ---       #840
      01004204H   LINE      CODE     ---       #841
      0100420DH   LINE      CODE     ---       #842
      0100420DH   LINE      CODE     ---       #843
      0100422AH   LINE      CODE     ---       #844
      0100422AH   LINE      CODE     ---       #845
      01004233H   LINE      CODE     ---       #846
      01004233H   LINE      CODE     ---       #847
      01004250H   LINE      CODE     ---       #848
      01004250H   LINE      CODE     ---       #849
      01004259H   LINE      CODE     ---       #850
      01004259H   LINE      CODE     ---       #851
      01004276H   LINE      CODE     ---       #852
      01004276H   LINE      CODE     ---       #853
      0100427FH   LINE      CODE     ---       #854
      0100427FH   LINE      CODE     ---       #855
      0100429CH   LINE      CODE     ---       #856
      0100429CH   LINE      CODE     ---       #857
      010042A5H   LINE      CODE     ---       #858
      010042A5H   LINE      CODE     ---       #859
      010042C2H   LINE      CODE     ---       #860
      010042C2H   LINE      CODE     ---       #861
      010042CBH   LINE      CODE     ---       #862
      010042CBH   LINE      CODE     ---       #863
      010042E8H   LINE      CODE     ---       #864
      010042E8H   LINE      CODE     ---       #865
      010042F1H   LINE      CODE     ---       #866
      010042F1H   LINE      CODE     ---       #867
      0100430EH   LINE      CODE     ---       #868
      0100430EH   LINE      CODE     ---       #869
      01004317H   LINE      CODE     ---       #870
      01004317H   LINE      CODE     ---       #871
      01004334H   LINE      CODE     ---       #872
      01004334H   LINE      CODE     ---       #873
      0100433DH   LINE      CODE     ---       #874
      0100433DH   LINE      CODE     ---       #875
      0100435AH   LINE      CODE     ---       #876
      0100435AH   LINE      CODE     ---       #877
      01004363H   LINE      CODE     ---       #878
      01004363H   LINE      CODE     ---       #879
      01004380H   LINE      CODE     ---       #880
      01004380H   LINE      CODE     ---       #881
      01004389H   LINE      CODE     ---       #882
      01004389H   LINE      CODE     ---       #883
      010043A5H   LINE      CODE     ---       #884
      010043A5H   LINE      CODE     ---       #885
      010043AEH   LINE      CODE     ---       #886
      010043AEH   LINE      CODE     ---       #887
      010043CAH   LINE      CODE     ---       #888
      010043CAH   LINE      CODE     ---       #889
      010043CAH   LINE      CODE     ---       #890
      010043CEH   LINE      CODE     ---       #892
      ---         BLOCKEND  ---      ---       LVL=0
LX51 LINKER/LOCATER V4.47a                                                            06/06/2015  09:44:34  PAGE 110



      01002FE7H   BLOCK     CODE     ---       LVL=0
      00000066H   SYMBOL    DATA     WORD      Code_Value
      01002FEBH   BLOCK     CODE     NEAR LAB  LVL=1
      00000068H   SYMBOL    DATA     WORD      RTD_Value
      0000006AH   SYMBOL    DATA     WORD      out_Value
      ---         BLOCKEND  ---      ---       LVL=1
      01002FE7H   LINE      CODE     ---       #1009
      01002FEBH   LINE      CODE     ---       #1010
      01002FEBH   LINE      CODE     ---       #1014
      01002FEEH   LINE      CODE     ---       #1016
      01002FF7H   LINE      CODE     ---       #1017
      01002FF7H   LINE      CODE     ---       #1018
      01003006H   LINE      CODE     ---       #1019
      01003006H   LINE      CODE     ---       #1020
      0100302EH   LINE      CODE     ---       #1021
      01003031H   LINE      CODE     ---       #1022
      01003034H   LINE      CODE     ---       #1023
      01003036H   LINE      CODE     ---       #1025
      01003036H   LINE      CODE     ---       #1026
      01003056H   LINE      CODE     ---       #1027
      01003059H   LINE      CODE     ---       #1028
      0100305CH   LINE      CODE     ---       #1029
      0100305CH   LINE      CODE     ---       #1031
      01003062H   LINE      CODE     ---       #1033
      01003071H   LINE      CODE     ---       #1034
      01003071H   LINE      CODE     ---       #1035
      0100308FH   LINE      CODE     ---       #1036
      0100308FH   LINE      CODE     ---       #1037
      0100309EH   LINE      CODE     ---       #1038
      0100309EH   LINE      CODE     ---       #1039
      010030BDH   LINE      CODE     ---       #1040
      010030BDH   LINE      CODE     ---       #1041
      010030CCH   LINE      CODE     ---       #1042
      010030CCH   LINE      CODE     ---       #1043
      010030EBH   LINE      CODE     ---       #1044
      010030EBH   LINE      CODE     ---       #1045
      010030FAH   LINE      CODE     ---       #1046
      010030FAH   LINE      CODE     ---       #1047
      01003119H   LINE      CODE     ---       #1048
      01003119H   LINE      CODE     ---       #1049
      0100312EH   LINE      CODE     ---       #1050
      0100312EH   LINE      CODE     ---       #1051
      0100314DH   LINE      CODE     ---       #1052
      0100314DH   LINE      CODE     ---       #1053
      01003150H   LINE      CODE     ---       #1055
      01003150H   LINE      CODE     ---       #1056
      01003174H   LINE      CODE     ---       #1058
      0100317AH   LINE      CODE     ---       #1060
      01003185H   LINE      CODE     ---       #1061
      01003185H   LINE      CODE     ---       #1062
      010031A2H   LINE      CODE     ---       #1063
      010031A2H   LINE      CODE     ---       #1064
      010031ADH   LINE      CODE     ---       #1065
      010031ADH   LINE      CODE     ---       #1066
      010031CBH   LINE      CODE     ---       #1067
      010031CBH   LINE      CODE     ---       #1068
      010031D6H   LINE      CODE     ---       #1069
      010031D6H   LINE      CODE     ---       #1070
      010031F4H   LINE      CODE     ---       #1071
      010031F4H   LINE      CODE     ---       #1072
      010031FFH   LINE      CODE     ---       #1073
      010031FFH   LINE      CODE     ---       #1074
      0100321DH   LINE      CODE     ---       #1075
      0100321DH   LINE      CODE     ---       #1076
LX51 LINKER/LOCATER V4.47a                                                            06/06/2015  09:44:34  PAGE 111


      01003228H   LINE      CODE     ---       #1077
      01003228H   LINE      CODE     ---       #1078
      01003246H   LINE      CODE     ---       #1079
      01003246H   LINE      CODE     ---       #1080
      01003251H   LINE      CODE     ---       #1081
      01003251H   LINE      CODE     ---       #1082
      0100326FH   LINE      CODE     ---       #1083
      0100326FH   LINE      CODE     ---       #1084
      01003276H   LINE      CODE     ---       #1085
      01003276H   LINE      CODE     ---       #1086
      01003293H   LINE      CODE     ---       #1087
      01003293H   LINE      CODE     ---       #1088
      0100329EH   LINE      CODE     ---       #1089
      0100329EH   LINE      CODE     ---       #1090
      010032BCH   LINE      CODE     ---       #1091
      010032BCH   LINE      CODE     ---       #1092
      010032C7H   LINE      CODE     ---       #1093
      010032C7H   LINE      CODE     ---       #1094
      010032E5H   LINE      CODE     ---       #1095
      010032E5H   LINE      CODE     ---       #1096
      010032F0H   LINE      CODE     ---       #1097
      010032F0H   LINE      CODE     ---       #1098
      0100330EH   LINE      CODE     ---       #1099
      0100330EH   LINE      CODE     ---       #1100
      01003319H   LINE      CODE     ---       #1101
      01003319H   LINE      CODE     ---       #1102
      01003337H   LINE      CODE     ---       #1103
      01003337H   LINE      CODE     ---       #1104
      01003342H   LINE      CODE     ---       #1105
      01003342H   LINE      CODE     ---       #1106
      01003360H   LINE      CODE     ---       #1107
      01003360H   LINE      CODE     ---       #1108
      0100336BH   LINE      CODE     ---       #1109
      0100336BH   LINE      CODE     ---       #1110
      01003389H   LINE      CODE     ---       #1111
      01003389H   LINE      CODE     ---       #1112
      01003394H   LINE      CODE     ---       #1113
      01003394H   LINE      CODE     ---       #1114
      010033B2H   LINE      CODE     ---       #1115
      010033B2H   LINE      CODE     ---       #1116
      010033BDH   LINE      CODE     ---       #1117
      010033BDH   LINE      CODE     ---       #1118
      010033DBH   LINE      CODE     ---       #1119
      010033DBH   LINE      CODE     ---       #1120
      010033E6H   LINE      CODE     ---       #1121
      010033E6H   LINE      CODE     ---       #1122
      01003404H   LINE      CODE     ---       #1123
      01003404H   LINE      CODE     ---       #1124
      0100340FH   LINE      CODE     ---       #1125
      0100340FH   LINE      CODE     ---       #1126
      0100342DH   LINE      CODE     ---       #1127
      0100342DH   LINE      CODE     ---       #1128
      01003438H   LINE      CODE     ---       #1129
      01003438H   LINE      CODE     ---       #1130
      01003456H   LINE      CODE     ---       #1131
      01003456H   LINE      CODE     ---       #1132
      01003461H   LINE      CODE     ---       #1133
      01003461H   LINE      CODE     ---       #1134
      0100347FH   LINE      CODE     ---       #1135
      0100347FH   LINE      CODE     ---       #1136
      0100347FH   LINE      CODE     ---       #1137
      01003483H   LINE      CODE     ---       #1138
      ---         BLOCKEND  ---      ---       LVL=0

      ---         MODULE    ---      ---       MCP79411
LX51 LINKER/LOCATER V4.47a                                                            06/06/2015  09:44:34  PAGE 112


      0000000FH   PUBLIC    DATA     BYTE      RTC_ack
      01005A5DH   PUBLIC    CODE     ---       _RTC_read_byte
      01005A9DH   PUBLIC    CODE     ---       _RTC_write_byte
      010058CAH   PUBLIC    CODE     ---       RTC_read_byte0
      01005906H   PUBLIC    CODE     ---       _RTC_write_byte0
      0100000EH   PUBLIC    CODE     ---       RTC_restart0
      01005C83H   PUBLIC    CODE     ---       RTC_stop0
      01005C3DH   PUBLIC    CODE     ---       RTC_start0
      01005C53H   PUBLIC    CODE     ---       RTC_BitDly
      01005BDEH   PUBLIC    CODE     ---       _RTC_Delay
      000000B0H   SFRSYM    DATA     BIT       R485_RX
      000000D8H.2 SFRSYM    DATA     BIT       CCF2
      00000098H.3 SFRSYM    DATA     BIT       TB80
      000000F6H   SFRSYM    DATA     BYTE      PCAPWM4
      00000091H   SFRSYM    DATA     BYTE      P1M0
      00000094H   SFRSYM    DATA     BYTE      P0M1
      00000090H.7 SFRSYM    DATA     BIT       non3
      000000D8H.3 SFRSYM    DATA     BIT       CCF3
      00000098H.3 SFRSYM    DATA     BIT       TB81
      000000F7H   SFRSYM    DATA     BYTE      PCAPWM5
      00000095H   SFRSYM    DATA     BYTE      P2M0
      00000092H   SFRSYM    DATA     BYTE      P1M1
      00000080H   SFRSYM    DATA     BYTE      P0
      000000B0H.1 SFRSYM    DATA     BIT       R485_TX
      000000D8H.4 SFRSYM    DATA     BIT       CCF4
      00000098H.7 SFRSYM    DATA     BIT       SM00
      000000B1H   SFRSYM    DATA     BYTE      P3M0
      00000096H   SFRSYM    DATA     BYTE      P2M1
      00000090H   SFRSYM    DATA     BYTE      P1
      000000D8H.5 SFRSYM    DATA     BIT       CCF5
      00000098H.7 SFRSYM    DATA     BIT       SM01
      00000098H.6 SFRSYM    DATA     BIT       SM10
      000000B3H   SFRSYM    DATA     BYTE      P4M0
      000000B2H   SFRSYM    DATA     BYTE      P3M1
      000000A0H   SFRSYM    DATA     BYTE      P2
      00000098H.6 SFRSYM    DATA     BIT       SM11
      00000098H.5 SFRSYM    DATA     BIT       SM20
      000000E7H   SFRSYM    DATA     BYTE      ISPCR
      000000B5H   SFRSYM    DATA     BYTE      P5M0
      000000B4H   SFRSYM    DATA     BYTE      P4M1
      000000B0H   SFRSYM    DATA     BYTE      P3
      000000C0H   SFRSYM    DATA     BYTE      XICON
      000000A0H.2 SFRSYM    DATA     BIT       EEPROM_SDA
      00000080H.7 SFRSYM    DATA     BIT       DOWN_KEY
      000000B0H.4 SFRSYM    DATA     BIT       T0
      00000098H.5 SFRSYM    DATA     BIT       SM21
      000000D0H.6 SFRSYM    DATA     BIT       AC
      00000097H   SFRSYM    DATA     BYTE      EVRCR
      000000B6H   SFRSYM    DATA     BYTE      P5M1
      000000E8H   SFRSYM    DATA     BYTE      P4
      000000B0H.5 SFRSYM    DATA     BIT       T1
      00000085H   SFRSYM    DATA     BYTE      SPCON
      000000F8H   SFRSYM    DATA     BYTE      P5
      000000ADH   SFRSYM    DATA     BYTE      EIE1
      00000090H   SFRSYM    DATA     BIT       T2
      000000A8H.7 SFRSYM    DATA     BIT       EA
      000000ACH   SFRSYM    DATA     BYTE      SFRPI
      000000E1H   SFRSYM    DATA     BYTE      WDTCR
      000000C8H   SFRSYM    DATA     BYTE      P6
      000000A0H.4 SFRSYM    DATA     BIT       mV_SCL
      000000A0H   SFRSYM    DATA     BIT       KBI0
      00000090H.5 SFRSYM    DATA     BIT       SPI_MOSI
      00000090H.6 SFRSYM    DATA     BIT       SPI_MISO
      00000080H.5 SFRSYM    DATA     BIT       mA_OUT
      000000A0H.1 SFRSYM    DATA     BIT       KBI1
LX51 LINKER/LOCATER V4.47a                                                            06/06/2015  09:44:34  PAGE 113


      00000085H   SFRSYM    DATA     BYTE      SPCTL
      000000A0H.2 SFRSYM    DATA     BIT       KBI2
      00000090H   SFRSYM    DATA     BIT       AIN0
      000000D8H.7 SFRSYM    DATA     BIT       CF
      000000AEH   SFRSYM    DATA     BYTE      AUXIP
      000000A0H.3 SFRSYM    DATA     BIT       KBI3
      00000090H.1 SFRSYM    DATA     BIT       AIN1
      000000A0H.4 SFRSYM    DATA     BIT       KBI4
      00000090H.2 SFRSYM    DATA     BIT       AIN2
      00000098H.7 SFRSYM    DATA     BIT       FE
      000000F9H   SFRSYM    DATA     BYTE      CH
      000000A0H.5 SFRSYM    DATA     BIT       KBI5
      00000090H.3 SFRSYM    DATA     BIT       AIN3
      000000A0H.6 SFRSYM    DATA     BIT       KBI6
      00000090H.4 SFRSYM    DATA     BIT       AIN4
      000000A0H.3 SFRSYM    DATA     BIT       EEPROM_SCL
      00000080H.1 SFRSYM    DATA     BIT       RTD_C
      000000A0H.7 SFRSYM    DATA     BIT       KBI7
      00000090H.5 SFRSYM    DATA     BIT       AIN5
      000000A8H   SFRSYM    DATA     BYTE      IE
      00000090H.6 SFRSYM    DATA     BIT       AIN6
      000000E9H   SFRSYM    DATA     BYTE      CL
      00000090H.7 SFRSYM    DATA     BIT       AIN7
      00000090H.2 SFRSYM    DATA     BIT       CEX0
      000000FAH   SFRSYM    DATA     BYTE      CCAP0H
      000000C6H   SFRSYM    DATA     BYTE      ADCH
      00000090H.3 SFRSYM    DATA     BIT       CEX1
      000000FBH   SFRSYM    DATA     BYTE      CCAP1H
      000000B7H   SFRSYM    DATA     BYTE      IP0H
      000000A0H.2 SFRSYM    DATA     BIT       ALL_SDA
      00000090H.4 SFRSYM    DATA     BIT       CEX2
      000000FCH   SFRSYM    DATA     BYTE      CCAP2H
      000000B0H.3 SFRSYM    DATA     BIT       OFFSET_KEY
      00000090H.5 SFRSYM    DATA     BIT       CEX3
      000000FDH   SFRSYM    DATA     BYTE      CCAP3H
      00000090H.6 SFRSYM    DATA     BIT       CEX4
      000000D8H.6 SFRSYM    DATA     BIT       CR
      000000FEH   SFRSYM    DATA     BYTE      CCAP4H
      000000EAH   SFRSYM    DATA     BYTE      CCAP0L
      000000BEH   SFRSYM    DATA     BYTE      ADCL
      000000B0H.7 SFRSYM    DATA     BIT       RD
      00000090H.7 SFRSYM    DATA     BIT       CEX5
      000000C8H.6 SFRSYM    DATA     BIT       EXF2
      00000098H.4 SFRSYM    DATA     BIT       REN0
      000000FFH   SFRSYM    DATA     BYTE      CCAP5H
      000000EBH   SFRSYM    DATA     BYTE      CCAP1L
      000000DAH   SFRSYM    DATA     BYTE      CCAPM0
      000000B8H   SFRSYM    DATA     BYTE      IP0L
      00000098H.4 SFRSYM    DATA     BIT       REN1
      000000ECH   SFRSYM    DATA     BYTE      CCAP2L
      000000DBH   SFRSYM    DATA     BYTE      CCAPM1
      000000C0H.3 SFRSYM    DATA     BIT       IT2H
      000000A8H.4 SFRSYM    DATA     BIT       ES
      00000097H   SFRSYM    DATA     BYTE      TSTWD
      000000EDH   SFRSYM    DATA     BYTE      CCAP3L
      000000DCH   SFRSYM    DATA     BYTE      CCAPM2
      000000C0H.7 SFRSYM    DATA     BIT       IT3H
      000000EEH   SFRSYM    DATA     BYTE      CCAP4L
      000000DDH   SFRSYM    DATA     BYTE      CCAPM3
      000000B8H   SFRSYM    DATA     BYTE      IP
      000000EFH   SFRSYM    DATA     BYTE      CCAP5L
      000000DEH   SFRSYM    DATA     BYTE      CCAPM4
      00000098H   SFRSYM    DATA     BIT       RI
      000000DFH   SFRSYM    DATA     BYTE      CCAPM5
      000000B0H.2 SFRSYM    DATA     BIT       INT0
LX51 LINKER/LOCATER V4.47a                                                            06/06/2015  09:44:34  PAGE 114


      000000D0H.7 SFRSYM    DATA     BIT       CY
      000000B0H.4 SFRSYM    DATA     BIT       BEEP
      00000080H.4 SFRSYM    DATA     BIT       mV_OUT
      000000B0H.3 SFRSYM    DATA     BIT       INT1
      00000098H.1 SFRSYM    DATA     BIT       TI
      000000A0H.3 SFRSYM    DATA     BIT       EEP_SCL
      000000E8H.3 SFRSYM    DATA     BIT       INT2
      000000E8H.2 SFRSYM    DATA     BIT       INT3
      000000C6H   SFRSYM    DATA     BYTE      ADCV
      0000008FH   SFRSYM    DATA     BYTE      STRETCH
      000000B8H.1 SFRSYM    DATA     BIT       PT0L
      000000B8H.3 SFRSYM    DATA     BIT       PT1L
      000000CBH   SFRSYM    DATA     BYTE      RCAP2H
      000000A0H.2 SFRSYM    DATA     BIT       RTC_SDA
      000000B8H.4 SFRSYM    DATA     BIT       PS
      000000B8H.5 SFRSYM    DATA     BIT       PT2L
      00000081H   SFRSYM    DATA     BYTE      SP
      00000090H.1 SFRSYM    DATA     BIT       T2EX
      000000D9H   SFRSYM    DATA     BYTE      CMOD
      000000D8H   SFRSYM    DATA     BYTE      CCON
      0000009AH   SFRSYM    DATA     BYTE      SCFG
      000000B8H   SFRSYM    DATA     BIT       PX0L
      000000D0H.2 SFRSYM    DATA     BIT       OV
      000000B8H.2 SFRSYM    DATA     BIT       PX1L
      000000CAH   SFRSYM    DATA     BYTE      RCAP2L
      000000B8H.6 SFRSYM    DATA     BIT       PX2L
      00000090H.7 SFRSYM    DATA     BIT       SPI_CLK
      000000B8H.7 SFRSYM    DATA     BIT       PX3L
      000000E6H   SFRSYM    DATA     BYTE      SCMD
      000000B0H.6 SFRSYM    DATA     BIT       WR
      000000C8H.1 SFRSYM    DATA     BIT       C_T2
      00000084H   SFRSYM    DATA     BYTE      SPISTAT
      00000090H.6 SFRSYM    DATA     BIT       RTC_SCL
      000000C8H.5 SFRSYM    DATA     BIT       RCLK
      000000C8H.4 SFRSYM    DATA     BIT       TCLK
      00000080H   SFRSYM    DATA     BIT       P00
      000000E3H   SFRSYM    DATA     BYTE      IFADRH
      00000090H   SFRSYM    DATA     BIT       P10
      00000080H.1 SFRSYM    DATA     BIT       P01
      000000E5H   SFRSYM    DATA     BYTE      IFMT
      00000087H   SFRSYM    DATA     BYTE      PCON
      00000099H   SFRSYM    DATA     BYTE      SBUF
      000000A0H   SFRSYM    DATA     BIT       P20
      00000090H.1 SFRSYM    DATA     BIT       P11
      00000080H.2 SFRSYM    DATA     BIT       P02
      000000B0H   SFRSYM    DATA     BIT       P30
      000000A0H.1 SFRSYM    DATA     BIT       P21
      00000090H.2 SFRSYM    DATA     BIT       P12
      00000080H.3 SFRSYM    DATA     BIT       P03
      000000B0H.2 SFRSYM    DATA     BIT       FUNCTION_KEY
      000000E8H   SFRSYM    DATA     BIT       P40
      000000B0H.1 SFRSYM    DATA     BIT       P31
      000000A0H.2 SFRSYM    DATA     BIT       P22
      00000090H.3 SFRSYM    DATA     BIT       P13
      00000080H.4 SFRSYM    DATA     BIT       P04
      000000E4H   SFRSYM    DATA     BYTE      IFADRL
      00000098H   SFRSYM    DATA     BYTE      SCON
      000000F8H   SFRSYM    DATA     BIT       P50
      000000E8H.1 SFRSYM    DATA     BIT       P41
      000000B0H.2 SFRSYM    DATA     BIT       P32
      000000A0H.3 SFRSYM    DATA     BIT       P23
      00000090H.4 SFRSYM    DATA     BIT       P14
      00000080H.5 SFRSYM    DATA     BIT       P05
      00000089H   SFRSYM    DATA     BYTE      TMOD
      00000088H   SFRSYM    DATA     BYTE      TCON
LX51 LINKER/LOCATER V4.47a                                                            06/06/2015  09:44:34  PAGE 115


      000000C8H   SFRSYM    DATA     BIT       P60
      000000F8H.1 SFRSYM    DATA     BIT       P51
      000000E8H.2 SFRSYM    DATA     BIT       P42
      000000B0H.3 SFRSYM    DATA     BIT       P33
      000000A0H.4 SFRSYM    DATA     BIT       P24
      00000090H.5 SFRSYM    DATA     BIT       P15
      00000080H.6 SFRSYM    DATA     BIT       P06
      000000A0H.5 SFRSYM    DATA     BIT       TEMP
      000000C8H.1 SFRSYM    DATA     BIT       P61
      000000F8H.2 SFRSYM    DATA     BIT       P52
      000000E8H.3 SFRSYM    DATA     BIT       P43
      000000B0H.4 SFRSYM    DATA     BIT       P34
      000000A0H.5 SFRSYM    DATA     BIT       P25
      00000090H.6 SFRSYM    DATA     BIT       P16
      00000080H.7 SFRSYM    DATA     BIT       P07
      000000F8H.3 SFRSYM    DATA     BIT       P53
      000000E8H.4 SFRSYM    DATA     BIT       P44
      000000B0H.5 SFRSYM    DATA     BIT       P35
      000000A0H.6 SFRSYM    DATA     BIT       P26
      00000090H.7 SFRSYM    DATA     BIT       P17
      000000A0H   SFRSYM    DATA     BIT       Value_SDA
      000000E8H.5 SFRSYM    DATA     BIT       P45
      000000B0H.6 SFRSYM    DATA     BIT       P36
      000000A0H.7 SFRSYM    DATA     BIT       P27
      00000080H   SFRSYM    DATA     BIT       TC_C
      000000E8H.6 SFRSYM    DATA     BIT       P46
      000000B0H.7 SFRSYM    DATA     BIT       P37
      000000E8H.7 SFRSYM    DATA     BIT       P47
      000000D7H   SFRSYM    DATA     BYTE      KBMASK
      000000A0H.4 SFRSYM    DATA     BIT       OUT_SCL
      000000A0H   SFRSYM    DATA     BIT       AD_SDA
      00000088H.1 SFRSYM    DATA     BIT       IE0
      00000088H.3 SFRSYM    DATA     BIT       IE1
      00000090H   SFRSYM    DATA     BIT       LED1_SDA
      000000C0H.1 SFRSYM    DATA     BIT       IE2
      00000090H.3 SFRSYM    DATA     BIT       LED2_SDA
      000000C0H.5 SFRSYM    DATA     BIT       IE3
      000000A8H.6 SFRSYM    DATA     BIT       GF4
      0000008EH   SFRSYM    DATA     BYTE      AUXR
      000000F0H   SFRSYM    DATA     BYTE      B
      000000D5H   SFRSYM    DATA     BYTE      KBPATN
      000000A0H.1 SFRSYM    DATA     BIT       Value_SCL
      000000C8H   SFRSYM    DATA     BIT       CP_RL2
      000000A0H.6 SFRSYM    DATA     BIT       NONE_4
      000000A0H.7 SFRSYM    DATA     BIT       NONE_5
      000000B0H.6 SFRSYM    DATA     BIT       NONE_6
      00000086H   SFRSYM    DATA     BYTE      SPIDAT
      000000E0H   SFRSYM    DATA     BYTE      ACC
      000000B0H.7 SFRSYM    DATA     BIT       NONE_7
      000000A0H.1 SFRSYM    DATA     BIT       AD_SCL
      000000A8H.4 SFRSYM    DATA     BIT       ES0
      000000A8H.1 SFRSYM    DATA     BIT       ET0
      00000090H.2 SFRSYM    DATA     BIT       LED1_SCL
      00000088H.5 SFRSYM    DATA     BIT       TF0
      000000A8H.3 SFRSYM    DATA     BIT       ET1
      00000090H.4 SFRSYM    DATA     BIT       LED2_SCL
      00000088H.7 SFRSYM    DATA     BIT       TF1
      00000098H   SFRSYM    DATA     BIT       RI0
      000000A8H.5 SFRSYM    DATA     BIT       ET2
      000000C8H.7 SFRSYM    DATA     BIT       TF2
      00000098H   SFRSYM    DATA     BIT       RI1
      00000098H.2 SFRSYM    DATA     BIT       RB8
      0000008CH   SFRSYM    DATA     BYTE      TH0
      00000088H   SFRSYM    DATA     BIT       IT0
      00000098H.1 SFRSYM    DATA     BIT       TI0
LX51 LINKER/LOCATER V4.47a                                                            06/06/2015  09:44:34  PAGE 116


      000000A8H   SFRSYM    DATA     BIT       EX0
      0000008DH   SFRSYM    DATA     BYTE      TH1
      00000088H.2 SFRSYM    DATA     BIT       IT1
      00000098H.1 SFRSYM    DATA     BIT       TI1
      00000098H.3 SFRSYM    DATA     BIT       TB8
      000000A8H.2 SFRSYM    DATA     BIT       EX1
      00000085H   SFRSYM    DATA     BYTE      SPICON
      000000CDH   SFRSYM    DATA     BYTE      TH2
      000000C0H   SFRSYM    DATA     BIT       IT2
      000000C0H.2 SFRSYM    DATA     BIT       EX2
      000000D0H   SFRSYM    DATA     BIT       P
      000000C0H.4 SFRSYM    DATA     BIT       IT3
      000000C0H.6 SFRSYM    DATA     BIT       EX3
      00000098H.7 SFRSYM    DATA     BIT       SM0
      0000008AH   SFRSYM    DATA     BYTE      TL0
      00000080H.3 SFRSYM    DATA     BIT       mA_C
      000000C8H   SFRSYM    DATA     BIT       XOUT
      00000090H.1 SFRSYM    DATA     BIT       ECI
      00000098H.6 SFRSYM    DATA     BIT       SM1
      00000085H   SFRSYM    DATA     BYTE      SPICTL
      0000008BH   SFRSYM    DATA     BYTE      TL1
      000000AFH   SFRSYM    DATA     BYTE      AUXIPH
      000000E8H.6 SFRSYM    DATA     BIT       ALE
      00000098H.5 SFRSYM    DATA     BIT       SM2
      000000CCH   SFRSYM    DATA     BYTE      TL2
      000000E2H   SFRSYM    DATA     BYTE      IFD
      000000B8H.1 SFRSYM    DATA     BIT       PT0
      000000B0H.5 SFRSYM    DATA     BIT       R485_DE_RE
      000000B8H.3 SFRSYM    DATA     BIT       PT1
      000000D0H.3 SFRSYM    DATA     BIT       RS0
      00000088H.4 SFRSYM    DATA     BIT       TR0
      000000B8H.5 SFRSYM    DATA     BIT       PT2
      000000D0H.4 SFRSYM    DATA     BIT       RS1
      00000088H.6 SFRSYM    DATA     BIT       TR1
      000000C8H.2 SFRSYM    DATA     BIT       TR2
      000000B8H   SFRSYM    DATA     BIT       PX0
      000000AFH   SFRSYM    DATA     BYTE      EIP1H
      000000B8H.2 SFRSYM    DATA     BIT       PX1
      000000C0H.3 SFRSYM    DATA     BIT       PX2
      000000C0H.7 SFRSYM    DATA     BIT       PX3
      000000AEH   SFRSYM    DATA     BYTE      EIP1L
      00000083H   SFRSYM    DATA     BYTE      DPH
      000000C8H   SFRSYM    DATA     BIT       CKO
      00000082H   SFRSYM    DATA     BYTE      DPL
      00000087H   SFRSYM    DATA     BYTE      PCON0
      00000084H   SFRSYM    DATA     BYTE      SPSTAT
      00000099H   SFRSYM    DATA     BYTE      SBUF0
      000000B7H   SFRSYM    DATA     BYTE      IPH
      000000B0H.4 SFRSYM    DATA     BIT       T0CKO
      00000097H   SFRSYM    DATA     BYTE      PCON1
      00000099H   SFRSYM    DATA     BYTE      SBUF1
      000000B0H.5 SFRSYM    DATA     BIT       T1CKO
      000000C8H.3 SFRSYM    DATA     BIT       EXEN2
      000000C7H   SFRSYM    DATA     BYTE      PCON2
      0000009AH   SFRSYM    DATA     BYTE      S2BUF
      00000098H   SFRSYM    DATA     BYTE      SCON0
      00000098H.4 SFRSYM    DATA     BIT       REN
      00000098H   SFRSYM    DATA     BYTE      SCON1
      00000080H.2 SFRSYM    DATA     BIT       mV_C
      000000C5H   SFRSYM    DATA     BYTE      ADCON
      000000A0H.2 SFRSYM    DATA     BIT       mA_SDA
      000000C9H   SFRSYM    DATA     BYTE      T2MOD
      000000C8H   SFRSYM    DATA     BYTE      T2CON
      000000C5H   SFRSYM    DATA     BYTE      ADCTL
      000000BEH   SFRSYM    DATA     BYTE      ADCVL
LX51 LINKER/LOCATER V4.47a                                                            06/06/2015  09:44:34  PAGE 117


      000000B9H   SFRSYM    DATA     BYTE      SADEN
      0000009AH   SFRSYM    DATA     BYTE      S1BRT
      000000B0H   SFRSYM    DATA     BIT       RXD
      000000D6H   SFRSYM    DATA     BYTE      KBCON
      00000080H.6 SFRSYM    DATA     BIT       UP_KEY
      000000C8H.1 SFRSYM    DATA     BIT       XIN
      000000B8H.4 SFRSYM    DATA     BIT       PSL
      000000A9H   SFRSYM    DATA     BYTE      SADDR
      000000B0H.1 SFRSYM    DATA     BIT       TXD
      000000A0H.4 SFRSYM    DATA     BIT       mA_SCL
      0000008EH   SFRSYM    DATA     BYTE      AUXR0
      000000A2H   SFRSYM    DATA     BYTE      AUXR1
      00000090H.4 SFRSYM    DATA     BIT       SPI_SS
      000000A6H   SFRSYM    DATA     BYTE      AUXR2
      00000090H.2 SFRSYM    DATA     BIT       S2RXD
      000000D0H.5 SFRSYM    DATA     BIT       F0
      000000B0H.4 SFRSYM    DATA     BIT       BEEP_OUT
      00000090H.3 SFRSYM    DATA     BIT       S2TXD
      000000D0H.1 SFRSYM    DATA     BIT       F1
      00000090H.1 SFRSYM    DATA     BIT       LED1_LE
      00000090H.5 SFRSYM    DATA     BIT       LED2_LE
      000000F2H   SFRSYM    DATA     BYTE      PCAPWM0
      000000D0H   SFRSYM    DATA     BYTE      PSW
      000000F3H   SFRSYM    DATA     BYTE      PCAPWM1
      000000A0H.2 SFRSYM    DATA     BIT       mV_SDA
      000000D8H   SFRSYM    DATA     BIT       CCF0
      00000098H.2 SFRSYM    DATA     BIT       RB80
      000000F4H   SFRSYM    DATA     BYTE      PCAPWM2
      000000D8H.1 SFRSYM    DATA     BIT       CCF1
      00000098H.2 SFRSYM    DATA     BIT       RB81
      000000F5H   SFRSYM    DATA     BYTE      PCAPWM3
      00000086H   SFRSYM    DATA     BYTE      SPDAT
      00000093H   SFRSYM    DATA     BYTE      P0M0
      000000ADH   SFRSYM    DATA     BYTE      AUXIE

      01005BDEH   BLOCK     CODE     ---       LVL=0
      00000006H   SYMBOL    DATA     WORD      i
      01005BDEH   BLOCK     CODE     NEAR LAB  LVL=1
      00000007H   SYMBOL    DATA     BYTE      j
      ---         BLOCKEND  ---      ---       LVL=1
      01005BDEH   LINE      CODE     ---       #38
      01005BDEH   LINE      CODE     ---       #39
      01005BDEH   LINE      CODE     ---       #41
      01005BE8H   LINE      CODE     ---       #42
      01005BEEH   LINE      CODE     ---       #43
      ---         BLOCKEND  ---      ---       LVL=0

      01005C4CH   BLOCK     CODE     ---       LVL=0
      ---         BLOCKEND  ---      ---       LVL=0

      01005C53H   BLOCK     CODE     ---       LVL=0
      00000007H   SYMBOL    DATA     BYTE      i
      01005C53H   BLOCK     CODE     NEAR LAB  LVL=1
      00000007H   SYMBOL    DATA     BYTE      i
      ---         BLOCKEND  ---      ---       LVL=1
      01005C53H   LINE      CODE     ---       #45
      01005C53H   LINE      CODE     ---       #46
      01005C53H   LINE      CODE     ---       #49
      01005C59H   LINE      CODE     ---       #50
      ---         BLOCKEND  ---      ---       LVL=0
      00000006H   SYMBOL    DATA     WORD      i

      01005C3DH   BLOCK     CODE     ---       LVL=0
      01005C3DH   LINE      CODE     ---       #64
      01005C3DH   LINE      CODE     ---       #65
LX51 LINKER/LOCATER V4.47a                                                            06/06/2015  09:44:34  PAGE 118


      01005C3DH   LINE      CODE     ---       #66
      01005C3FH   LINE      CODE     ---       #67
      01005C42H   LINE      CODE     ---       #68
      01005C44H   LINE      CODE     ---       #69
      01005C47H   LINE      CODE     ---       #70
      01005C49H   LINE      CODE     ---       #71
      ---         BLOCKEND  ---      ---       LVL=0

      01005C83H   BLOCK     CODE     ---       LVL=0
      01005C83H   LINE      CODE     ---       #74
      01005C83H   LINE      CODE     ---       #75
      01005C83H   LINE      CODE     ---       #76
      01005C85H   LINE      CODE     ---       #77
      01005C85H   LINE      CODE     ---       #78
      01005C85H   LINE      CODE     ---       #79
      01005C88H   LINE      CODE     ---       #80
      01005C8AH   LINE      CODE     ---       #81
      ---         BLOCKEND  ---      ---       LVL=0

      0100000EH   BLOCK     CODE     ---       LVL=0
      0100000EH   LINE      CODE     ---       #84
      0100000EH   LINE      CODE     ---       #85
      0100000EH   LINE      CODE     ---       #86
      0100000EH   LINE      CODE     ---       #87
      0100000EH   LINE      CODE     ---       #88
      0100000EH   LINE      CODE     ---       #89
      01000011H   LINE      CODE     ---       #90
      01000013H   LINE      CODE     ---       #91
      01000016H   LINE      CODE     ---       #92
      01000018H   LINE      CODE     ---       #93
      ---         BLOCKEND  ---      ---       LVL=0

      01005906H   BLOCK     CODE     ---       LVL=0
      00000006H   SYMBOL    DATA     BYTE      bt
      01005908H   BLOCK     CODE     NEAR LAB  LVL=1
      00000010H   SYMBOL    IDATA    BYTE      i
      ---         BLOCKEND  ---      ---       LVL=1
      01005906H   LINE      CODE     ---       #96
      01005908H   LINE      CODE     ---       #97
      01005908H   LINE      CODE     ---       #100
      0100590BH   LINE      CODE     ---       #102
      0100590FH   LINE      CODE     ---       #103
      0100590FH   LINE      CODE     ---       #104
      01005913H   LINE      CODE     ---       #105
      01005917H   LINE      CODE     ---       #107
      01005919H   LINE      CODE     ---       #108
      01005919H   LINE      CODE     ---       #109
      01005919H   LINE      CODE     ---       #110
      0100591CH   LINE      CODE     ---       #111
      0100591EH   LINE      CODE     ---       #112
      01005921H   LINE      CODE     ---       #113
      01005925H   LINE      CODE     ---       #114
      0100592EH   LINE      CODE     ---       #115
      0100592EH   LINE      CODE     ---       #116
      0100592EH   LINE      CODE     ---       #117
      0100592EH   LINE      CODE     ---       #118
      01005931H   LINE      CODE     ---       #120
      01005937H   LINE      CODE     ---       #121
      01005939H   LINE      CODE     ---       #122
      ---         BLOCKEND  ---      ---       LVL=0

      010058CAH   BLOCK     CODE     ---       LVL=0
      010058CAH   BLOCK     CODE     NEAR LAB  LVL=1
      00000010H   SYMBOL    IDATA    BYTE      i
      00000011H   SYMBOL    IDATA    BYTE      res
LX51 LINKER/LOCATER V4.47a                                                            06/06/2015  09:44:34  PAGE 119


      ---         BLOCKEND  ---      ---       LVL=1
      010058CAH   LINE      CODE     ---       #125
      010058CAH   LINE      CODE     ---       #126
      010058CAH   LINE      CODE     ---       #128
      010058CEH   LINE      CODE     ---       #129
      010058D0H   LINE      CODE     ---       #131
      010058D2H   LINE      CODE     ---       #132
      010058D2H   LINE      CODE     ---       #133
      010058D4H   LINE      CODE     ---       #134
      010058D7H   LINE      CODE     ---       #135
      010058DEH   LINE      CODE     ---       #136
      010058E5H   LINE      CODE     ---       #137
      010058E7H   LINE      CODE     ---       #138
      010058EAH   LINE      CODE     ---       #139
      010058F3H   LINE      CODE     ---       #140
      010058F5H   LINE      CODE     ---       #141
      010058F7H   LINE      CODE     ---       #142
      010058FAH   LINE      CODE     ---       #143
      010058FCH   LINE      CODE     ---       #144
      010058FEH   LINE      CODE     ---       #145
      01005901H   LINE      CODE     ---       #146
      01005905H   LINE      CODE     ---       #147
      ---         BLOCKEND  ---      ---       LVL=0

      01005A9DH   BLOCK     CODE     ---       LVL=0
      00000004H   SYMBOL    DATA     BYTE      reg_addr
      00000005H   SYMBOL    DATA     BYTE      reg_data
      01005A9DH   LINE      CODE     ---       #149
      01005A9FH   LINE      CODE     ---       #150
      01005A9FH   LINE      CODE     ---       #151
      01005AA2H   LINE      CODE     ---       #152
      01005AA7H   LINE      CODE     ---       #153
      01005AACH   LINE      CODE     ---       #154
      01005AB1H   LINE      CODE     ---       #155
      01005AB4H   LINE      CODE     ---       #156
      ---         BLOCKEND  ---      ---       LVL=0

      01005A5DH   BLOCK     CODE     ---       LVL=0
      00000005H   SYMBOL    DATA     BYTE      reg_addr
      01005A5FH   BLOCK     CODE     NEAR LAB  LVL=1
      00000006H   SYMBOL    DATA     BYTE      retb
      ---         BLOCKEND  ---      ---       LVL=1
      01005A5DH   LINE      CODE     ---       #159
      01005A5FH   LINE      CODE     ---       #160
      01005A5FH   LINE      CODE     ---       #163
      01005A62H   LINE      CODE     ---       #164
      01005A67H   LINE      CODE     ---       #165
      01005A6CH   LINE      CODE     ---       #166
      01005A6FH   LINE      CODE     ---       #167
      01005A74H   LINE      CODE     ---       #168
      01005A79H   LINE      CODE     ---       #169
      01005A7CH   LINE      CODE     ---       #171
      01005A7EH   LINE      CODE     ---       #172
      ---         BLOCKEND  ---      ---       LVL=0

      ---         MODULE    ---      ---       ?C?FPADD
      01003CD7H   PUBLIC    CODE     ---       ?C?FPADD
      01003CD3H   PUBLIC    CODE     ---       ?C?FPSUB

      ---         MODULE    ---      ---       ?C?FPDIV
      01003DCBH   PUBLIC    CODE     ---       ?C?FPDIV

      ---         MODULE    ---      ---       ?C?FCAST
      01003E72H   PUBLIC    CODE     ---       ?C?FCASTC
      01003E6DH   PUBLIC    CODE     ---       ?C?FCASTI
LX51 LINKER/LOCATER V4.47a                                                            06/06/2015  09:44:34  PAGE 120


      01003E68H   PUBLIC    CODE     ---       ?C?FCASTL

      ---         MODULE    ---      ---       ?C?CASTF
      01003EA6H   PUBLIC    CODE     ---       ?C?CASTF

      ---         MODULE    ---      ---       ?C?FPGETOPN
      01003EDDH   PUBLIC    CODE     ---       ?C?FPGETOPN2
      01003F12H   PUBLIC    CODE     ---       ?C?FPNANRESULT
      01003F1CH   PUBLIC    CODE     ---       ?C?FPOVERFLOW
      01003EF4H   PUBLIC    CODE     ---       ?C?FPRESULT
      01003F08H   PUBLIC    CODE     ---       ?C?FPRESULT2
      01003F19H   PUBLIC    CODE     ---       ?C?FPUNDERFLOW

      ---         MODULE    ---      ---       ?C_STARTUP
      01000000H   PUBLIC    CODE     ---       ?C_STARTUP

      ---         MODULE    ---      ---       ?C?IMUL
      01003F27H   PUBLIC    CODE     ---       ?C?IMUL

      ---         MODULE    ---      ---       ?C?UIDIV
      01003F39H   PUBLIC    CODE     ---       ?C?UIDIV

      ---         MODULE    ---      ---       ?C?SLDIV
      01005712H   PUBLIC    CODE     ---       ?C?SLDIV

      ---         MODULE    ---      ---       ?C?LNEG
      01003F8EH   PUBLIC    CODE     ---       ?C?LNEG

      ---         MODULE    ---      ---       ?C?SLCMP
      01003F9CH   PUBLIC    CODE     ---       ?C?SLCMP

      ---         MODULE    ---      ---       ?C_INIT
      010054ADH   PUBLIC    CODE     ---       ?C_START

      ---         MODULE    ---      ---       ?C?ULDIV
      01003FEEH   PUBLIC    CODE     ---       ?C?ULDIV

Program Size: data=159.4 xdata=82 const=51 code=23719
LX51 RUN COMPLETE.  0 WARNING(S),  0 ERROR(S)
