LX51 LINKER/LOCATER V4.47a                                                              02/02/2015  10:52:25  PAGE 1


LX51 LINKER/LOCATER V4.47a, INVOKED BY:
C:\KEIL\C51\BIN\LX51.EXE main.obj, LED.obj, AD3421.obj, EEPROM.obj, DAC6571_mV.obj, DAC6571_mA.obj, TYPE_SLOPE.obj, MCP7
>> 9411.obj TO TC_P1 REMOVEUNUSED CLASSES (XDATA (X:0X0-X:0X3FF), HDATA (X:0X0-X:0X3FF), ECODE (C:0X0-C:0XFFFF), HCONST 
>> (C:0X0-C:0XFFFF))


CPU MODE:     8051 MODE
MEMORY MODEL: SMALL WITH FLOATING POINT ARITHMETIC


INPUT MODULES INCLUDED:
  main.obj (MAIN)
         COMMENT TYPE 0: C51 V9.02
  LED.obj (LED)
         COMMENT TYPE 0: C51 V9.02
  AD3421.obj (AD3421)
         COMMENT TYPE 0: C51 V9.02
  EEPROM.obj (EEPROM)
         COMMENT TYPE 0: C51 V9.02
  DAC6571_mV.obj (DAC6571_MV)
         COMMENT TYPE 0: C51 V9.02
  DAC6571_mA.obj (DAC6571_MA)
         COMMENT TYPE 0: C51 V9.02
  TYPE_SLOPE.obj (TYPE_SLOPE)
         COMMENT TYPE 0: C51 V9.02
  MCP79411.obj (MCP79411)
         COMMENT TYPE 0: C51 V9.02
  C:\KEIL\C51\LIB\C51FPS.LIB (?C?FPADD)
         COMMENT TYPE 1: A51 / ASM51 Assembler
  C:\KEIL\C51\LIB\C51FPS.LIB (?C?FPMUL)
         COMMENT TYPE 1: A51 / ASM51 Assembler
  C:\KEIL\C51\LIB\C51FPS.LIB (?C?FPDIV)
         COMMENT TYPE 1: A51 / ASM51 Assembler
  C:\KEIL\C51\LIB\C51FPS.LIB (?C?FPCMP)
         COMMENT TYPE 1: A51 / ASM51 Assembler
  C:\KEIL\C51\LIB\C51FPS.LIB (?C?FCAST)
         COMMENT TYPE 1: A51 / ASM51 Assembler
  C:\KEIL\C51\LIB\C51FPS.LIB (?C?CASTF)
         COMMENT TYPE 1: A51 / ASM51 Assembler
  C:\KEIL\C51\LIB\C51FPS.LIB (?C?FPGETOPN)
         COMMENT TYPE 1: A51 / ASM51 Assembler
  C:\KEIL\C51\LIB\C51S.LIB (?C_STARTUP)
         COMMENT TYPE 1: A51 / ASM51 Assembler
  C:\KEIL\C51\LIB\C51S.LIB (?C?IMUL)
         COMMENT TYPE 1: A51 / ASM51 Assembler
  C:\KEIL\C51\LIB\C51S.LIB (?C?UIDIV)
         COMMENT TYPE 1: A51 / ASM51 Assembler
  C:\KEIL\C51\LIB\C51S.LIB (?C?SLDIV)
         COMMENT TYPE 1: A51 / ASM51 Assembler
  C:\KEIL\C51\LIB\C51S.LIB (?C?LNEG)
         COMMENT TYPE 1: A51 / ASM51 Assembler
  C:\KEIL\C51\LIB\C51S.LIB (?C?SLCMP)
         COMMENT TYPE 1: A51 / ASM51 Assembler
  C:\KEIL\C51\LIB\C51S.LIB (?C_INIT)
         COMMENT TYPE 1: A51 / ASM51 Assembler
  C:\KEIL\C51\LIB\C51S.LIB (?C?ULDIV)
         COMMENT TYPE 1: A51 / ASM51 Assembler


ACTIVE MEMORY CLASSES OF MODULE:  TC_P1 (MAIN)

BASE        START       END         USED      MEMORY CLASS
==========================================================
X:000000H   X:000000H   X:0003FFH   000052H   XDATA
X:000000H   X:000000H   X:0003FFH             HDATA
C:000000H   C:000000H   C:00FFFFH             ECODE
LX51 LINKER/LOCATER V4.47a                                                            02/02/2015  10:52:25  PAGE 2


B00:0000H   C:000000H   C:00FFFFH             HCONST
C:000000H   C:000000H   C:00FFFFH   0061E5H   CODE
I:000000H   I:000000H   I:00007FH   00006EH   DATA
I:000020H.0 I:000020H.0 I:00002FH.7 000000H.4 BIT
I:000000H   I:000000H   I:0000FFH   000024H   IDATA
C:000000H   C:000000H   C:00FFFFH   000033H   CONST


MEMORY MAP OF MODULE:  TC_P1 (MAIN)


START     STOP      LENGTH    ALIGN  RELOC    MEMORY CLASS   SEGMENT NAME
=========================================================================

* * * * * * * * * * *   D A T A   M E M O R Y   * * * * * * * * * * * * *
000000H   000007H   000008H   ---    AT..     DATA           "REG BANK 0"
000008H   00000AH   000003H   BYTE   UNIT     DATA           ?DT?TYPE_SLOPE
00000BH   00000BH   000001H   BYTE   UNIT     DATA           ?DT?AD3421
00000CH   00000CH   000001H   BYTE   UNIT     DATA           ?DT?EEPROM
00000DH   00000DH   000001H   BYTE   UNIT     DATA           ?DT?DAC6571_MV
00000EH   00000EH   000001H   BYTE   UNIT     DATA           ?DT?DAC6571_MA
00000FH   00000FH   000001H   BYTE   UNIT     DATA           ?DT?MCP79411
000010H   000012H   000003H   BYTE   UNIT     IDATA          _IDATA_GROUP_
000013H.0 00001FH.7 00000DH.0 ---    ---      **GAP**
000020H.0 000020H.3 000000H.4 BIT    UNIT     BIT            ?BI?MAIN
000020H.4 000020H   000000H.4 ---    ---      **GAP**
000021H   00005EH   00003EH   BYTE   UNIT     DATA           ?DT?MAIN
00005FH   00007EH   000020H   BYTE   UNIT     DATA           _DATA_GROUP_
00007FH   00009EH   000020H   BYTE   UNIT     IDATA          ?ID?MAIN
00009FH   00009FH   000001H   BYTE   UNIT     IDATA          ?STACK

* * * * * * * * * * *   C O D E   M E M O R Y   * * * * * * * * * * * * *
000000H   000002H   000003H   ---    OFFS..   CODE           ?CO??C_STARTUP?0
000003H   000005H   000003H   BYTE   OFFS..   CODE           ?MAIN?00003
000006H   000006H   000001H   BYTE   UNIT     CODE           ?PR?EX_INT0?MAIN
000007H   00000AH   000004H   ---    ---      **GAP**
00000BH   00000DH   000003H   BYTE   OFFS..   CODE           ?MAIN?0000B
00000EH   00001AH   00000DH   BYTE   UNIT     CODE           ?PR?RTC_RESTART0?MCP79411
00001BH   00001DH   000003H   BYTE   OFFS..   CODE           ?MAIN?0001B
00001EH   000022H   000005H   ---    ---      **GAP**
000023H   000025H   000003H   BYTE   OFFS..   CODE           ?MAIN?00023
000026H   000FFCH   000FD7H   BYTE   UNIT     CODE           ?PR?DO_SETUP_TYPE?MAIN
000FFDH   00185EH   000862H   BYTE   UNIT     CODE           ?PR?_GET_E_SLOPE?TYPE_SLOPE
00185FH   002056H   0007F8H   BYTE   UNIT     CODE           ?PR?_GET_K_SLOPE?TYPE_SLOPE
002057H   0027E6H   000790H   BYTE   UNIT     CODE           ?PR?_LED_DISP?LED
0027E7H   002ECBH   0006E5H   BYTE   UNIT     CODE           ?PR?_SETUP_LED_DISP?LED
002ECCH   00343BH   000570H   BYTE   UNIT     CODE           ?PR?_GET_T_SLOPE?TYPE_SLOPE
00343CH   00396AH   00052FH   BYTE   UNIT     CODE           ?C?LIB_CODE
00396BH   003E07H   00049DH   BYTE   UNIT     CODE           ?PR?_GET_RTD_SLOPE?TYPE_SLOPE
003E08H   0042A2H   00049BH   BYTE   UNIT     CODE           ?PR?_GET_J_SLOPE?TYPE_SLOPE
0042A3H   0045F1H   00034FH   BYTE   UNIT     CODE           ?PR?_GET_S_SLOPE?TYPE_SLOPE
0045F2H   00493FH   00034EH   BYTE   UNIT     CODE           ?PR?_GET_R_SLOPE?TYPE_SLOPE
004940H   004C84H   000345H   BYTE   UNIT     CODE           ?PR?DO_TC_TYPE?MAIN
004C85H   004EE2H   00025EH   BYTE   UNIT     CODE           ?PR?MAIN?MAIN
004EE3H   0050BCH   0001DAH   BYTE   UNIT     CODE           ?PR?TEMP_READ?MAIN
0050BDH   005222H   000166H   BYTE   UNIT     CODE           ?PR?DO_MV_TYPE?MAIN
005223H   005388H   000166H   BYTE   UNIT     CODE           ?PR?DO_MA_TYPE?MAIN
005389H   0054EAH   000162H   BYTE   UNIT     CODE           ?PR?DO_RTD_TYPE?MAIN
0054EBH   0055CCH   0000E2H   BYTE   UNIT     CODE           ?PR?DO_RESET_TYPE?MAIN
0055CDH   0056AAH   0000DEH   BYTE   UNIT     CODE           ?PR?EEPROM_WRITEDEFAULT?MAIN
0056ABH   005771H   0000C7H   BYTE   UNIT     CODE           ?PR?_LED_DATA_WRITE?LED
005772H   00582EH   0000BDH   BYTE   UNIT     CODE           ?C_INITSEG
00582FH   0058E7H   0000B9H   BYTE   UNIT     CODE           ?PR?_TEMP_F_TO_C?MAIN
0058E8H   005993H   0000ACH   BYTE   UNIT     CODE           ?PR?READ_AD3421_VALUE?MAIN
005994H   005A1FH   00008CH   BYTE   UNIT     CODE           ?C_C51STARTUP
LX51 LINKER/LOCATER V4.47a                                                            02/02/2015  10:52:25  PAGE 3


005A20H   005A9FH   000080H   BYTE   UNIT     CODE           ?PR?CHECK_PCB?MAIN
005AA0H   005B10H   000071H   BYTE   UNIT     CODE           ?PR?RTC_READ_SET?MAIN
005B11H   005B7EH   00006EH   BYTE   UNIT     CODE           ?PR?GET_KEY?MAIN
005B7FH   005BE1H   000063H   BYTE   UNIT     CODE           ?PR?TIME1?MAIN
005BE2H   005C36H   000055H   BYTE   UNIT     CODE           ?PR?RTC_ON?MAIN
005C37H   005C7AH   000044H   BYTE   UNIT     CODE           ?C?LDIV
005C7BH   005CBDH   000043H   BYTE   UNIT     CODE           ?PR?_AD3421_WRITE_BYTE?AD3421
005CBEH   005CFEH   000041H   BYTE   UNIT     CODE           ?PR?_AD3421_READ_BYTE?AD3421
005CFFH   005D3AH   00003CH   BYTE   UNIT     CODE           ?PR?_EEPROM_WRITE_BYTE0?EEPROM
005D3BH   005D76H   00003CH   BYTE   UNIT     CODE           ?PR?EEPROM_READ_BYTE0?EEPROM
005D77H   005DB2H   00003CH   BYTE   UNIT     CODE           ?PR?_DAC6571MV_WRITE_BYTE?DAC6571_MV
005DB3H   005DEEH   00003CH   BYTE   UNIT     CODE           ?PR?_DAC6571MA_WRITE_BYTE?DAC6571_MA
005DEFH   005E2AH   00003CH   BYTE   UNIT     CODE           ?PR?RTC_READ_BYTE0?MCP79411
005E2BH   005E60H   000036H   BYTE   UNIT     CODE           ?PR?_RTC_WRITE_BYTE0?MCP79411
005E61H   005E92H   000032H   BYTE   UNIT     CODE           ?PR?_SET_MA?DAC6571_MA
005E93H   005EBEH   00002CH   BYTE   UNIT     CODE           ?PR?TIME0?MAIN
005EBFH   005EE7H   000029H   BYTE   UNIT     CODE           ?PR?LED_INIT?LED
005EE8H   005F0FH   000028H   BYTE   UNIT     CODE           ?PR?_AD3421_READ_COM?AD3421
005F10H   005F37H   000028H   BYTE   UNIT     CODE           ?PR?_SET_MV?DAC6571_MV
005F38H   005F5AH   000023H   BYTE   UNIT     CODE           ?PR?PORT_INIT?MAIN
005F5BH   005F7CH   000022H   BYTE   UNIT     CODE           ?PR?_EEPROM_READ_BYTE?EEPROM
005F7DH   005F9EH   000022H   BYTE   UNIT     CODE           ?PR?_RTC_READ_BYTE?MCP79411
005F9FH   005FBCH   00001EH   BYTE   UNIT     CODE           ?PR?EEPROM_INIT?EEPROM
005FBDH   005FDAH   00001EH   BYTE   UNIT     CODE           ?PR?_EEPROM_WRITE_BYTE?EEPROM
005FDBH   005FF8H   00001EH   BYTE   UNIT     CODE           ?PR?_RTC_WRITE_BYTE?MCP79411
005FF9H   006014H   00001CH   BYTE   UNIT     CODE           ?PR?AD3421_INIT?AD3421
006015H   006030H   00001CH   BYTE   UNIT     CODE           ?PR?_EEPROM_READ_WORD?EEPROM
006031H   00604BH   00001BH   BYTE   UNIT     CODE           ?PR?_DELAY?MAIN
00604CH   006065H   00001AH   BYTE   UNIT     CODE           ?PR?INITUART?MAIN
006066H   00607FH   00001AH   BYTE   UNIT     CODE           ?PR?LED_FILL?LED
006080H   006097H   000018H   BYTE   UNIT     CODE           ?PR?GET_AD3421_VALUE?AD3421
006098H   0060AEH   000017H   BYTE   UNIT     CODE           ?PR?_EEPROM_DELAY?EEPROM
0060AFH   0060C2H   000014H   BYTE   UNIT     CODE           ?PR?EEPROM_RESTART0?EEPROM
0060C3H   0060D4H   000012H   BYTE   UNIT     CODE           ?PR?_BUZZER?MAIN
0060D5H   0060E6H   000012H   BYTE   UNIT     CODE           ?PR?AD3421_START?AD3421
0060E7H   0060F8H   000012H   BYTE   UNIT     CODE           ?PR?DAC6571MV_START?DAC6571_MV
0060F9H   00610AH   000012H   BYTE   UNIT     CODE           ?PR?DAC6571MA_START?DAC6571_MA
00610BH   00611BH   000011H   BYTE   UNIT     CODE           ?PR?_EEPROM_WRITE_WORD?EEPROM
00611CH   00612CH   000011H   BYTE   UNIT     CODE           ?PR?_RTC_DELAY?MCP79411
00612DH   00613CH   000010H   BYTE   UNIT     CODE           ?PR?T0_INIT?MAIN
00613DH   00614CH   000010H   BYTE   UNIT     CODE           ?PR?T1_INIT?MAIN
00614DH   00615CH   000010H   BYTE   UNIT     CODE           ?PR?SERIAL?MAIN
00615DH   00616BH   00000FH   BYTE   UNIT     CODE           ?PR?EEPROM_START0?EEPROM
00616CH   00617AH   00000FH   BYTE   UNIT     CODE           ?PR?EEPROM_STOP0?EEPROM
00617BH   006189H   00000FH   BYTE   UNIT     CODE           ?PR?RTC_START0?MCP79411
00618AH   006197H   00000EH   BYTE   UNIT     CODE           ?PR?RTC_BITDLY?MCP79411
006198H   0061A2H   00000BH   BYTE   UNIT     CODE           ?PR?_AD3421_WRITE_COM?AD3421
0061A3H   0061ACH   00000AH   BYTE   UNIT     CODE           ?PR?AD3421_STOP?AD3421
0061ADH   0061B6H   00000AH   BYTE   UNIT     CODE           ?PR?DAC6571MV_STOP?DAC6571_MV
0061B7H   0061C0H   00000AH   BYTE   UNIT     CODE           ?PR?DAC6571MA_STOP?DAC6571_MA
0061C1H   0061CAH   00000AH   BYTE   UNIT     CODE           ?PR?RTC_STOP0?MCP79411
0061CBH   0061D1H   000007H   BYTE   UNIT     CODE           ?PR?_BITDLY?LED
0061D2H   0061D8H   000007H   BYTE   UNIT     CODE           ?PR?AD_BITDLY?AD3421
0061D9H   0061DFH   000007H   BYTE   UNIT     CODE           ?PR?EEPROM_BITDLY?EEPROM
0061E0H   0061E6H   000007H   BYTE   UNIT     CODE           ?PR?_MVBITDLY?DAC6571_MV
0061E7H   0061EDH   000007H   BYTE   UNIT     CODE           ?PR?_MABITDLY?DAC6571_MA
0061EEH   006220H   000033H   BYTE   UNIT     CONST          ?CO?LED

* * * * * * * * * * *  X D A T A   M E M O R Y  * * * * * * * * * * * * *
000000H   000051H   000052H   BYTE   UNIT     XDATA          ?XD?TYPE_SLOPE

* * * * * * * * *   R E M O V E D     S E G M E N T S   * * * * * * * *
   *DEL*:           000010H   BYTE   UNIT     CODE           ?PR?T2_INIT?MAIN
   *DEL*:           00000BH   BYTE   UNIT     CODE           ?PR?INT0_INIT?MAIN
   *DEL*:           000001H   BYTE   UNIT     CODE           ?PR?VOLT_CTRL?MAIN
LX51 LINKER/LOCATER V4.47a                                                            02/02/2015  10:52:25  PAGE 4


   *DEL*:           00003EH   BYTE   UNIT     CODE           ?PR?RTC_WRITE_SET?MAIN
   *DEL*:           00004FH   BYTE   UNIT     CODE           ?PR?_DAY_LED_DISP?LED
   *DEL*:           000003H   BYTE   UNIT     DATA           ?DT?_DAY_LED_DISP?LED
   *DEL*:           000008H   BYTE   UNIT     CODE           ?PR?LED_CLS?LED
   *DEL*:           000026H   BYTE   UNIT     CODE           ?PR?DAC6571MV_INIT?DAC6571_MV
   *DEL*:           00000BH   BYTE   UNIT     CODE           ?PR?_MV_DELAY?DAC6571_MV
   *DEL*:           000026H   BYTE   UNIT     CODE           ?PR?DAC6571MA_INIT?DAC6571_MA
   *DEL*:           00000BH   BYTE   UNIT     CODE           ?PR?_MA_DELAY?DAC6571_MA
   *DEL*:           00001EH   BYTE   UNIT     CODE           ?PR?RTC_INIT?MCP79411



OVERLAY MAP OF MODULE:   TC_P1 (MAIN)


FUNCTION/MODULE                        BIT_GROUP   DATA_GROUP   IDATA_GROUP
--> CALLED FUNCTION/MODULE            START  STOP  START  STOP  START  STOP
===========================================================================
EX_INT0/MAIN                          ----- -----  ----- -----  ----- -----

*** NEW ROOT ************************

TIME0/MAIN                            ----- -----  005FH 0060H  ----- -----

*** NEW ROOT ************************

TIME1/MAIN                            ----- -----  ----- -----  ----- -----

*** NEW ROOT ************************

SERIAL/MAIN                           ----- -----  ----- -----  ----- -----

*** NEW ROOT ************************

?C_C51STARTUP                         ----- -----  ----- -----  ----- -----
  +--> MAIN/MAIN
  +--> ?C_INITSEG

MAIN/MAIN                             ----- -----  ----- -----  ----- -----
  +--> PORT_INIT/MAIN
  +--> EEPROM_INIT/EEPROM
  +--> LED_INIT/LED
  +--> T0_INIT/MAIN
  +--> T1_INIT/MAIN
  +--> AD3421_INIT/AD3421
  +--> INITUART/MAIN
  +--> _SET_MA/DAC6571_MA
  +--> LED_FILL/LED
  +--> _SET_MV/DAC6571_MV
  +--> _BUZZER/MAIN
  +--> _EEPROM_READ_BYTE/EEPROM
  +--> _EEPROM_WRITE_BYTE/EEPROM
  +--> RTC_ON/MAIN
  +--> EEPROM_WRITEDEFAULT/MAIN
  +--> _EEPROM_READ_WORD/EEPROM
  +--> CHECK_PCB/MAIN
  +--> DO_TC_TYPE/MAIN
  +--> DO_RTD_TYPE/MAIN
  +--> DO_MV_TYPE/MAIN
  +--> DO_MA_TYPE/MAIN
  +--> DO_SETUP_TYPE/MAIN
  +--> DO_RESET_TYPE/MAIN

PORT_INIT/MAIN                        ----- -----  ----- -----  ----- -----

LX51 LINKER/LOCATER V4.47a                                                            02/02/2015  10:52:25  PAGE 5


EEPROM_INIT/EEPROM                    ----- -----  ----- -----  ----- -----
  +--> EEPROM_BITDLY/EEPROM

EEPROM_BITDLY/EEPROM                  ----- -----  ----- -----  ----- -----

LED_INIT/LED                          ----- -----  ----- -----  ----- -----
  +--> _BITDLY/LED

_BITDLY/LED                           ----- -----  ----- -----  ----- -----

T0_INIT/MAIN                          ----- -----  ----- -----  ----- -----

T1_INIT/MAIN                          ----- -----  ----- -----  ----- -----

AD3421_INIT/AD3421                    ----- -----  ----- -----  ----- -----
  +--> AD_BITDLY/AD3421

AD_BITDLY/AD3421                      ----- -----  ----- -----  ----- -----

INITUART/MAIN                         ----- -----  ----- -----  ----- -----

_SET_MA/DAC6571_MA                    ----- -----  ----- -----  ----- -----
  +--> DAC6571MA_START/DAC6571_MA
  +--> _DAC6571MA_WRITE_BYTE/DAC6571_MA
  +--> DAC6571MA_STOP/DAC6571_MA

DAC6571MA_START/DAC6571_MA            ----- -----  ----- -----  ----- -----
  +--> _MABITDLY/DAC6571_MA

_MABITDLY/DAC6571_MA                  ----- -----  ----- -----  ----- -----

_DAC6571MA_WRITE_BYTE/DAC6571_MA      ----- -----  ----- -----  0010H 0010H
  +--> _MABITDLY/DAC6571_MA

DAC6571MA_STOP/DAC6571_MA             ----- -----  ----- -----  ----- -----
  +--> _MABITDLY/DAC6571_MA

LED_FILL/LED                          ----- -----  0061H 0062H  ----- -----
  +--> ?CO?LED
  +--> _LED_DATA_WRITE/LED

?CO?LED                               ----- -----  ----- -----  ----- -----

_LED_DATA_WRITE/LED                   ----- -----  0078H 007EH  ----- -----
  +--> _BITDLY/LED

_SET_MV/DAC6571_MV                    ----- -----  ----- -----  ----- -----
  +--> DAC6571MV_START/DAC6571_MV
  +--> _DAC6571MV_WRITE_BYTE/DAC6571_MV
  +--> DAC6571MV_STOP/DAC6571_MV

DAC6571MV_START/DAC6571_MV            ----- -----  ----- -----  ----- -----
  +--> _MVBITDLY/DAC6571_MV

_MVBITDLY/DAC6571_MV                  ----- -----  ----- -----  ----- -----

_DAC6571MV_WRITE_BYTE/DAC6571_MV      ----- -----  ----- -----  0010H 0010H
  +--> _MVBITDLY/DAC6571_MV

DAC6571MV_STOP/DAC6571_MV             ----- -----  ----- -----  ----- -----
  +--> _MVBITDLY/DAC6571_MV

_BUZZER/MAIN                          ----- -----  ----- -----  ----- -----

_EEPROM_READ_BYTE/EEPROM              ----- -----  ----- -----  ----- -----
LX51 LINKER/LOCATER V4.47a                                                            02/02/2015  10:52:25  PAGE 6


  +--> EEPROM_START0/EEPROM
  +--> _EEPROM_WRITE_BYTE0/EEPROM
  +--> EEPROM_RESTART0/EEPROM
  +--> EEPROM_READ_BYTE0/EEPROM
  +--> EEPROM_STOP0/EEPROM

EEPROM_START0/EEPROM                  ----- -----  ----- -----  ----- -----
  +--> EEPROM_BITDLY/EEPROM

_EEPROM_WRITE_BYTE0/EEPROM            ----- -----  ----- -----  0010H 0010H
  +--> EEPROM_BITDLY/EEPROM

EEPROM_RESTART0/EEPROM                ----- -----  ----- -----  ----- -----
  +--> EEPROM_BITDLY/EEPROM

EEPROM_READ_BYTE0/EEPROM              ----- -----  ----- -----  0010H 0011H
  +--> EEPROM_BITDLY/EEPROM

EEPROM_STOP0/EEPROM                   ----- -----  ----- -----  ----- -----
  +--> EEPROM_BITDLY/EEPROM

_EEPROM_WRITE_BYTE/EEPROM             ----- -----  ----- -----  ----- -----
  +--> EEPROM_START0/EEPROM
  +--> _EEPROM_WRITE_BYTE0/EEPROM
  +--> EEPROM_STOP0/EEPROM
  +--> _EEPROM_DELAY/EEPROM

_EEPROM_DELAY/EEPROM                  ----- -----  ----- -----  ----- -----

RTC_ON/MAIN                           ----- -----  ----- -----  ----- -----
  +--> _RTC_READ_BYTE/MCP79411
  +--> _RTC_WRITE_BYTE/MCP79411

_RTC_READ_BYTE/MCP79411               ----- -----  ----- -----  ----- -----
  +--> RTC_START0/MCP79411
  +--> _RTC_WRITE_BYTE0/MCP79411
  +--> RTC_RESTART0/MCP79411
  +--> RTC_READ_BYTE0/MCP79411
  +--> RTC_STOP0/MCP79411

RTC_START0/MCP79411                   ----- -----  ----- -----  ----- -----
  +--> RTC_BITDLY/MCP79411

RTC_BITDLY/MCP79411                   ----- -----  ----- -----  ----- -----

_RTC_WRITE_BYTE0/MCP79411             ----- -----  ----- -----  0010H 0010H
  +--> RTC_BITDLY/MCP79411

RTC_RESTART0/MCP79411                 ----- -----  ----- -----  ----- -----
  +--> RTC_BITDLY/MCP79411

RTC_READ_BYTE0/MCP79411               ----- -----  ----- -----  0010H 0011H
  +--> RTC_BITDLY/MCP79411

RTC_STOP0/MCP79411                    ----- -----  ----- -----  ----- -----
  +--> RTC_BITDLY/MCP79411

_RTC_WRITE_BYTE/MCP79411              ----- -----  ----- -----  ----- -----
  +--> RTC_START0/MCP79411
  +--> _RTC_WRITE_BYTE0/MCP79411
  +--> RTC_STOP0/MCP79411
  +--> _RTC_DELAY/MCP79411

_RTC_DELAY/MCP79411                   ----- -----  ----- -----  ----- -----

LX51 LINKER/LOCATER V4.47a                                                            02/02/2015  10:52:25  PAGE 7


EEPROM_WRITEDEFAULT/MAIN              ----- -----  ----- -----  ----- -----
  +--> CHECK_PCB/MAIN
  +--> _EEPROM_WRITE_BYTE/EEPROM
  +--> _EEPROM_WRITE_WORD/EEPROM
  +--> RTC_ON/MAIN

CHECK_PCB/MAIN                        ----- -----  ----- -----  ----- -----

_EEPROM_WRITE_WORD/EEPROM             ----- -----  ----- -----  ----- -----
  +--> _EEPROM_WRITE_BYTE/EEPROM

_EEPROM_READ_WORD/EEPROM              ----- -----  ----- -----  ----- -----
  +--> _EEPROM_READ_BYTE/EEPROM

DO_TC_TYPE/MAIN                       ----- -----  0061H 0066H  ----- -----
  +--> GET_KEY/MAIN
  +--> TEMP_READ/MAIN
  +--> READ_AD3421_VALUE/MAIN
  +--> _GET_K_SLOPE/TYPE_SLOPE
  +--> _GET_J_SLOPE/TYPE_SLOPE
  +--> _GET_T_SLOPE/TYPE_SLOPE
  +--> _GET_E_SLOPE/TYPE_SLOPE
  +--> _GET_R_SLOPE/TYPE_SLOPE
  +--> _GET_S_SLOPE/TYPE_SLOPE
  +--> _TEMP_F_TO_C/MAIN
  +--> RTC_READ_SET/MAIN
  +--> _LED_DISP/LED
  +--> _SET_MV/DAC6571_MV
  +--> _SET_MA/DAC6571_MA

GET_KEY/MAIN                          ----- -----  ----- -----  ----- -----

TEMP_READ/MAIN                        ----- -----  ----- -----  ----- -----

READ_AD3421_VALUE/MAIN                ----- -----  006CH 006DH  ----- -----
  +--> GET_AD3421_VALUE/AD3421

GET_AD3421_VALUE/AD3421               ----- -----  ----- -----  0010H 0010H
  +--> AD3421_INIT/AD3421
  +--> _AD3421_WRITE_COM/AD3421
  +--> _AD3421_READ_COM/AD3421

_AD3421_WRITE_COM/AD3421              ----- -----  ----- -----  ----- -----
  +--> _AD3421_WRITE_BYTE/AD3421
  +--> AD3421_STOP/AD3421

_AD3421_WRITE_BYTE/AD3421             ----- -----  ----- -----  0011H 0011H
  +--> AD3421_START/AD3421
  +--> AD_BITDLY/AD3421

AD3421_START/AD3421                   ----- -----  ----- -----  ----- -----
  +--> AD_BITDLY/AD3421

AD3421_STOP/AD3421                    ----- -----  ----- -----  ----- -----
  +--> AD_BITDLY/AD3421

_AD3421_READ_COM/AD3421               ----- -----  ----- -----  ----- -----
  +--> _AD3421_WRITE_BYTE/AD3421
  +--> _AD3421_READ_BYTE/AD3421
  +--> AD3421_STOP/AD3421

_AD3421_READ_BYTE/AD3421              ----- -----  ----- -----  0011H 0012H
  +--> AD_BITDLY/AD3421

_GET_K_SLOPE/TYPE_SLOPE               ----- -----  0067H 006AH  ----- -----
LX51 LINKER/LOCATER V4.47a                                                            02/02/2015  10:52:25  PAGE 8



_GET_J_SLOPE/TYPE_SLOPE               ----- -----  0067H 006AH  ----- -----

_GET_T_SLOPE/TYPE_SLOPE               ----- -----  0067H 006CH  ----- -----

_GET_E_SLOPE/TYPE_SLOPE               ----- -----  0067H 006AH  ----- -----

_GET_R_SLOPE/TYPE_SLOPE               ----- -----  0067H 006AH  ----- -----

_GET_S_SLOPE/TYPE_SLOPE               ----- -----  0067H 006AH  ----- -----

_TEMP_F_TO_C/MAIN                     ----- -----  0067H 006AH  ----- -----

RTC_READ_SET/MAIN                     ----- -----  ----- -----  ----- -----
  +--> _RTC_READ_BYTE/MCP79411
  +--> _EEPROM_WRITE_BYTE/EEPROM

_LED_DISP/LED                         ----- -----  0067H 006EH  ----- -----
  +--> ?CO?LED
  +--> _LED_DATA_WRITE/LED

DO_RTD_TYPE/MAIN                      ----- -----  0061H 0062H  ----- -----
  +--> GET_KEY/MAIN
  +--> READ_AD3421_VALUE/MAIN
  +--> _GET_RTD_SLOPE/TYPE_SLOPE
  +--> _TEMP_F_TO_C/MAIN
  +--> _LED_DISP/LED
  +--> _SET_MV/DAC6571_MV
  +--> _SET_MA/DAC6571_MA
  +--> RTC_READ_SET/MAIN

_GET_RTD_SLOPE/TYPE_SLOPE             ----- -----  0063H 0068H  ----- -----

DO_MV_TYPE/MAIN                       ----- -----  0061H 0062H  ----- -----
  +--> GET_KEY/MAIN
  +--> READ_AD3421_VALUE/MAIN
  +--> _LED_DISP/LED
  +--> _SET_MV/DAC6571_MV
  +--> _SET_MA/DAC6571_MA
  +--> RTC_READ_SET/MAIN

DO_MA_TYPE/MAIN                       ----- -----  0061H 0062H  ----- -----
  +--> GET_KEY/MAIN
  +--> READ_AD3421_VALUE/MAIN
  +--> _LED_DISP/LED
  +--> _SET_MV/DAC6571_MV
  +--> _SET_MA/DAC6571_MA
  +--> RTC_READ_SET/MAIN

DO_SETUP_TYPE/MAIN                    ----- -----  0061H 006BH  ----- -----
  +--> _SETUP_LED_DISP/LED
  +--> TEMP_READ/MAIN
  +--> GET_KEY/MAIN
  +--> READ_AD3421_VALUE/MAIN
  +--> _EEPROM_WRITE_BYTE/EEPROM
  +--> _DELAY/MAIN
  +--> _EEPROM_WRITE_WORD/EEPROM
  +--> _RTC_WRITE_BYTE/MCP79411
  +--> CHECK_PCB/MAIN

_SETUP_LED_DISP/LED                   ----- -----  006CH 0077H  ----- -----
  +--> ?CO?LED
  +--> _LED_DATA_WRITE/LED

_DELAY/MAIN                           ----- -----  ----- -----  ----- -----
LX51 LINKER/LOCATER V4.47a                                                            02/02/2015  10:52:25  PAGE 9



DO_RESET_TYPE/MAIN                    ----- -----  ----- -----  ----- -----
  +--> EEPROM_WRITEDEFAULT/MAIN
  +--> LED_FILL/LED
  +--> _EEPROM_READ_BYTE/EEPROM
  +--> _EEPROM_READ_WORD/EEPROM

?C_INITSEG                            ----- -----  ----- -----  ----- -----



PUBLIC SYMBOLS OF MODULE:  TC_P1 (MAIN)


      VALUE       CLASS    TYPE      PUBLIC SYMBOL NAME
      =================================================
      00000078H   DATA     BYTE      ?_LED_DATA_Write?BYTE
      01003791H   CODE     ---       ?C?CASTF
      00000000H   NUMBER   ---       ?C?CODESEG
      0100375DH   CODE     ---       ?C?FCASTC
      01003758H   CODE     ---       ?C?FCASTI
      01003753H   CODE     ---       ?C?FCASTL
      01003443H   CODE     ---       ?C?FPADD
      010036DCH   CODE     ---       ?C?FPCMP
      010036DAH   CODE     ---       ?C?FPCMP3
      0100363DH   CODE     ---       ?C?FPDIV
      010037C8H   CODE     ---       ?C?FPGETOPN2
      01003534H   CODE     ---       ?C?FPMUL
      010037FDH   CODE     ---       ?C?FPNANRESULT
      01003807H   CODE     ---       ?C?FPOVERFLOW
      010037DFH   CODE     ---       ?C?FPRESULT
      010037F3H   CODE     ---       ?C?FPRESULT2
      0100343FH   CODE     ---       ?C?FPSUB
      01003804H   CODE     ---       ?C?FPUNDERFLOW
      01003812H   CODE     ---       ?C?IMUL
      01003879H   CODE     ---       ?C?LNEG
      01003887H   CODE     ---       ?C?SLCMP
      01005C37H   CODE     ---       ?C?SLDIV
      01003824H   CODE     ---       ?C?UIDIV
      010038D9H   CODE     ---       ?C?ULDIV
      00000000H   NUMBER   ---       ?C?XDATASEG
      010059DBH   CODE     ---       ?C_START
      01000000H   CODE     ---       ?C_STARTUP
      01005CBEH   CODE     ---       _AD3421_read_byte
      01005EE8H   CODE     ---       _AD3421_read_com
      01005C82H   CODE     ---       _AD3421_write_byte
      01006198H   CODE     ---       _AD3421_write_com
      010061CBH   CODE     ---       _BitDly
      010060C3H   CODE     ---       _Buzzer
      01005DB3H   CODE     ---       _DAC6571mA_write_byte
      01005D77H   CODE     ---       _DAC6571mV_write_byte
*DEL*:00000000H   CODE     ---       _DAY_LED_Disp
      01006035H   CODE     ---       _delay
      01006098H   CODE     ---       _EEPROM_Delay
      01005F5BH   CODE     ---       _EEPROM_read_byte
      01006015H   CODE     ---       _EEPROM_read_word
      01005FBDH   CODE     ---       _EEPROM_write_byte
      01005CFFH   CODE     ---       _EEPROM_write_byte0
      0100610BH   CODE     ---       _EEPROM_write_word
      01000FFDH   CODE     ---       _Get_E_Slope
      01003E08H   CODE     ---       _Get_J_Slope
      0100185FH   CODE     ---       _Get_K_Slope
      010045F2H   CODE     ---       _Get_R_Slope
      0100396BH   CODE     ---       _Get_RTD_Slope
      010042A3H   CODE     ---       _Get_S_Slope
LX51 LINKER/LOCATER V4.47a                                                            02/02/2015  10:52:25  PAGE 10


      01002ECCH   CODE     ---       _Get_T_Slope
      010056ABH   CODE     ---       _LED_DATA_Write
      01002057H   CODE     ---       _LED_Disp
      0000000EH   DATA     BYTE      _mA_ack
*DEL*:00000000H   CODE     ---       _mA_Delay
      010061E7H   CODE     ---       _mABitDly
      0000000DH   DATA     BYTE      _mV_ack
*DEL*:00000000H   CODE     ---       _mV_Delay
      010061E0H   CODE     ---       _mVBitDly
      0100611CH   CODE     ---       _RTC_Delay
      01005F7DH   CODE     ---       _RTC_read_byte
      01005FDBH   CODE     ---       _RTC_write_byte
      01005E2BH   CODE     ---       _RTC_write_byte0
      01005E61H   CODE     ---       _Set_mA
      01005F10H   CODE     ---       _Set_mV
      010027E7H   CODE     ---       _SETUP_LED_Disp
      0100582FH   CODE     ---       _TEMP_F_TO_C
*SFR* 000000D0H.6 DATA     BIT       AC
*SFR* 000000E0H   DATA     BYTE      ACC
      01005FF9H   CODE     ---       AD3421_Init
      010060D5H   CODE     ---       AD3421_start
      010061A3H   CODE     ---       AD3421_stop
      0000000BH   DATA     BYTE      ad_ack
      010061D2H   CODE     ---       AD_BitDly
      0000002DH   DATA     BYTE      AD_Hi
      00000033H   DATA     BYTE      AD_Lo
      00000021H   DATA     BYTE      AD_Mid
*SFR* 000000A0H.1 DATA     BIT       AD_SCL
*SFR* 000000A0H   DATA     BIT       AD_SDA
      00000056H   DATA     BYTE      AD_Status
*SFR* 000000C6H   DATA     BYTE      ADCH
*SFR* 000000BEH   DATA     BYTE      ADCL
*SFR* 000000C5H   DATA     BYTE      ADCON
*SFR* 000000C5H   DATA     BYTE      ADCTL
*SFR* 000000C6H   DATA     BYTE      ADCV
*SFR* 000000BEH   DATA     BYTE      ADCVL
      00000022H   DATA     BYTE      ADD_COD
*SFR* 00000090H   DATA     BIT       AIN0
*SFR* 00000090H.1 DATA     BIT       AIN1
*SFR* 00000090H.2 DATA     BIT       AIN2
*SFR* 00000090H.3 DATA     BIT       AIN3
*SFR* 00000090H.4 DATA     BIT       AIN4
*SFR* 00000090H.5 DATA     BIT       AIN5
*SFR* 00000090H.6 DATA     BIT       AIN6
*SFR* 00000090H.7 DATA     BIT       AIN7
      00000048H   DATA     WORD      alarm_Hi_set
      0000004AH   DATA     WORD      alarm_Low_set
*SFR* 000000E8H.6 DATA     BIT       ALE
*SFR* 000000A0H.2 DATA     BIT       ALL_SDA
*SFR* 000000ADH   DATA     BYTE      AUXIE
*SFR* 000000AEH   DATA     BYTE      AUXIP
*SFR* 000000AFH   DATA     BYTE      AUXIPH
*SFR* 0000008EH   DATA     BYTE      AUXR
*SFR* 0000008EH   DATA     BYTE      AUXR0
*SFR* 000000A2H   DATA     BYTE      AUXR1
*SFR* 000000A6H   DATA     BYTE      AUXR2
      00000008H   DATA     BYTE      AV_COD
*SFR* 000000F0H   DATA     BYTE      B
*SFR* 000000B0H.4 DATA     BIT       BEEP
*SFR* 000000B0H.4 DATA     BIT       BEEP_OUT
      00000057H   DATA     BYTE      C_F_Type
*SFR* 000000C8H.1 DATA     BIT       C_T2
      00000034H   DATA     BYTE      CAIT
*SFR* 000000FAH   DATA     BYTE      CCAP0H
*SFR* 000000EAH   DATA     BYTE      CCAP0L
LX51 LINKER/LOCATER V4.47a                                                            02/02/2015  10:52:25  PAGE 11


*SFR* 000000FBH   DATA     BYTE      CCAP1H
*SFR* 000000EBH   DATA     BYTE      CCAP1L
*SFR* 000000FCH   DATA     BYTE      CCAP2H
*SFR* 000000ECH   DATA     BYTE      CCAP2L
*SFR* 000000FDH   DATA     BYTE      CCAP3H
*SFR* 000000EDH   DATA     BYTE      CCAP3L
*SFR* 000000FEH   DATA     BYTE      CCAP4H
*SFR* 000000EEH   DATA     BYTE      CCAP4L
*SFR* 000000FFH   DATA     BYTE      CCAP5H
*SFR* 000000EFH   DATA     BYTE      CCAP5L
*SFR* 000000DAH   DATA     BYTE      CCAPM0
*SFR* 000000DBH   DATA     BYTE      CCAPM1
*SFR* 000000DCH   DATA     BYTE      CCAPM2
*SFR* 000000DDH   DATA     BYTE      CCAPM3
*SFR* 000000DEH   DATA     BYTE      CCAPM4
*SFR* 000000DFH   DATA     BYTE      CCAPM5
*SFR* 000000D8H   DATA     BIT       CCF0
*SFR* 000000D8H.1 DATA     BIT       CCF1
*SFR* 000000D8H.2 DATA     BIT       CCF2
*SFR* 000000D8H.3 DATA     BIT       CCF3
*SFR* 000000D8H.4 DATA     BIT       CCF4
*SFR* 000000D8H.5 DATA     BIT       CCF5
*SFR* 000000D8H   DATA     BYTE      CCON
*SFR* 00000090H.2 DATA     BIT       CEX0
*SFR* 00000090H.3 DATA     BIT       CEX1
*SFR* 00000090H.4 DATA     BIT       CEX2
*SFR* 00000090H.5 DATA     BIT       CEX3
*SFR* 00000090H.6 DATA     BIT       CEX4
*SFR* 00000090H.7 DATA     BIT       CEX5
*SFR* 000000D8H.7 DATA     BIT       CF
*SFR* 000000F9H   DATA     BYTE      CH
      01005A20H   CODE     ---       Check_PCB
*SFR* 000000C8H   DATA     BIT       CKO
*SFR* 000000E9H   DATA     BYTE      CL
*SFR* 000000D9H   DATA     BYTE      CMOD
*SFR* 000000C8H   DATA     BIT       CP_RL2
*SFR* 000000D8H.6 DATA     BIT       CR
*SFR* 000000D0H.7 DATA     BIT       CY
*DEL*:00000000H   CODE     ---       DAC6571mA_Init
      010060F9H   CODE     ---       DAC6571mA_start
      010061B7H   CODE     ---       DAC6571mA_stop
*DEL*:00000000H   CODE     ---       DAC6571mV_Init
      010060E7H   CODE     ---       DAC6571mV_start
      010061ADH   CODE     ---       DAC6571mV_stop
      0000008BH   IDATA    ---       Data_Value
      00000037H   DATA     WORD      Disp_year
      01005223H   CODE     ---       DO_mA_TYPE
      010050BDH   CODE     ---       DO_mV_TYPE
      010054EBH   CODE     ---       DO_RESET_TYPE
      01005389H   CODE     ---       DO_RTD_TYPE
      01000026H   CODE     ---       DO_SETUP_TYPE
      01004940H   CODE     ---       DO_TC_TYPE
*SFR* 00000080H.7 DATA     BIT       DOWN_KEY
*SFR* 00000083H   DATA     BYTE      DPH
*SFR* 00000082H   DATA     BYTE      DPL
      02000000H   XDATA    ---       E_Slope
*SFR* 000000A8H.7 DATA     BIT       EA
*SFR* 00000090H.1 DATA     BIT       ECI
      00000041H   DATA     BYTE      eep_count
*SFR* 000000A0H.3 DATA     BIT       EEP_SCL
      0000000CH   DATA     BYTE      EEPROM_ack
      010061D9H   CODE     ---       EEPROM_BitDly
      01005F9FH   CODE     ---       EEPROM_Init
      01005D3BH   CODE     ---       EEPROM_read_byte0
      010060AFH   CODE     ---       EEPROM_restart0
LX51 LINKER/LOCATER V4.47a                                                            02/02/2015  10:52:25  PAGE 12


*SFR* 000000A0H.3 DATA     BIT       EEPROM_SCL
*SFR* 000000A0H.2 DATA     BIT       EEPROM_SDA
      0100615DH   CODE     ---       EEPROM_start0
      0100616CH   CODE     ---       EEPROM_stop0
      010055CDH   CODE     ---       EEPROM_WriteDefault
*SFR* 000000ADH   DATA     BYTE      EIE1
*SFR* 000000AFH   DATA     BYTE      EIP1H
*SFR* 000000AEH   DATA     BYTE      EIP1L
*SFR* 000000A8H.4 DATA     BIT       ES
*SFR* 000000A8H.4 DATA     BIT       ES0
*SFR* 000000A8H.1 DATA     BIT       ET0
*SFR* 000000A8H.3 DATA     BIT       ET1
*SFR* 000000A8H.5 DATA     BIT       ET2
*SFR* 00000097H   DATA     BYTE      EVRCR
*SFR* 000000A8H   DATA     BIT       EX0
*SFR* 000000A8H.2 DATA     BIT       EX1
*SFR* 000000C0H.2 DATA     BIT       EX2
*SFR* 000000C0H.6 DATA     BIT       EX3
      01000006H   CODE     ---       ex_int0
*SFR* 000000C8H.3 DATA     BIT       EXEN2
*SFR* 000000C8H.6 DATA     BIT       EXF2
*SFR* 000000D0H.5 DATA     BIT       F0
*SFR* 000000D0H.1 DATA     BIT       F1
      00000020H.0 BIT      BIT       f_half_sec
*SFR* 00000098H.7 DATA     BIT       FE
      0000002CH   DATA     BYTE      Func_Type
*SFR* 000000B0H.2 DATA     BIT       FUNCTION_KEY
      01006080H   CODE     ---       Get_AD3421_Value
      01005B11H   CODE     ---       Get_Key
*SFR* 000000A8H.6 DATA     BIT       GF4
*SFR* 000000A8H   DATA     BYTE      IE
*SFR* 00000088H.1 DATA     BIT       IE0
*SFR* 00000088H.3 DATA     BIT       IE1
*SFR* 000000C0H.1 DATA     BIT       IE2
*SFR* 000000C0H.5 DATA     BIT       IE3
*SFR* 000000E3H   DATA     BYTE      IFADRH
*SFR* 000000E4H   DATA     BYTE      IFADRL
*SFR* 000000E2H   DATA     BYTE      IFD
*SFR* 000000E5H   DATA     BYTE      IFMT
      0100604CH   CODE     ---       InitUart
*SFR* 000000B0H.2 DATA     BIT       INT0
*DEL*:00000000H   CODE     ---       INT0_Init
*SFR* 000000B0H.3 DATA     BIT       INT1
*SFR* 000000E8H.3 DATA     BIT       INT2
*SFR* 000000E8H.2 DATA     BIT       INT3
*SFR* 000000B8H   DATA     BYTE      IP
*SFR* 000000B7H   DATA     BYTE      IP0H
*SFR* 000000B8H   DATA     BYTE      IP0L
*SFR* 000000B7H   DATA     BYTE      IPH
*SFR* 000000E7H   DATA     BYTE      ISPCR
*SFR* 00000088H   DATA     BIT       IT0
*SFR* 00000088H.2 DATA     BIT       IT1
*SFR* 000000C0H   DATA     BIT       IT2
*SFR* 000000C0H.3 DATA     BIT       IT2H
*SFR* 000000C0H.4 DATA     BIT       IT3
*SFR* 000000C0H.7 DATA     BIT       IT3H
      0200000CH   XDATA    ---       J_Slope
      02000015H   XDATA    ---       K_Slope
*SFR* 000000D6H   DATA     BYTE      KBCON
*SFR* 000000A0H   DATA     BIT       KBI0
*SFR* 000000A0H.1 DATA     BIT       KBI1
*SFR* 000000A0H.2 DATA     BIT       KBI2
*SFR* 000000A0H.3 DATA     BIT       KBI3
*SFR* 000000A0H.4 DATA     BIT       KBI4
*SFR* 000000A0H.5 DATA     BIT       KBI5
LX51 LINKER/LOCATER V4.47a                                                            02/02/2015  10:52:25  PAGE 13


*SFR* 000000A0H.6 DATA     BIT       KBI6
*SFR* 000000A0H.7 DATA     BIT       KBI7
*SFR* 000000D7H   DATA     BYTE      KBMASK
*SFR* 000000D5H   DATA     BYTE      KBPATN
      00000043H   DATA     BYTE      key
      00000027H   DATA     BYTE      Key_backup
      0000004EH   DATA     BYTE      key_bak
*SFR* 00000090H.1 DATA     BIT       LED1_LE
*SFR* 00000090H.2 DATA     BIT       LED1_SCL
*SFR* 00000090H   DATA     BIT       LED1_SDA
*SFR* 00000090H.5 DATA     BIT       LED2_LE
*SFR* 00000090H.4 DATA     BIT       LED2_SCL
*SFR* 00000090H.3 DATA     BIT       LED2_SDA
*DEL*:00000000H   CODE     ---       LED_Cls
      01006066H   CODE     ---       LED_Fill
      01005EBFH   CODE     ---       LED_Init
*SFR* 00000080H.3 DATA     BIT       mA_C
*SFR* 00000080H.5 DATA     BIT       mA_OUT
*SFR* 000000A0H.4 DATA     BIT       mA_SCL
*SFR* 000000A0H.2 DATA     BIT       mA_SDA
      0000002AH   DATA     WORD      mA_Span_offset
      00000025H   DATA     WORD      mA_Span_Value
      00000031H   DATA     WORD      mA_Zero_offset
      01004C85H   CODE     ---       main
      0000003BH   DATA     BYTE      MAIN_SW
*SFR* 00000080H.2 DATA     BIT       mV_C
*SFR* 00000080H.4 DATA     BIT       mV_OUT
*SFR* 000000A0H.4 DATA     BIT       mV_SCL
*SFR* 000000A0H.2 DATA     BIT       mV_SDA
      00000035H   DATA     WORD      mV_Span_offset
      0000002EH   DATA     WORD      mV_Span_Value
      0000003CH   DATA     WORD      mV_Zero_offset
      00000052H   DATA     BYTE      n_code
      00000047H   DATA     BYTE      NG_COD
      0000000AH   DATA     BYTE      ng_flog
*SFR* 00000090H.7 DATA     BIT       non3
*SFR* 000000A0H.6 DATA     BIT       NONE_4
*SFR* 000000A0H.7 DATA     BIT       NONE_5
*SFR* 000000B0H.6 DATA     BIT       NONE_6
*SFR* 000000B0H.7 DATA     BIT       NONE_7
      00000050H   DATA     BYTE      NOW_COUNT
      00000009H   DATA     BYTE      NP_COD
*SFR* 000000B0H.3 DATA     BIT       OFFSET_KEY
*SFR* 000000A0H.4 DATA     BIT       OUT_SCL
*SFR* 000000D0H.2 DATA     BIT       OV
      0000005BH   DATA     BYTE      OVER_COD
*SFR* 000000D0H   DATA     BIT       P
*SFR* 00000080H   DATA     BYTE      P0
*SFR* 00000080H   DATA     BIT       P00
*SFR* 00000080H.1 DATA     BIT       P01
*SFR* 00000080H.2 DATA     BIT       P02
*SFR* 00000080H.3 DATA     BIT       P03
*SFR* 00000080H.4 DATA     BIT       P04
*SFR* 00000080H.5 DATA     BIT       P05
*SFR* 00000080H.6 DATA     BIT       P06
*SFR* 00000080H.7 DATA     BIT       P07
*SFR* 00000093H   DATA     BYTE      P0M0
*SFR* 00000094H   DATA     BYTE      P0M1
*SFR* 00000090H   DATA     BYTE      P1
*SFR* 00000090H   DATA     BIT       P10
*SFR* 00000090H.1 DATA     BIT       P11
*SFR* 00000090H.2 DATA     BIT       P12
*SFR* 00000090H.3 DATA     BIT       P13
*SFR* 00000090H.4 DATA     BIT       P14
*SFR* 00000090H.5 DATA     BIT       P15
LX51 LINKER/LOCATER V4.47a                                                            02/02/2015  10:52:25  PAGE 14


*SFR* 00000090H.6 DATA     BIT       P16
*SFR* 00000090H.7 DATA     BIT       P17
*SFR* 00000091H   DATA     BYTE      P1M0
*SFR* 00000092H   DATA     BYTE      P1M1
*SFR* 000000A0H   DATA     BYTE      P2
*SFR* 000000A0H   DATA     BIT       P20
*SFR* 000000A0H.1 DATA     BIT       P21
*SFR* 000000A0H.2 DATA     BIT       P22
*SFR* 000000A0H.3 DATA     BIT       P23
*SFR* 000000A0H.4 DATA     BIT       P24
*SFR* 000000A0H.5 DATA     BIT       P25
*SFR* 000000A0H.6 DATA     BIT       P26
*SFR* 000000A0H.7 DATA     BIT       P27
*SFR* 00000095H   DATA     BYTE      P2M0
*SFR* 00000096H   DATA     BYTE      P2M1
*SFR* 000000B0H   DATA     BYTE      P3
*SFR* 000000B0H   DATA     BIT       P30
*SFR* 000000B0H.1 DATA     BIT       P31
*SFR* 000000B0H.2 DATA     BIT       P32
*SFR* 000000B0H.3 DATA     BIT       P33
*SFR* 000000B0H.4 DATA     BIT       P34
*SFR* 000000B0H.5 DATA     BIT       P35
*SFR* 000000B0H.6 DATA     BIT       P36
*SFR* 000000B0H.7 DATA     BIT       P37
*SFR* 000000B1H   DATA     BYTE      P3M0
*SFR* 000000B2H   DATA     BYTE      P3M1
*SFR* 000000E8H   DATA     BYTE      P4
*SFR* 000000E8H   DATA     BIT       P40
*SFR* 000000E8H.1 DATA     BIT       P41
*SFR* 000000E8H.2 DATA     BIT       P42
*SFR* 000000E8H.3 DATA     BIT       P43
*SFR* 000000E8H.4 DATA     BIT       P44
*SFR* 000000E8H.5 DATA     BIT       P45
*SFR* 000000E8H.6 DATA     BIT       P46
*SFR* 000000E8H.7 DATA     BIT       P47
*SFR* 000000B3H   DATA     BYTE      P4M0
*SFR* 000000B4H   DATA     BYTE      P4M1
*SFR* 000000F8H   DATA     BYTE      P5
*SFR* 000000F8H   DATA     BIT       P50
*SFR* 000000F8H.1 DATA     BIT       P51
*SFR* 000000F8H.2 DATA     BIT       P52
*SFR* 000000F8H.3 DATA     BIT       P53
*SFR* 000000B5H   DATA     BYTE      P5M0
*SFR* 000000B6H   DATA     BYTE      P5M1
*SFR* 000000C8H   DATA     BYTE      P6
*SFR* 000000C8H   DATA     BIT       P60
*SFR* 000000C8H.1 DATA     BIT       P61
*SFR* 000000F2H   DATA     BYTE      PCAPWM0
*SFR* 000000F3H   DATA     BYTE      PCAPWM1
*SFR* 000000F4H   DATA     BYTE      PCAPWM2
*SFR* 000000F5H   DATA     BYTE      PCAPWM3
*SFR* 000000F6H   DATA     BYTE      PCAPWM4
*SFR* 000000F7H   DATA     BYTE      PCAPWM5
      00000042H   DATA     BYTE      PCB_SETUP
*SFR* 00000087H   DATA     BYTE      PCON
*SFR* 00000087H   DATA     BYTE      PCON0
*SFR* 00000097H   DATA     BYTE      PCON1
*SFR* 000000C7H   DATA     BYTE      PCON2
      0100620AH   CONST    ---       Point_tab_LED
      01005F38H   CODE     ---       PORT_Init
*SFR* 000000B8H.4 DATA     BIT       PS
*SFR* 000000B8H.4 DATA     BIT       PSL
*SFR* 000000D0H   DATA     BYTE      PSW
*SFR* 000000B8H.1 DATA     BIT       PT0
*SFR* 000000B8H.1 DATA     BIT       PT0L
LX51 LINKER/LOCATER V4.47a                                                            02/02/2015  10:52:25  PAGE 15


*SFR* 000000B8H.3 DATA     BIT       PT1
*SFR* 000000B8H.3 DATA     BIT       PT1L
*SFR* 000000B8H.5 DATA     BIT       PT2
*SFR* 000000B8H.5 DATA     BIT       PT2L
*SFR* 000000B8H   DATA     BIT       PX0
*SFR* 000000B8H   DATA     BIT       PX0L
*SFR* 000000B8H.2 DATA     BIT       PX1
*SFR* 000000B8H.2 DATA     BIT       PX1L
*SFR* 000000C0H.3 DATA     BIT       PX2
*SFR* 000000B8H.6 DATA     BIT       PX2L
*SFR* 000000C0H.7 DATA     BIT       PX3
*SFR* 000000B8H.7 DATA     BIT       PX3L
*SFR* 000000B0H.5 DATA     BIT       R485_DE_RE
*SFR* 000000B0H   DATA     BIT       R485_RX
*SFR* 000000B0H.1 DATA     BIT       R485_TX
      02000020H   XDATA    ---       R_Slope
*SFR* 00000098H.2 DATA     BIT       RB8
*SFR* 00000098H.2 DATA     BIT       RB80
*SFR* 00000098H.2 DATA     BIT       RB81
*SFR* 000000CBH   DATA     BYTE      RCAP2H
*SFR* 000000CAH   DATA     BYTE      RCAP2L
*SFR* 000000C8H.5 DATA     BIT       RCLK
*SFR* 000000B0H.7 DATA     BIT       RD
      010058E8H   CODE     ---       Read_AD3421_Value
      00000040H   DATA     BYTE      ReceiveDate
      00000020H.2 BIT      BIT       ReceiveFlag
*SFR* 00000098H.4 DATA     BIT       REN
*SFR* 00000098H.4 DATA     BIT       REN0
*SFR* 00000098H.4 DATA     BIT       REN1
*SFR* 00000098H   DATA     BIT       RI
*SFR* 00000098H   DATA     BIT       RI0
*SFR* 00000098H   DATA     BIT       RI1
*SFR* 000000D0H.3 DATA     BIT       RS0
*SFR* 000000D0H.4 DATA     BIT       RS1
      0000000FH   DATA     BYTE      RTC_ack
      01006191H   CODE     ---       RTC_BitDly
*DEL*:00000000H   CODE     ---       RTC_Init
      01005BE2H   CODE     ---       RTC_ON
      01005DEFH   CODE     ---       RTC_read_byte0
      01005AA0H   CODE     ---       RTC_READ_SET
      0100000EH   CODE     ---       RTC_restart0
*SFR* 00000090H.6 DATA     BIT       RTC_SCL
*SFR* 000000A0H.2 DATA     BIT       RTC_SDA
      0100617BH   CODE     ---       RTC_start0
      010061C1H   CODE     ---       RTC_stop0
*DEL*:00000000H   CODE     ---       RTC_WRITE_SET
*SFR* 00000080H.1 DATA     BIT       RTD_C
      0200004AH   XDATA    ---       RTD_Slope
      00000045H   DATA     WORD      RTD_Span_offset
      0000003EH   DATA     WORD      RTD_Span_Value
      0000004CH   DATA     WORD      RTD_Zero_offset
*SFR* 000000B0H   DATA     BIT       RXD
*SFR* 0000009AH   DATA     BYTE      S1BRT
*SFR* 0000009AH   DATA     BYTE      S2BUF
*SFR* 00000090H.2 DATA     BIT       S2RXD
*SFR* 00000090H.3 DATA     BIT       S2TXD
      02000030H   XDATA    ---       S_Slope
*SFR* 000000A9H   DATA     BYTE      SADDR
*SFR* 000000B9H   DATA     BYTE      SADEN
*SFR* 00000099H   DATA     BYTE      SBUF
*SFR* 00000099H   DATA     BYTE      SBUF0
*SFR* 00000099H   DATA     BYTE      SBUF1
*SFR* 0000009AH   DATA     BYTE      SCFG
*SFR* 000000E6H   DATA     BYTE      SCMD
*SFR* 00000098H   DATA     BYTE      SCON
LX51 LINKER/LOCATER V4.47a                                                            02/02/2015  10:52:25  PAGE 16


*SFR* 00000098H   DATA     BYTE      SCON0
*SFR* 00000098H   DATA     BYTE      SCON1
      0100614DH   CODE     ---       serial
*SFR* 000000ACH   DATA     BYTE      SFRPI
*SFR* 00000098H.7 DATA     BIT       SM0
*SFR* 00000098H.7 DATA     BIT       SM00
*SFR* 00000098H.7 DATA     BIT       SM01
*SFR* 00000098H.6 DATA     BIT       SM1
*SFR* 00000098H.6 DATA     BIT       SM10
*SFR* 00000098H.6 DATA     BIT       SM11
*SFR* 00000098H.5 DATA     BIT       SM2
*SFR* 00000098H.5 DATA     BIT       SM20
*SFR* 00000098H.5 DATA     BIT       SM21
      0000007FH   IDATA    ---       Soft_Timer
      0000003AH   DATA     BYTE      Soft_Timer_Enable
*SFR* 00000081H   DATA     BYTE      SP
*SFR* 00000085H   DATA     BYTE      SPCON
*SFR* 00000085H   DATA     BYTE      SPCTL
*SFR* 00000086H   DATA     BYTE      SPDAT
*SFR* 00000090H.7 DATA     BIT       SPI_CLK
*SFR* 00000090H.6 DATA     BIT       SPI_MISO
*SFR* 00000090H.5 DATA     BIT       SPI_MOSI
*SFR* 00000090H.4 DATA     BIT       SPI_SS
*SFR* 00000085H   DATA     BYTE      SPICON
*SFR* 00000085H   DATA     BYTE      SPICTL
*SFR* 00000086H   DATA     BYTE      SPIDAT
*SFR* 00000084H   DATA     BYTE      SPISTAT
*SFR* 00000084H   DATA     BYTE      SPSTAT
*SFR* 0000008FH   DATA     BYTE      STRETCH
*SFR* 000000B0H.4 DATA     BIT       T0
      00000088H   IDATA    BYTE      T0_cnt
      0100612DH   CODE     ---       T0_Init
*SFR* 000000B0H.4 DATA     BIT       T0CKO
*SFR* 000000B0H.5 DATA     BIT       T1
      00000089H   IDATA    BYTE      T1_cnt
      0100613DH   CODE     ---       T1_Init
*SFR* 000000B0H.5 DATA     BIT       T1CKO
*SFR* 00000090H   DATA     BIT       T2
      0000008AH   IDATA    BYTE      T2_cnt
*DEL*:00000000H   CODE     ---       T2_Init
*SFR* 000000C8H   DATA     BYTE      T2CON
*SFR* 00000090H.1 DATA     BIT       T2EX
*SFR* 000000C9H   DATA     BYTE      T2MOD
      02000040H   XDATA    ---       T_Slope
      010061EEH   CONST    ---       tab_LED
*SFR* 00000098H.3 DATA     BIT       TB8
*SFR* 00000098H.3 DATA     BIT       TB80
*SFR* 00000098H.3 DATA     BIT       TB81
*SFR* 00000080H   DATA     BIT       TC_C
      0000005CH   DATA     WORD      TC_Span_offset
      00000054H   DATA     WORD      TC_Span_Value
      00000030H   DATA     BYTE      TC_Type
      00000028H   DATA     WORD      TC_Zero_offset
*SFR* 000000C8H.4 DATA     BIT       TCLK
*SFR* 00000088H   DATA     BYTE      TCON
*SFR* 000000A0H.5 DATA     BIT       TEMP
      00000020H.3 BIT      BIT       Temp_Flag
      00000023H   DATA     WORD      Temp_offset
      01004EE3H   CODE     ---       Temp_Read
*SFR* 00000088H.5 DATA     BIT       TF0
*SFR* 00000088H.7 DATA     BIT       TF1
*SFR* 000000C8H.7 DATA     BIT       TF2
*SFR* 0000008CH   DATA     BYTE      TH0
*SFR* 0000008DH   DATA     BYTE      TH1
*SFR* 000000CDH   DATA     BYTE      TH2
LX51 LINKER/LOCATER V4.47a                                                            02/02/2015  10:52:25  PAGE 17


*SFR* 00000098H.1 DATA     BIT       TI
*SFR* 00000098H.1 DATA     BIT       TI0
*SFR* 00000098H.1 DATA     BIT       TI1
      01005E93H   CODE     ---       time0
      01005B7FH   CODE     ---       time1
*SFR* 0000008AH   DATA     BYTE      TL0
*SFR* 0000008BH   DATA     BYTE      TL1
*SFR* 000000CCH   DATA     BYTE      TL2
*SFR* 00000089H   DATA     BYTE      TMOD
*SFR* 00000088H.4 DATA     BIT       TR0
*SFR* 00000088H.6 DATA     BIT       TR1
*SFR* 000000C8H.2 DATA     BIT       TR2
      00000020H.1 BIT      BIT       tran
*SFR* 00000097H   DATA     BYTE      TSTWD
*SFR* 000000B0H.1 DATA     BIT       TXD
*SFR* 00000080H.6 DATA     BIT       UP_KEY
      00000058H   DATA     BYTE      use_day
      00000044H   DATA     BYTE      use_flag
      00000059H   DATA     BYTE      use_hour
      0000005AH   DATA     BYTE      use_min
      0000005EH   DATA     BYTE      use_mon
      00000053H   DATA     BYTE      use_sec
      0000004FH   DATA     BYTE      use_week
      00000051H   DATA     BYTE      use_year
*SFR* 000000A0H.1 DATA     BIT       Value_SCL
*SFR* 000000A0H   DATA     BIT       Value_SDA
*DEL*:00000000H   CODE     ---       Volt_Ctrl
*SFR* 000000E1H   DATA     BYTE      WDTCR
      00000039H   DATA     BYTE      Work_Type
*SFR* 000000B0H.6 DATA     BIT       WR
*SFR* 000000C0H   DATA     BYTE      XICON
*SFR* 000000C8H.1 DATA     BIT       XIN
*SFR* 000000C8H   DATA     BIT       XOUT



SYMBOL TABLE OF MODULE:  TC_P1 (MAIN)

      VALUE       REP       CLASS    TYPE      SYMBOL NAME
      ====================================================
      ---         MODULE    ---      ---       MAIN
      0000005EH   PUBLIC    DATA     BYTE      use_mon
      0000005CH   PUBLIC    DATA     WORD      TC_Span_offset
      0000005BH   PUBLIC    DATA     BYTE      OVER_COD
      0000005AH   PUBLIC    DATA     BYTE      use_min
      00000020H.3 PUBLIC    BIT      BIT       Temp_Flag
      00000059H   PUBLIC    DATA     BYTE      use_hour
      00000058H   PUBLIC    DATA     BYTE      use_day
      00000057H   PUBLIC    DATA     BYTE      C_F_Type
      00000056H   PUBLIC    DATA     BYTE      AD_Status
      00000054H   PUBLIC    DATA     WORD      TC_Span_Value
      00000053H   PUBLIC    DATA     BYTE      use_sec
      00000052H   PUBLIC    DATA     BYTE      n_code
      00000051H   PUBLIC    DATA     BYTE      use_year
      00000050H   PUBLIC    DATA     BYTE      NOW_COUNT
      0000004FH   PUBLIC    DATA     BYTE      use_week
      0000008BH   PUBLIC    IDATA    ---       Data_Value
      0000004EH   PUBLIC    DATA     BYTE      key_bak
      0000004CH   PUBLIC    DATA     WORD      RTD_Zero_offset
      0000004AH   PUBLIC    DATA     WORD      alarm_Low_set
      00000048H   PUBLIC    DATA     WORD      alarm_Hi_set
      00000047H   PUBLIC    DATA     BYTE      NG_COD
      00000045H   PUBLIC    DATA     WORD      RTD_Span_offset
      00000044H   PUBLIC    DATA     BYTE      use_flag
      00000043H   PUBLIC    DATA     BYTE      key
LX51 LINKER/LOCATER V4.47a                                                            02/02/2015  10:52:25  PAGE 18


      00000042H   PUBLIC    DATA     BYTE      PCB_SETUP
      00000041H   PUBLIC    DATA     BYTE      eep_count
      00000040H   PUBLIC    DATA     BYTE      ReceiveDate
      00000020H.2 PUBLIC    BIT      BIT       ReceiveFlag
      0000003EH   PUBLIC    DATA     WORD      RTD_Span_Value
      00000020H.1 PUBLIC    BIT      BIT       tran
      0000003CH   PUBLIC    DATA     WORD      mV_Zero_offset
      0000003BH   PUBLIC    DATA     BYTE      MAIN_SW
      0000003AH   PUBLIC    DATA     BYTE      Soft_Timer_Enable
      0000008AH   PUBLIC    IDATA    BYTE      T2_cnt
      00000089H   PUBLIC    IDATA    BYTE      T1_cnt
      00000088H   PUBLIC    IDATA    BYTE      T0_cnt
      00000039H   PUBLIC    DATA     BYTE      Work_Type
      00000037H   PUBLIC    DATA     WORD      Disp_year
      00000035H   PUBLIC    DATA     WORD      mV_Span_offset
      00000034H   PUBLIC    DATA     BYTE      CAIT
      00000033H   PUBLIC    DATA     BYTE      AD_Lo
      00000031H   PUBLIC    DATA     WORD      mA_Zero_offset
      00000030H   PUBLIC    DATA     BYTE      TC_Type
      0000002EH   PUBLIC    DATA     WORD      mV_Span_Value
      0000002DH   PUBLIC    DATA     BYTE      AD_Hi
      0000002CH   PUBLIC    DATA     BYTE      Func_Type
      0000002AH   PUBLIC    DATA     WORD      mA_Span_offset
      00000028H   PUBLIC    DATA     WORD      TC_Zero_offset
      00000027H   PUBLIC    DATA     BYTE      Key_backup
      00000025H   PUBLIC    DATA     WORD      mA_Span_Value
      00000023H   PUBLIC    DATA     WORD      Temp_offset
      0000007FH   PUBLIC    IDATA    ---       Soft_Timer
      00000022H   PUBLIC    DATA     BYTE      ADD_COD
      00000021H   PUBLIC    DATA     BYTE      AD_Mid
      00000020H.0 PUBLIC    BIT      BIT       f_half_sec
      01004C85H   PUBLIC    CODE     ---       main
      010054EBH   PUBLIC    CODE     ---       DO_RESET_TYPE
      010055CDH   PUBLIC    CODE     ---       EEPROM_WriteDefault
      01005AA0H   PUBLIC    CODE     ---       RTC_READ_SET
      01005BE2H   PUBLIC    CODE     ---       RTC_ON
      01000026H   PUBLIC    CODE     ---       DO_SETUP_TYPE
      010058E8H   PUBLIC    CODE     ---       Read_AD3421_Value
      01005223H   PUBLIC    CODE     ---       DO_mA_TYPE
      010050BDH   PUBLIC    CODE     ---       DO_mV_TYPE
      01005389H   PUBLIC    CODE     ---       DO_RTD_TYPE
      01004940H   PUBLIC    CODE     ---       DO_TC_TYPE
      01005B11H   PUBLIC    CODE     ---       Get_Key
      01004EE3H   PUBLIC    CODE     ---       Temp_Read
      0100582FH   PUBLIC    CODE     ---       _TEMP_F_TO_C
      01005A20H   PUBLIC    CODE     ---       Check_PCB
      010060C3H   PUBLIC    CODE     ---       _Buzzer
      01006035H   PUBLIC    CODE     ---       _delay
      0100614DH   PUBLIC    CODE     ---       serial
      0100604CH   PUBLIC    CODE     ---       InitUart
      0100613DH   PUBLIC    CODE     ---       T1_Init
      0100612DH   PUBLIC    CODE     ---       T0_Init
      01005B7FH   PUBLIC    CODE     ---       time1
      01005E93H   PUBLIC    CODE     ---       time0
      01000006H   PUBLIC    CODE     ---       ex_int0
      01005F38H   PUBLIC    CODE     ---       PORT_Init
      000000B0H   SFRSYM    DATA     BIT       R485_RX
      000000D8H.2 SFRSYM    DATA     BIT       CCF2
      00000098H.3 SFRSYM    DATA     BIT       TB80
      000000F6H   SFRSYM    DATA     BYTE      PCAPWM4
      00000091H   SFRSYM    DATA     BYTE      P1M0
      00000094H   SFRSYM    DATA     BYTE      P0M1
      00000090H.7 SFRSYM    DATA     BIT       non3
      000000D8H.3 SFRSYM    DATA     BIT       CCF3
      00000098H.3 SFRSYM    DATA     BIT       TB81
LX51 LINKER/LOCATER V4.47a                                                            02/02/2015  10:52:25  PAGE 19


      000000F7H   SFRSYM    DATA     BYTE      PCAPWM5
      00000095H   SFRSYM    DATA     BYTE      P2M0
      00000092H   SFRSYM    DATA     BYTE      P1M1
      00000080H   SFRSYM    DATA     BYTE      P0
      000000B0H.1 SFRSYM    DATA     BIT       R485_TX
      000000D8H.4 SFRSYM    DATA     BIT       CCF4
      00000098H.7 SFRSYM    DATA     BIT       SM00
      000000B1H   SFRSYM    DATA     BYTE      P3M0
      00000096H   SFRSYM    DATA     BYTE      P2M1
      00000090H   SFRSYM    DATA     BYTE      P1
      000000D8H.5 SFRSYM    DATA     BIT       CCF5
      00000098H.7 SFRSYM    DATA     BIT       SM01
      00000098H.6 SFRSYM    DATA     BIT       SM10
      000000B3H   SFRSYM    DATA     BYTE      P4M0
      000000B2H   SFRSYM    DATA     BYTE      P3M1
      000000A0H   SFRSYM    DATA     BYTE      P2
      00000098H.6 SFRSYM    DATA     BIT       SM11
      00000098H.5 SFRSYM    DATA     BIT       SM20
      000000E7H   SFRSYM    DATA     BYTE      ISPCR
      000000B5H   SFRSYM    DATA     BYTE      P5M0
      000000B4H   SFRSYM    DATA     BYTE      P4M1
      000000B0H   SFRSYM    DATA     BYTE      P3
      000000C0H   SFRSYM    DATA     BYTE      XICON
      000000A0H.2 SFRSYM    DATA     BIT       EEPROM_SDA
      00000080H.7 SFRSYM    DATA     BIT       DOWN_KEY
      000000B0H.4 SFRSYM    DATA     BIT       T0
      00000098H.5 SFRSYM    DATA     BIT       SM21
      000000D0H.6 SFRSYM    DATA     BIT       AC
      00000097H   SFRSYM    DATA     BYTE      EVRCR
      000000B6H   SFRSYM    DATA     BYTE      P5M1
      000000E8H   SFRSYM    DATA     BYTE      P4
      000000B0H.5 SFRSYM    DATA     BIT       T1
      00000085H   SFRSYM    DATA     BYTE      SPCON
      000000F8H   SFRSYM    DATA     BYTE      P5
      000000ADH   SFRSYM    DATA     BYTE      EIE1
      00000090H   SFRSYM    DATA     BIT       T2
      000000A8H.7 SFRSYM    DATA     BIT       EA
      000000ACH   SFRSYM    DATA     BYTE      SFRPI
      000000E1H   SFRSYM    DATA     BYTE      WDTCR
      000000C8H   SFRSYM    DATA     BYTE      P6
      000000A0H.4 SFRSYM    DATA     BIT       mV_SCL
      000000A0H   SFRSYM    DATA     BIT       KBI0
      00000090H.5 SFRSYM    DATA     BIT       SPI_MOSI
      00000090H.6 SFRSYM    DATA     BIT       SPI_MISO
      00000080H.5 SFRSYM    DATA     BIT       mA_OUT
      000000A0H.1 SFRSYM    DATA     BIT       KBI1
      00000085H   SFRSYM    DATA     BYTE      SPCTL
      000000A0H.2 SFRSYM    DATA     BIT       KBI2
      00000090H   SFRSYM    DATA     BIT       AIN0
      000000D8H.7 SFRSYM    DATA     BIT       CF
      000000AEH   SFRSYM    DATA     BYTE      AUXIP
      000000A0H.3 SFRSYM    DATA     BIT       KBI3
      00000090H.1 SFRSYM    DATA     BIT       AIN1
      000000A0H.4 SFRSYM    DATA     BIT       KBI4
      00000090H.2 SFRSYM    DATA     BIT       AIN2
      00000098H.7 SFRSYM    DATA     BIT       FE
      000000F9H   SFRSYM    DATA     BYTE      CH
      000000A0H.5 SFRSYM    DATA     BIT       KBI5
      00000090H.3 SFRSYM    DATA     BIT       AIN3
      000000A0H.6 SFRSYM    DATA     BIT       KBI6
      00000090H.4 SFRSYM    DATA     BIT       AIN4
      000000A0H.3 SFRSYM    DATA     BIT       EEPROM_SCL
      00000080H.1 SFRSYM    DATA     BIT       RTD_C
      000000A0H.7 SFRSYM    DATA     BIT       KBI7
      00000090H.5 SFRSYM    DATA     BIT       AIN5
LX51 LINKER/LOCATER V4.47a                                                            02/02/2015  10:52:25  PAGE 20


      000000A8H   SFRSYM    DATA     BYTE      IE
      00000090H.6 SFRSYM    DATA     BIT       AIN6
      000000E9H   SFRSYM    DATA     BYTE      CL
      00000090H.7 SFRSYM    DATA     BIT       AIN7
      00000090H.2 SFRSYM    DATA     BIT       CEX0
      000000FAH   SFRSYM    DATA     BYTE      CCAP0H
      000000C6H   SFRSYM    DATA     BYTE      ADCH
      00000090H.3 SFRSYM    DATA     BIT       CEX1
      000000FBH   SFRSYM    DATA     BYTE      CCAP1H
      000000B7H   SFRSYM    DATA     BYTE      IP0H
      000000A0H.2 SFRSYM    DATA     BIT       ALL_SDA
      00000090H.4 SFRSYM    DATA     BIT       CEX2
      000000FCH   SFRSYM    DATA     BYTE      CCAP2H
      000000B0H.3 SFRSYM    DATA     BIT       OFFSET_KEY
      00000090H.5 SFRSYM    DATA     BIT       CEX3
      000000FDH   SFRSYM    DATA     BYTE      CCAP3H
      00000090H.6 SFRSYM    DATA     BIT       CEX4
      000000D8H.6 SFRSYM    DATA     BIT       CR
      000000FEH   SFRSYM    DATA     BYTE      CCAP4H
      000000EAH   SFRSYM    DATA     BYTE      CCAP0L
      000000BEH   SFRSYM    DATA     BYTE      ADCL
      000000B0H.7 SFRSYM    DATA     BIT       RD
      00000090H.7 SFRSYM    DATA     BIT       CEX5
      000000C8H.6 SFRSYM    DATA     BIT       EXF2
      00000098H.4 SFRSYM    DATA     BIT       REN0
      000000FFH   SFRSYM    DATA     BYTE      CCAP5H
      000000EBH   SFRSYM    DATA     BYTE      CCAP1L
      000000DAH   SFRSYM    DATA     BYTE      CCAPM0
      000000B8H   SFRSYM    DATA     BYTE      IP0L
      00000098H.4 SFRSYM    DATA     BIT       REN1
      000000ECH   SFRSYM    DATA     BYTE      CCAP2L
      000000DBH   SFRSYM    DATA     BYTE      CCAPM1
      000000C0H.3 SFRSYM    DATA     BIT       IT2H
      000000A8H.4 SFRSYM    DATA     BIT       ES
      00000097H   SFRSYM    DATA     BYTE      TSTWD
      000000EDH   SFRSYM    DATA     BYTE      CCAP3L
      000000DCH   SFRSYM    DATA     BYTE      CCAPM2
      000000C0H.7 SFRSYM    DATA     BIT       IT3H
      000000EEH   SFRSYM    DATA     BYTE      CCAP4L
      000000DDH   SFRSYM    DATA     BYTE      CCAPM3
      000000B8H   SFRSYM    DATA     BYTE      IP
      000000EFH   SFRSYM    DATA     BYTE      CCAP5L
      000000DEH   SFRSYM    DATA     BYTE      CCAPM4
      00000098H   SFRSYM    DATA     BIT       RI
      000000DFH   SFRSYM    DATA     BYTE      CCAPM5
      000000B0H.2 SFRSYM    DATA     BIT       INT0
      000000D0H.7 SFRSYM    DATA     BIT       CY
      000000B0H.4 SFRSYM    DATA     BIT       BEEP
      00000080H.4 SFRSYM    DATA     BIT       mV_OUT
      000000B0H.3 SFRSYM    DATA     BIT       INT1
      00000098H.1 SFRSYM    DATA     BIT       TI
      000000A0H.3 SFRSYM    DATA     BIT       EEP_SCL
      000000E8H.3 SFRSYM    DATA     BIT       INT2
      000000E8H.2 SFRSYM    DATA     BIT       INT3
      000000C6H   SFRSYM    DATA     BYTE      ADCV
      0000008FH   SFRSYM    DATA     BYTE      STRETCH
      000000B8H.1 SFRSYM    DATA     BIT       PT0L
      000000B8H.3 SFRSYM    DATA     BIT       PT1L
      000000CBH   SFRSYM    DATA     BYTE      RCAP2H
      000000A0H.2 SFRSYM    DATA     BIT       RTC_SDA
      000000B8H.4 SFRSYM    DATA     BIT       PS
      000000B8H.5 SFRSYM    DATA     BIT       PT2L
      00000081H   SFRSYM    DATA     BYTE      SP
      00000090H.1 SFRSYM    DATA     BIT       T2EX
      000000D9H   SFRSYM    DATA     BYTE      CMOD
LX51 LINKER/LOCATER V4.47a                                                            02/02/2015  10:52:25  PAGE 21


      000000D8H   SFRSYM    DATA     BYTE      CCON
      0000009AH   SFRSYM    DATA     BYTE      SCFG
      000000B8H   SFRSYM    DATA     BIT       PX0L
      000000D0H.2 SFRSYM    DATA     BIT       OV
      000000B8H.2 SFRSYM    DATA     BIT       PX1L
      000000CAH   SFRSYM    DATA     BYTE      RCAP2L
      000000B8H.6 SFRSYM    DATA     BIT       PX2L
      00000090H.7 SFRSYM    DATA     BIT       SPI_CLK
      000000B8H.7 SFRSYM    DATA     BIT       PX3L
      000000E6H   SFRSYM    DATA     BYTE      SCMD
      000000B0H.6 SFRSYM    DATA     BIT       WR
      000000C8H.1 SFRSYM    DATA     BIT       C_T2
      00000084H   SFRSYM    DATA     BYTE      SPISTAT
      00000090H.6 SFRSYM    DATA     BIT       RTC_SCL
      000000C8H.5 SFRSYM    DATA     BIT       RCLK
      000000C8H.4 SFRSYM    DATA     BIT       TCLK
      00000080H   SFRSYM    DATA     BIT       P00
      000000E3H   SFRSYM    DATA     BYTE      IFADRH
      00000090H   SFRSYM    DATA     BIT       P10
      00000080H.1 SFRSYM    DATA     BIT       P01
      000000E5H   SFRSYM    DATA     BYTE      IFMT
      00000087H   SFRSYM    DATA     BYTE      PCON
      00000099H   SFRSYM    DATA     BYTE      SBUF
      000000A0H   SFRSYM    DATA     BIT       P20
      00000090H.1 SFRSYM    DATA     BIT       P11
      00000080H.2 SFRSYM    DATA     BIT       P02
      000000B0H   SFRSYM    DATA     BIT       P30
      000000A0H.1 SFRSYM    DATA     BIT       P21
      00000090H.2 SFRSYM    DATA     BIT       P12
      00000080H.3 SFRSYM    DATA     BIT       P03
      000000B0H.2 SFRSYM    DATA     BIT       FUNCTION_KEY
      000000E8H   SFRSYM    DATA     BIT       P40
      000000B0H.1 SFRSYM    DATA     BIT       P31
      000000A0H.2 SFRSYM    DATA     BIT       P22
      00000090H.3 SFRSYM    DATA     BIT       P13
      00000080H.4 SFRSYM    DATA     BIT       P04
      000000E4H   SFRSYM    DATA     BYTE      IFADRL
      00000098H   SFRSYM    DATA     BYTE      SCON
      000000F8H   SFRSYM    DATA     BIT       P50
      000000E8H.1 SFRSYM    DATA     BIT       P41
      000000B0H.2 SFRSYM    DATA     BIT       P32
      000000A0H.3 SFRSYM    DATA     BIT       P23
      00000090H.4 SFRSYM    DATA     BIT       P14
      00000080H.5 SFRSYM    DATA     BIT       P05
      00000089H   SFRSYM    DATA     BYTE      TMOD
      00000088H   SFRSYM    DATA     BYTE      TCON
      000000C8H   SFRSYM    DATA     BIT       P60
      000000F8H.1 SFRSYM    DATA     BIT       P51
      000000E8H.2 SFRSYM    DATA     BIT       P42
      000000B0H.3 SFRSYM    DATA     BIT       P33
      000000A0H.4 SFRSYM    DATA     BIT       P24
      00000090H.5 SFRSYM    DATA     BIT       P15
      00000080H.6 SFRSYM    DATA     BIT       P06
      000000A0H.5 SFRSYM    DATA     BIT       TEMP
      000000C8H.1 SFRSYM    DATA     BIT       P61
      000000F8H.2 SFRSYM    DATA     BIT       P52
      000000E8H.3 SFRSYM    DATA     BIT       P43
      000000B0H.4 SFRSYM    DATA     BIT       P34
      000000A0H.5 SFRSYM    DATA     BIT       P25
      00000090H.6 SFRSYM    DATA     BIT       P16
      00000080H.7 SFRSYM    DATA     BIT       P07
      000000F8H.3 SFRSYM    DATA     BIT       P53
      000000E8H.4 SFRSYM    DATA     BIT       P44
      000000B0H.5 SFRSYM    DATA     BIT       P35
      000000A0H.6 SFRSYM    DATA     BIT       P26
LX51 LINKER/LOCATER V4.47a                                                            02/02/2015  10:52:25  PAGE 22


      00000090H.7 SFRSYM    DATA     BIT       P17
      000000A0H   SFRSYM    DATA     BIT       Value_SDA
      000000E8H.5 SFRSYM    DATA     BIT       P45
      000000B0H.6 SFRSYM    DATA     BIT       P36
      000000A0H.7 SFRSYM    DATA     BIT       P27
      00000080H   SFRSYM    DATA     BIT       TC_C
      000000E8H.6 SFRSYM    DATA     BIT       P46
      000000B0H.7 SFRSYM    DATA     BIT       P37
      000000E8H.7 SFRSYM    DATA     BIT       P47
      000000D7H   SFRSYM    DATA     BYTE      KBMASK
      000000A0H.4 SFRSYM    DATA     BIT       OUT_SCL
      000000A0H   SFRSYM    DATA     BIT       AD_SDA
      00000088H.1 SFRSYM    DATA     BIT       IE0
      00000088H.3 SFRSYM    DATA     BIT       IE1
      00000090H   SFRSYM    DATA     BIT       LED1_SDA
      000000C0H.1 SFRSYM    DATA     BIT       IE2
      00000090H.3 SFRSYM    DATA     BIT       LED2_SDA
      000000C0H.5 SFRSYM    DATA     BIT       IE3
      000000A8H.6 SFRSYM    DATA     BIT       GF4
      0000008EH   SFRSYM    DATA     BYTE      AUXR
      000000F0H   SFRSYM    DATA     BYTE      B
      000000D5H   SFRSYM    DATA     BYTE      KBPATN
      000000A0H.1 SFRSYM    DATA     BIT       Value_SCL
      000000C8H   SFRSYM    DATA     BIT       CP_RL2
      000000A0H.6 SFRSYM    DATA     BIT       NONE_4
      000000A0H.7 SFRSYM    DATA     BIT       NONE_5
      000000B0H.6 SFRSYM    DATA     BIT       NONE_6
      00000086H   SFRSYM    DATA     BYTE      SPIDAT
      000000E0H   SFRSYM    DATA     BYTE      ACC
      000000B0H.7 SFRSYM    DATA     BIT       NONE_7
      000000A0H.1 SFRSYM    DATA     BIT       AD_SCL
      000000A8H.4 SFRSYM    DATA     BIT       ES0
      000000A8H.1 SFRSYM    DATA     BIT       ET0
      00000090H.2 SFRSYM    DATA     BIT       LED1_SCL
      00000088H.5 SFRSYM    DATA     BIT       TF0
      000000A8H.3 SFRSYM    DATA     BIT       ET1
      00000090H.4 SFRSYM    DATA     BIT       LED2_SCL
      00000088H.7 SFRSYM    DATA     BIT       TF1
      00000098H   SFRSYM    DATA     BIT       RI0
      000000A8H.5 SFRSYM    DATA     BIT       ET2
      000000C8H.7 SFRSYM    DATA     BIT       TF2
      00000098H   SFRSYM    DATA     BIT       RI1
      00000098H.2 SFRSYM    DATA     BIT       RB8
      0000008CH   SFRSYM    DATA     BYTE      TH0
      00000088H   SFRSYM    DATA     BIT       IT0
      00000098H.1 SFRSYM    DATA     BIT       TI0
      000000A8H   SFRSYM    DATA     BIT       EX0
      0000008DH   SFRSYM    DATA     BYTE      TH1
      00000088H.2 SFRSYM    DATA     BIT       IT1
      00000098H.1 SFRSYM    DATA     BIT       TI1
      00000098H.3 SFRSYM    DATA     BIT       TB8
      000000A8H.2 SFRSYM    DATA     BIT       EX1
      00000085H   SFRSYM    DATA     BYTE      SPICON
      000000CDH   SFRSYM    DATA     BYTE      TH2
      000000C0H   SFRSYM    DATA     BIT       IT2
      000000C0H.2 SFRSYM    DATA     BIT       EX2
      000000D0H   SFRSYM    DATA     BIT       P
      000000C0H.4 SFRSYM    DATA     BIT       IT3
      000000C0H.6 SFRSYM    DATA     BIT       EX3
      00000098H.7 SFRSYM    DATA     BIT       SM0
      0000008AH   SFRSYM    DATA     BYTE      TL0
      00000080H.3 SFRSYM    DATA     BIT       mA_C
      000000C8H   SFRSYM    DATA     BIT       XOUT
      00000090H.1 SFRSYM    DATA     BIT       ECI
      00000098H.6 SFRSYM    DATA     BIT       SM1
LX51 LINKER/LOCATER V4.47a                                                            02/02/2015  10:52:25  PAGE 23


      00000085H   SFRSYM    DATA     BYTE      SPICTL
      0000008BH   SFRSYM    DATA     BYTE      TL1
      000000AFH   SFRSYM    DATA     BYTE      AUXIPH
      000000E8H.6 SFRSYM    DATA     BIT       ALE
      00000098H.5 SFRSYM    DATA     BIT       SM2
      000000CCH   SFRSYM    DATA     BYTE      TL2
      000000E2H   SFRSYM    DATA     BYTE      IFD
      000000B8H.1 SFRSYM    DATA     BIT       PT0
      000000B0H.5 SFRSYM    DATA     BIT       R485_DE_RE
      000000B8H.3 SFRSYM    DATA     BIT       PT1
      000000D0H.3 SFRSYM    DATA     BIT       RS0
      00000088H.4 SFRSYM    DATA     BIT       TR0
      000000B8H.5 SFRSYM    DATA     BIT       PT2
      000000D0H.4 SFRSYM    DATA     BIT       RS1
      00000088H.6 SFRSYM    DATA     BIT       TR1
      000000C8H.2 SFRSYM    DATA     BIT       TR2
      000000B8H   SFRSYM    DATA     BIT       PX0
      000000AFH   SFRSYM    DATA     BYTE      EIP1H
      000000B8H.2 SFRSYM    DATA     BIT       PX1
      000000C0H.3 SFRSYM    DATA     BIT       PX2
      000000C0H.7 SFRSYM    DATA     BIT       PX3
      000000AEH   SFRSYM    DATA     BYTE      EIP1L
      00000083H   SFRSYM    DATA     BYTE      DPH
      000000C8H   SFRSYM    DATA     BIT       CKO
      00000082H   SFRSYM    DATA     BYTE      DPL
      00000087H   SFRSYM    DATA     BYTE      PCON0
      00000084H   SFRSYM    DATA     BYTE      SPSTAT
      00000099H   SFRSYM    DATA     BYTE      SBUF0
      000000B7H   SFRSYM    DATA     BYTE      IPH
      000000B0H.4 SFRSYM    DATA     BIT       T0CKO
      00000097H   SFRSYM    DATA     BYTE      PCON1
      00000099H   SFRSYM    DATA     BYTE      SBUF1
      000000B0H.5 SFRSYM    DATA     BIT       T1CKO
      000000C8H.3 SFRSYM    DATA     BIT       EXEN2
      000000C7H   SFRSYM    DATA     BYTE      PCON2
      0000009AH   SFRSYM    DATA     BYTE      S2BUF
      00000098H   SFRSYM    DATA     BYTE      SCON0
      00000098H.4 SFRSYM    DATA     BIT       REN
      00000098H   SFRSYM    DATA     BYTE      SCON1
      00000080H.2 SFRSYM    DATA     BIT       mV_C
      000000C5H   SFRSYM    DATA     BYTE      ADCON
      000000A0H.2 SFRSYM    DATA     BIT       mA_SDA
      000000C9H   SFRSYM    DATA     BYTE      T2MOD
      000000C8H   SFRSYM    DATA     BYTE      T2CON
      000000C5H   SFRSYM    DATA     BYTE      ADCTL
      000000BEH   SFRSYM    DATA     BYTE      ADCVL
      000000B9H   SFRSYM    DATA     BYTE      SADEN
      0000009AH   SFRSYM    DATA     BYTE      S1BRT
      000000B0H   SFRSYM    DATA     BIT       RXD
      000000D6H   SFRSYM    DATA     BYTE      KBCON
      00000080H.6 SFRSYM    DATA     BIT       UP_KEY
      000000C8H.1 SFRSYM    DATA     BIT       XIN
      000000B8H.4 SFRSYM    DATA     BIT       PSL
      000000A9H   SFRSYM    DATA     BYTE      SADDR
      000000B0H.1 SFRSYM    DATA     BIT       TXD
      000000A0H.4 SFRSYM    DATA     BIT       mA_SCL
      0000008EH   SFRSYM    DATA     BYTE      AUXR0
      000000A2H   SFRSYM    DATA     BYTE      AUXR1
      00000090H.4 SFRSYM    DATA     BIT       SPI_SS
      000000A6H   SFRSYM    DATA     BYTE      AUXR2
      00000090H.2 SFRSYM    DATA     BIT       S2RXD
      000000D0H.5 SFRSYM    DATA     BIT       F0
      000000B0H.4 SFRSYM    DATA     BIT       BEEP_OUT
      00000090H.3 SFRSYM    DATA     BIT       S2TXD
      000000D0H.1 SFRSYM    DATA     BIT       F1
LX51 LINKER/LOCATER V4.47a                                                            02/02/2015  10:52:25  PAGE 24


      00000090H.1 SFRSYM    DATA     BIT       LED1_LE
      00000090H.5 SFRSYM    DATA     BIT       LED2_LE
      000000F2H   SFRSYM    DATA     BYTE      PCAPWM0
      000000D0H   SFRSYM    DATA     BYTE      PSW
      000000F3H   SFRSYM    DATA     BYTE      PCAPWM1
      000000A0H.2 SFRSYM    DATA     BIT       mV_SDA
      000000D8H   SFRSYM    DATA     BIT       CCF0
      00000098H.2 SFRSYM    DATA     BIT       RB80
      000000F4H   SFRSYM    DATA     BYTE      PCAPWM2
      000000D8H.1 SFRSYM    DATA     BIT       CCF1
      00000098H.2 SFRSYM    DATA     BIT       RB81
      000000F5H   SFRSYM    DATA     BYTE      PCAPWM3
      00000086H   SFRSYM    DATA     BYTE      SPDAT
      00000093H   SFRSYM    DATA     BYTE      P0M0
      000000ADH   SFRSYM    DATA     BYTE      AUXIE

      01005F38H   BLOCK     CODE     ---       LVL=0
      01005F38H   LINE      CODE     ---       #185
      01005F38H   LINE      CODE     ---       #186
      01005F38H   LINE      CODE     ---       #187
      01005F3BH   LINE      CODE     ---       #188
      01005F3EH   LINE      CODE     ---       #189
      01005F41H   LINE      CODE     ---       #191
      01005F43H   LINE      CODE     ---       #192
      01005F46H   LINE      CODE     ---       #193
      01005F48H   LINE      CODE     ---       #195
      01005F4BH   LINE      CODE     ---       #196
      01005F4EH   LINE      CODE     ---       #197
      01005F51H   LINE      CODE     ---       #199
      01005F54H   LINE      CODE     ---       #200
      01005F57H   LINE      CODE     ---       #201
      01005F5AH   LINE      CODE     ---       #202
      ---         BLOCKEND  ---      ---       LVL=0

      01000006H   BLOCK     CODE     ---       LVL=0
      01000006H   LINE      CODE     ---       #206
      01000006H   LINE      CODE     ---       #208
      ---         BLOCKEND  ---      ---       LVL=0

      01005E93H   BLOCK     CODE     ---       LVL=0
      01005E9EH   BLOCK     CODE     NEAR LAB  LVL=1
      0000005FH   SYMBOL    DATA     WORD      Value_code
      ---         BLOCKEND  ---      ---       LVL=1
      01005E93H   LINE      CODE     ---       #212
      01005E9EH   LINE      CODE     ---       #215
      01005EA0H   LINE      CODE     ---       #216
      01005EA3H   LINE      CODE     ---       #217
      01005EA8H   LINE      CODE     ---       #218
      01005EAEH   LINE      CODE     ---       #219
      01005EB1H   LINE      CODE     ---       #220
      01005EB4H   LINE      CODE     ---       #221
      01005EB6H   LINE      CODE     ---       #222
      ---         BLOCKEND  ---      ---       LVL=0

      01005B7FH   BLOCK     CODE     ---       LVL=0
      01005B7FH   LINE      CODE     ---       #227
      01005B8AH   LINE      CODE     ---       #229
      01005B8CH   LINE      CODE     ---       #230
      01005B8FH   LINE      CODE     ---       #232
      01005B95H   LINE      CODE     ---       #233
      01005B9BH   LINE      CODE     ---       #234
      01005BA3H   LINE      CODE     ---       #235
      01005BA3H   LINE      CODE     ---       #236
      01005BA9H   LINE      CODE     ---       #237
      01005BABH   LINE      CODE     ---       #238
LX51 LINKER/LOCATER V4.47a                                                            02/02/2015  10:52:25  PAGE 25


      01005BABH   LINE      CODE     ---       #239
      01005BB0H   LINE      CODE     ---       #240
      01005BB0H   LINE      CODE     ---       #241
      01005BB3H   LINE      CODE     ---       #242
      01005BB9H   LINE      CODE     ---       #243
      01005BBFH   LINE      CODE     ---       #244
      01005BC5H   LINE      CODE     ---       #245
      01005BCBH   LINE      CODE     ---       #246
      01005BD1H   LINE      CODE     ---       #247
      01005BD1H   LINE      CODE     ---       #248
      01005BD4H   LINE      CODE     ---       #249
      01005BD7H   LINE      CODE     ---       #250
      01005BD9H   LINE      CODE     ---       #251
      ---         BLOCKEND  ---      ---       LVL=0

      0100612DH   BLOCK     CODE     ---       LVL=0
      0100612DH   LINE      CODE     ---       #253
      0100612DH   LINE      CODE     ---       #254
      0100612DH   LINE      CODE     ---       #255
      0100612FH   LINE      CODE     ---       #256
      01006132H   LINE      CODE     ---       #257
      01006135H   LINE      CODE     ---       #258
      01006138H   LINE      CODE     ---       #259
      0100613CH   LINE      CODE     ---       #260
      ---         BLOCKEND  ---      ---       LVL=0

      0100613DH   BLOCK     CODE     ---       LVL=0
      0100613DH   LINE      CODE     ---       #264
      0100613DH   LINE      CODE     ---       #265
      0100613DH   LINE      CODE     ---       #266
      0100613FH   LINE      CODE     ---       #267
      01006142H   LINE      CODE     ---       #268
      01006145H   LINE      CODE     ---       #269
      01006148H   LINE      CODE     ---       #270
      0100614CH   LINE      CODE     ---       #271
      ---         BLOCKEND  ---      ---       LVL=0

      0100604CH   BLOCK     CODE     ---       LVL=0
      0100604CH   LINE      CODE     ---       #295
      0100604CH   LINE      CODE     ---       #296
      0100604CH   LINE      CODE     ---       #297
      0100604FH   LINE      CODE     ---       #298
      01006052H   LINE      CODE     ---       #299
      01006055H   LINE      CODE     ---       #300
      01006058H   LINE      CODE     ---       #301
      0100605BH   LINE      CODE     ---       #302
      0100605EH   LINE      CODE     ---       #303
      01006061H   LINE      CODE     ---       #304
      01006063H   LINE      CODE     ---       #305
      01006065H   LINE      CODE     ---       #306
      ---         BLOCKEND  ---      ---       LVL=0

      0100614DH   BLOCK     CODE     ---       LVL=0
      0100614DH   LINE      CODE     ---       #308
      0100614DH   LINE      CODE     ---       #310
      01006150H   LINE      CODE     ---       #311
      01006150H   LINE      CODE     ---       #312
      01006152H   LINE      CODE     ---       #313
      01006152H   LINE      CODE     ---       #314
      01006155H   LINE      CODE     ---       #315
      01006155H   LINE      CODE     ---       #316
      01006157H   LINE      CODE     ---       #317
      0100615AH   LINE      CODE     ---       #318
      0100615CH   LINE      CODE     ---       #319
      0100615CH   LINE      CODE     ---       #320
LX51 LINKER/LOCATER V4.47a                                                            02/02/2015  10:52:25  PAGE 26


      ---         BLOCKEND  ---      ---       LVL=0

      01006031H   BLOCK     CODE     VOID      LVL=0
      ---         BLOCKEND  ---      ---       LVL=0

      01006035H   BLOCK     CODE     ---       LVL=0
      00000006H   SYMBOL    DATA     WORD      i
      00000005H   SYMBOL    DATA     BYTE      j
      01006035H   BLOCK     CODE     NEAR LAB  LVL=1
      00000005H   SYMBOL    DATA     BYTE      j
      ---         BLOCKEND  ---      ---       LVL=1
      01006035H   LINE      CODE     ---       #335
      01006035H   LINE      CODE     ---       #336
      01006035H   LINE      CODE     ---       #338
      0100603EH   LINE      CODE     ---       #339
      0100604BH   LINE      CODE     ---       #340
      ---         BLOCKEND  ---      ---       LVL=0

      010060C3H   BLOCK     CODE     ---       LVL=0
      00000007H   SYMBOL    DATA     BYTE      status
      010060C3H   LINE      CODE     ---       #344
      010060C3H   LINE      CODE     ---       #345
      010060C3H   LINE      CODE     ---       #346
      010060C8H   LINE      CODE     ---       #347
      010060CDH   LINE      CODE     ---       #349
      010060D4H   LINE      CODE     ---       #350
      ---         BLOCKEND  ---      ---       LVL=0

      01005A20H   BLOCK     CODE     ---       LVL=0
      01005A20H   LINE      CODE     ---       #354
      01005A20H   LINE      CODE     ---       #355
      01005A20H   LINE      CODE     ---       #356
      01005A23H   LINE      CODE     ---       #357
      01005A23H   LINE      CODE     ---       #358
      01005A26H   LINE      CODE     ---       #359
      01005A28H   LINE      CODE     ---       #360
      01005A2BH   LINE      CODE     ---       #361
      01005A2EH   LINE      CODE     ---       #362
      01005A31H   LINE      CODE     ---       #363
      01005A34H   LINE      CODE     ---       #364
      01005A37H   LINE      CODE     ---       #365
      01005A3DH   LINE      CODE     ---       #366
      01005A3FH   LINE      CODE     ---       #367
      01005A42H   LINE      CODE     ---       #368
      01005A42H   LINE      CODE     ---       #369
      01005A45H   LINE      CODE     ---       #370
      01005A48H   LINE      CODE     ---       #371
      01005A4BH   LINE      CODE     ---       #372
      01005A4EH   LINE      CODE     ---       #373
      01005A51H   LINE      CODE     ---       #374
      01005A54H   LINE      CODE     ---       #375
      01005A57H   LINE      CODE     ---       #376
      01005A5DH   LINE      CODE     ---       #377
      01005A5FH   LINE      CODE     ---       #378
      01005A62H   LINE      CODE     ---       #379
      01005A62H   LINE      CODE     ---       #380
      01005A65H   LINE      CODE     ---       #381
      01005A68H   LINE      CODE     ---       #382
      01005A6BH   LINE      CODE     ---       #383
      01005A6EH   LINE      CODE     ---       #384
      01005A71H   LINE      CODE     ---       #385
      01005A74H   LINE      CODE     ---       #386
      01005A77H   LINE      CODE     ---       #387
      01005A7DH   LINE      CODE     ---       #388
      01005A7FH   LINE      CODE     ---       #389
LX51 LINKER/LOCATER V4.47a                                                            02/02/2015  10:52:25  PAGE 27


      01005A82H   LINE      CODE     ---       #390
      01005A82H   LINE      CODE     ---       #391
      01005A85H   LINE      CODE     ---       #392
      01005A88H   LINE      CODE     ---       #393
      01005A8BH   LINE      CODE     ---       #394
      01005A8EH   LINE      CODE     ---       #395
      01005A91H   LINE      CODE     ---       #396
      01005A94H   LINE      CODE     ---       #397
      01005A97H   LINE      CODE     ---       #398
      01005A9FH   LINE      CODE     ---       #399
      01005A9FH   LINE      CODE     ---       #400
      ---         BLOCKEND  ---      ---       LVL=0

      0100582FH   BLOCK     CODE     ---       LVL=0
      00000067H   SYMBOL    DATA     WORD      tc_tmp
      01005833H   BLOCK     CODE     NEAR LAB  LVL=1
      00000069H   SYMBOL    DATA     WORD      ttmp
      ---         BLOCKEND  ---      ---       LVL=1
      0100582FH   LINE      CODE     ---       #402
      01005833H   LINE      CODE     ---       #403
      01005833H   LINE      CODE     ---       #406
      01005837H   LINE      CODE     ---       #407
      01005837H   LINE      CODE     ---       #408
      01005842H   LINE      CODE     ---       #409
      01005842H   LINE      CODE     ---       #410
      01005846H   LINE      CODE     ---       #411
      01005846H   LINE      CODE     ---       #412
      0100584FH   LINE      CODE     ---       #413
      01005851H   LINE      CODE     ---       #415
      01005851H   LINE      CODE     ---       #416
      0100585AH   LINE      CODE     ---       #417
      0100585AH   LINE      CODE     ---       #418
      0100585CH   LINE      CODE     ---       #420
      0100585CH   LINE      CODE     ---       #421
      01005861H   LINE      CODE     ---       #422
      01005861H   LINE      CODE     ---       #423
      0100586AH   LINE      CODE     ---       #424
      0100586CH   LINE      CODE     ---       #426
      0100586CH   LINE      CODE     ---       #427
      01005874H   LINE      CODE     ---       #428
      01005874H   LINE      CODE     ---       #429
      01005874H   LINE      CODE     ---       #430
      01005874H   LINE      CODE     ---       #431
      01005876H   LINE      CODE     ---       #433
      01005876H   LINE      CODE     ---       #434
      01005881H   LINE      CODE     ---       #435
      01005881H   LINE      CODE     ---       #436
      01005885H   LINE      CODE     ---       #437
      01005885H   LINE      CODE     ---       #438
      0100588EH   LINE      CODE     ---       #439
      01005890H   LINE      CODE     ---       #441
      01005890H   LINE      CODE     ---       #442
      01005898H   LINE      CODE     ---       #443
      01005898H   LINE      CODE     ---       #444
      0100589AH   LINE      CODE     ---       #446
      0100589AH   LINE      CODE     ---       #447
      0100589FH   LINE      CODE     ---       #448
      0100589FH   LINE      CODE     ---       #449
      010058BEH   LINE      CODE     ---       #450
      010058C0H   LINE      CODE     ---       #452
      010058C0H   LINE      CODE     ---       #453
      010058E0H   LINE      CODE     ---       #454
      010058E3H   LINE      CODE     ---       #455
      010058E3H   LINE      CODE     ---       #456
      010058E3H   LINE      CODE     ---       #458
LX51 LINKER/LOCATER V4.47a                                                            02/02/2015  10:52:25  PAGE 28


      010058E3H   LINE      CODE     ---       #459
      010058E7H   LINE      CODE     ---       #460
      ---         BLOCKEND  ---      ---       LVL=0

      01004EE3H   BLOCK     CODE     ---       LVL=0
      01004EE3H   BLOCK     CODE     NEAR LAB  LVL=1
      00000002H   SYMBOL    DATA     WORD      Temp_Count
      ---         BLOCKEND  ---      ---       LVL=1
      01004EE3H   LINE      CODE     ---       #466
      01004EE3H   LINE      CODE     ---       #467
      01004EE3H   LINE      CODE     ---       #470
      01004EE9H   LINE      CODE     ---       #471
      01004EE9H   LINE      CODE     ---       #472
      01004EF1H   LINE      CODE     ---       #474
      01004EF4H   LINE      CODE     ---       #475
      01004EFBH   LINE      CODE     ---       #477
      01004F0EH   LINE      CODE     ---       #478
      01004F1AH   LINE      CODE     ---       #479
      01004F30H   LINE      CODE     ---       #480
      01004F3CH   LINE      CODE     ---       #481
      01004F52H   LINE      CODE     ---       #482
      01004F5EH   LINE      CODE     ---       #483
      01004F74H   LINE      CODE     ---       #484
      01004F80H   LINE      CODE     ---       #485
      01004F96H   LINE      CODE     ---       #486
      01004FA2H   LINE      CODE     ---       #487
      01004FBAH   LINE      CODE     ---       #488
      01004FC6H   LINE      CODE     ---       #489
      01004FDBH   LINE      CODE     ---       #490
      01004FE7H   LINE      CODE     ---       #491
      01004FFCH   LINE      CODE     ---       #492
      01005008H   LINE      CODE     ---       #493
      0100501DH   LINE      CODE     ---       #494
      01005029H   LINE      CODE     ---       #495
      01005040H   LINE      CODE     ---       #496
      01005049H   LINE      CODE     ---       #497
      0100505EH   LINE      CODE     ---       #498
      01005067H   LINE      CODE     ---       #499
      0100507CH   LINE      CODE     ---       #500
      01005085H   LINE      CODE     ---       #501
      0100509AH   LINE      CODE     ---       #502
      010050A3H   LINE      CODE     ---       #503
      010050B8H   LINE      CODE     ---       #504
      010050B8H   LINE      CODE     ---       #505
      010050B8H   LINE      CODE     ---       #506
      010050B8H   LINE      CODE     ---       #507
      010050BCH   LINE      CODE     ---       #508
      ---         BLOCKEND  ---      ---       LVL=0

      01005B11H   BLOCK     CODE     ---       LVL=0
      01005B11H   LINE      CODE     ---       #510
      01005B11H   LINE      CODE     ---       #511
      01005B11H   LINE      CODE     ---       #512
      01005B1DH   LINE      CODE     ---       #513
      01005B1DH   LINE      CODE     ---       #514
      01005B20H   LINE      CODE     ---       #515
      01005B22H   LINE      CODE     ---       #516
      01005B24H   LINE      CODE     ---       #517
      01005B27H   LINE      CODE     ---       #518
      01005B27H   LINE      CODE     ---       #519
      01005B2BH   LINE      CODE     ---       #520
      01005B2BH   LINE      CODE     ---       #521
      01005B2EH   LINE      CODE     ---       #522
      01005B32H   LINE      CODE     ---       #523
      01005B34H   LINE      CODE     ---       #525
LX51 LINKER/LOCATER V4.47a                                                            02/02/2015  10:52:25  PAGE 29


      01005B34H   LINE      CODE     ---       #526
      01005B38H   LINE      CODE     ---       #527
      01005B38H   LINE      CODE     ---       #528
      01005B3AH   LINE      CODE     ---       #529
      01005B3DH   LINE      CODE     ---       #530
      01005B3DH   LINE      CODE     ---       #531
      01005B41H   LINE      CODE     ---       #532
      01005B41H   LINE      CODE     ---       #533
      01005B45H   LINE      CODE     ---       #534
      01005B45H   LINE      CODE     ---       #535
      01005B47H   LINE      CODE     ---       #537
      01005B47H   LINE      CODE     ---       #538
      01005B4BH   LINE      CODE     ---       #539
      01005B4BH   LINE      CODE     ---       #540
      01005B4DH   LINE      CODE     ---       #541
      01005B50H   LINE      CODE     ---       #542
      01005B50H   LINE      CODE     ---       #543
      01005B54H   LINE      CODE     ---       #544
      01005B54H   LINE      CODE     ---       #545
      01005B58H   LINE      CODE     ---       #546
      01005B58H   LINE      CODE     ---       #547
      01005B5AH   LINE      CODE     ---       #549
      01005B5AH   LINE      CODE     ---       #550
      01005B5EH   LINE      CODE     ---       #551
      01005B5EH   LINE      CODE     ---       #552
      01005B60H   LINE      CODE     ---       #553
      01005B63H   LINE      CODE     ---       #554
      01005B63H   LINE      CODE     ---       #555
      01005B67H   LINE      CODE     ---       #556
      01005B67H   LINE      CODE     ---       #557
      01005B6FH   LINE      CODE     ---       #558
      01005B72H   LINE      CODE     ---       #559
      01005B74H   LINE      CODE     ---       #561
      01005B74H   LINE      CODE     ---       #562
      01005B7CH   LINE      CODE     ---       #563
      01005B7CH   LINE      CODE     ---       #564
      01005B7CH   LINE      CODE     ---       #566
      01005B7EH   LINE      CODE     ---       #567
      ---         BLOCKEND  ---      ---       LVL=0

      01004940H   BLOCK     CODE     ---       LVL=0
      01004940H   BLOCK     CODE     NEAR LAB  LVL=1
      00000061H   SYMBOL    DATA     WORD      Code_Value
      00000063H   SYMBOL    DATA     WORD      TC_Value
      00000065H   SYMBOL    DATA     WORD      temp_v
      00000007H   SYMBOL    DATA     BYTE      key
      ---         BLOCKEND  ---      ---       LVL=1
      01004940H   LINE      CODE     ---       #569
      01004940H   LINE      CODE     ---       #570
      01004940H   LINE      CODE     ---       #574
      01004943H   LINE      CODE     ---       #576
      01004946H   LINE      CODE     ---       #577
      01004946H   LINE      CODE     ---       #578
      01004949H   LINE      CODE     ---       #579
      0100494CH   LINE      CODE     ---       #581
      0100494CH   LINE      CODE     ---       #582
      01004951H   LINE      CODE     ---       #583
      01004951H   LINE      CODE     ---       #585
      01004958H   LINE      CODE     ---       #586
      0100495CH   LINE      CODE     ---       #587
      0100495CH   LINE      CODE     ---       #588
      01004964H   LINE      CODE     ---       #589
      01004964H   LINE      CODE     ---       #590
      01004966H   LINE      CODE     ---       #591
      0100496DH   LINE      CODE     ---       #593
LX51 LINKER/LOCATER V4.47a                                                            02/02/2015  10:52:25  PAGE 30


      01004977H   LINE      CODE     ---       #594
      01004977H   LINE      CODE     ---       #595
      01004982H   LINE      CODE     ---       #596
      01004982H   LINE      CODE     ---       #597
      01004982H   LINE      CODE     ---       #599
      01004984H   LINE      CODE     ---       #601
      01004984H   LINE      CODE     ---       #602
      01004991H   LINE      CODE     ---       #603
      01004994H   LINE      CODE     ---       #604
      01004994H   LINE      CODE     ---       #605
      01004996H   LINE      CODE     ---       #606
      0100499FH   LINE      CODE     ---       #607
      0100499FH   LINE      CODE     ---       #608
      0100499FH   LINE      CODE     ---       #609
      010049A1H   LINE      CODE     ---       #610
      010049AAH   LINE      CODE     ---       #611
      010049AAH   LINE      CODE     ---       #612
      010049B6H   LINE      CODE     ---       #613
      010049B8H   LINE      CODE     ---       #614
      010049C0H   LINE      CODE     ---       #615
      010049C0H   LINE      CODE     ---       #616
      010049CBH   LINE      CODE     ---       #617
      010049CBH   LINE      CODE     ---       #618
      010049D7H   LINE      CODE     ---       #619
      010049D9H   LINE      CODE     ---       #621
      010049D9H   LINE      CODE     ---       #622
      010049E6H   LINE      CODE     ---       #623
      010049E9H   LINE      CODE     ---       #624
      010049E9H   LINE      CODE     ---       #625
      010049E9H   LINE      CODE     ---       #626
      010049F6H   LINE      CODE     ---       #627
      01004A06H   LINE      CODE     ---       #629
      01004A13H   LINE      CODE     ---       #631
      01004A1EH   LINE      CODE     ---       #632
      01004A22H   LINE      CODE     ---       #633
      01004A22H   LINE      CODE     ---       #634
      01004A4AH   LINE      CODE     ---       #635
      01004A5FH   LINE      CODE     ---       #636
      01004A66H   LINE      CODE     ---       #637
      01004A69H   LINE      CODE     ---       #638
      01004A6FH   LINE      CODE     ---       #639
      01004A6FH   LINE      CODE     ---       #640
      01004A97H   LINE      CODE     ---       #641
      01004AACH   LINE      CODE     ---       #642
      01004AB3H   LINE      CODE     ---       #643
      01004AB6H   LINE      CODE     ---       #644
      01004ABCH   LINE      CODE     ---       #645
      01004ABCH   LINE      CODE     ---       #646
      01004AE4H   LINE      CODE     ---       #647
      01004AF9H   LINE      CODE     ---       #648
      01004B00H   LINE      CODE     ---       #649
      01004B03H   LINE      CODE     ---       #650
      01004B09H   LINE      CODE     ---       #651
      01004B09H   LINE      CODE     ---       #652
      01004B31H   LINE      CODE     ---       #653
      01004B46H   LINE      CODE     ---       #654
      01004B4DH   LINE      CODE     ---       #655
      01004B50H   LINE      CODE     ---       #656
      01004B56H   LINE      CODE     ---       #657
      01004B59H   LINE      CODE     ---       #658
      01004B8CH   LINE      CODE     ---       #659
      01004BADH   LINE      CODE     ---       #660
      01004BB1H   LINE      CODE     ---       #661
      01004BB3H   LINE      CODE     ---       #662
      01004BB9H   LINE      CODE     ---       #663
LX51 LINKER/LOCATER V4.47a                                                            02/02/2015  10:52:25  PAGE 31


      01004BB9H   LINE      CODE     ---       #664
      01004BBCH   LINE      CODE     ---       #665
      01004BDEH   LINE      CODE     ---       #666
      01004C00H   LINE      CODE     ---       #667
      01004C0FH   LINE      CODE     ---       #668
      01004C0FH   LINE      CODE     ---       #669
      01004C0FH   LINE      CODE     ---       #670
      01004C14H   LINE      CODE     ---       #671
      01004C14H   LINE      CODE     ---       #672
      01004C17H   LINE      CODE     ---       #673
      01004C1BH   LINE      CODE     ---       #674
      01004C1BH   LINE      CODE     ---       #675
      01004C20H   LINE      CODE     ---       #676
      01004C20H   LINE      CODE     ---       #677
      01004C22H   LINE      CODE     ---       #679
      01004C2BH   LINE      CODE     ---       #680
      01004C40H   LINE      CODE     ---       #681
      01004C44H   LINE      CODE     ---       #683
      01004C46H   LINE      CODE     ---       #684
      01004C46H   LINE      CODE     ---       #685
      01004C4BH   LINE      CODE     ---       #686
      01004C4BH   LINE      CODE     ---       #687
      01004C55H   LINE      CODE     ---       #688
      01004C5FH   LINE      CODE     ---       #689
      01004C63H   LINE      CODE     ---       #690
      01004C63H   LINE      CODE     ---       #691
      01004C68H   LINE      CODE     ---       #692
      01004C68H   LINE      CODE     ---       #693
      01004C6BH   LINE      CODE     ---       #694
      01004C6BH   LINE      CODE     ---       #695
      01004C6EH   LINE      CODE     ---       #696
      01004C70H   LINE      CODE     ---       #697
      01004C72H   LINE      CODE     ---       #698
      01004C74H   LINE      CODE     ---       #700
      01004C74H   LINE      CODE     ---       #701
      01004C78H   LINE      CODE     ---       #702
      01004C7AH   LINE      CODE     ---       #703
      01004C7EH   LINE      CODE     ---       #704
      01004C7EH   LINE      CODE     ---       #705
      01004C80H   LINE      CODE     ---       #706
      01004C80H   LINE      CODE     ---       #707
      01004C80H   LINE      CODE     ---       #708
      01004C84H   LINE      CODE     ---       #709
      ---         BLOCKEND  ---      ---       LVL=0

      01005389H   BLOCK     CODE     ---       LVL=0
      01005389H   BLOCK     CODE     NEAR LAB  LVL=1
      00000061H   SYMBOL    DATA     WORD      RTD_Value
      00000007H   SYMBOL    DATA     BYTE      key
      ---         BLOCKEND  ---      ---       LVL=1
      01005389H   LINE      CODE     ---       #718
      01005389H   LINE      CODE     ---       #719
      01005389H   LINE      CODE     ---       #723
      0100538CH   LINE      CODE     ---       #725
      0100538FH   LINE      CODE     ---       #726
      0100538FH   LINE      CODE     ---       #727
      01005392H   LINE      CODE     ---       #728
      01005395H   LINE      CODE     ---       #730
      01005395H   LINE      CODE     ---       #731
      0100539DH   LINE      CODE     ---       #732
      0100539DH   LINE      CODE     ---       #733
      0100539FH   LINE      CODE     ---       #735
      010053A6H   LINE      CODE     ---       #737
      010053B0H   LINE      CODE     ---       #738
      010053B0H   LINE      CODE     ---       #739
LX51 LINKER/LOCATER V4.47a                                                            02/02/2015  10:52:25  PAGE 32


      010053BBH   LINE      CODE     ---       #740
      010053BBH   LINE      CODE     ---       #741
      010053BBH   LINE      CODE     ---       #742
      010053BDH   LINE      CODE     ---       #744
      010053BDH   LINE      CODE     ---       #745
      010053CAH   LINE      CODE     ---       #746
      010053CDH   LINE      CODE     ---       #747
      010053CDH   LINE      CODE     ---       #748
      010053CFH   LINE      CODE     ---       #749
      010053D8H   LINE      CODE     ---       #750
      010053D8H   LINE      CODE     ---       #751
      010053D8H   LINE      CODE     ---       #752
      010053DAH   LINE      CODE     ---       #753
      010053E3H   LINE      CODE     ---       #754
      010053E3H   LINE      CODE     ---       #755
      010053EFH   LINE      CODE     ---       #756
      010053F1H   LINE      CODE     ---       #757
      010053F9H   LINE      CODE     ---       #758
      010053F9H   LINE      CODE     ---       #759
      01005404H   LINE      CODE     ---       #760
      01005404H   LINE      CODE     ---       #761
      01005410H   LINE      CODE     ---       #762
      01005412H   LINE      CODE     ---       #764
      01005412H   LINE      CODE     ---       #765
      0100541FH   LINE      CODE     ---       #766
      01005422H   LINE      CODE     ---       #767
      01005422H   LINE      CODE     ---       #768
      01005422H   LINE      CODE     ---       #769
      01005435H   LINE      CODE     ---       #770
      01005444H   LINE      CODE     ---       #772
      01005452H   LINE      CODE     ---       #773
      0100545DH   LINE      CODE     ---       #774
      01005468H   LINE      CODE     ---       #776
      01005473H   LINE      CODE     ---       #777
      01005473H   LINE      CODE     ---       #778
      01005478H   LINE      CODE     ---       #779
      01005478H   LINE      CODE     ---       #780
      01005481H   LINE      CODE     ---       #781
      01005485H   LINE      CODE     ---       #783
      0100549AH   LINE      CODE     ---       #784
      0100549EH   LINE      CODE     ---       #786
      010054A0H   LINE      CODE     ---       #787
      010054A0H   LINE      CODE     ---       #788
      010054A5H   LINE      CODE     ---       #789
      010054A5H   LINE      CODE     ---       #790
      010054AFH   LINE      CODE     ---       #791
      010054B9H   LINE      CODE     ---       #793
      010054BDH   LINE      CODE     ---       #794
      010054BDH   LINE      CODE     ---       #795
      010054C2H   LINE      CODE     ---       #796
      010054C2H   LINE      CODE     ---       #797
      010054C5H   LINE      CODE     ---       #798
      010054C9H   LINE      CODE     ---       #799
      010054C9H   LINE      CODE     ---       #800
      010054CEH   LINE      CODE     ---       #801
      010054CEH   LINE      CODE     ---       #802
      010054D1H   LINE      CODE     ---       #803
      010054D1H   LINE      CODE     ---       #804
      010054D4H   LINE      CODE     ---       #805
      010054D6H   LINE      CODE     ---       #806
      010054D8H   LINE      CODE     ---       #807
      010054DAH   LINE      CODE     ---       #809
      010054DAH   LINE      CODE     ---       #810
      010054DEH   LINE      CODE     ---       #811
      010054E0H   LINE      CODE     ---       #812
LX51 LINKER/LOCATER V4.47a                                                            02/02/2015  10:52:25  PAGE 33


      010054E4H   LINE      CODE     ---       #813
      010054E4H   LINE      CODE     ---       #814
      010054E6H   LINE      CODE     ---       #815
      010054E6H   LINE      CODE     ---       #816
      010054E6H   LINE      CODE     ---       #817
      010054EAH   LINE      CODE     ---       #818
      ---         BLOCKEND  ---      ---       LVL=0

      010050BDH   BLOCK     CODE     ---       LVL=0
      010050BDH   BLOCK     CODE     NEAR LAB  LVL=1
      00000061H   SYMBOL    DATA     WORD      mV_Value
      00000007H   SYMBOL    DATA     BYTE      key
      ---         BLOCKEND  ---      ---       LVL=1
      010050BDH   LINE      CODE     ---       #822
      010050BDH   LINE      CODE     ---       #823
      010050BDH   LINE      CODE     ---       #827
      010050C0H   LINE      CODE     ---       #829
      010050C3H   LINE      CODE     ---       #830
      010050C3H   LINE      CODE     ---       #831
      010050C6H   LINE      CODE     ---       #832
      010050C9H   LINE      CODE     ---       #834
      010050C9H   LINE      CODE     ---       #835
      010050D1H   LINE      CODE     ---       #836
      010050D1H   LINE      CODE     ---       #837
      010050D3H   LINE      CODE     ---       #839
      010050DAH   LINE      CODE     ---       #842
      010050E4H   LINE      CODE     ---       #843
      010050E4H   LINE      CODE     ---       #844
      010050EFH   LINE      CODE     ---       #845
      010050EFH   LINE      CODE     ---       #846
      010050EFH   LINE      CODE     ---       #847
      010050F1H   LINE      CODE     ---       #849
      010050F1H   LINE      CODE     ---       #850
      010050FEH   LINE      CODE     ---       #851
      01005101H   LINE      CODE     ---       #852
      01005101H   LINE      CODE     ---       #853
      01005103H   LINE      CODE     ---       #854
      0100510CH   LINE      CODE     ---       #855
      0100510CH   LINE      CODE     ---       #856
      0100510CH   LINE      CODE     ---       #857
      0100510EH   LINE      CODE     ---       #858
      01005117H   LINE      CODE     ---       #859
      01005117H   LINE      CODE     ---       #860
      01005123H   LINE      CODE     ---       #861
      01005125H   LINE      CODE     ---       #862
      0100512DH   LINE      CODE     ---       #863
      0100512DH   LINE      CODE     ---       #864
      01005138H   LINE      CODE     ---       #865
      01005138H   LINE      CODE     ---       #866
      01005144H   LINE      CODE     ---       #867
      01005146H   LINE      CODE     ---       #869
      01005146H   LINE      CODE     ---       #870
      01005153H   LINE      CODE     ---       #871
      01005156H   LINE      CODE     ---       #872
      01005156H   LINE      CODE     ---       #873
      01005156H   LINE      CODE     ---       #874
      01005169H   LINE      CODE     ---       #875
      01005178H   LINE      CODE     ---       #877
      01005186H   LINE      CODE     ---       #882
      010051A0H   LINE      CODE     ---       #884
      010051ABH   LINE      CODE     ---       #885
      010051ABH   LINE      CODE     ---       #886
      010051B0H   LINE      CODE     ---       #887
      010051B0H   LINE      CODE     ---       #888
      010051B9H   LINE      CODE     ---       #889
LX51 LINKER/LOCATER V4.47a                                                            02/02/2015  10:52:25  PAGE 34


      010051BDH   LINE      CODE     ---       #891
      010051D2H   LINE      CODE     ---       #892
      010051D6H   LINE      CODE     ---       #894
      010051D8H   LINE      CODE     ---       #895
      010051D8H   LINE      CODE     ---       #896
      010051DDH   LINE      CODE     ---       #897
      010051DDH   LINE      CODE     ---       #898
      010051E7H   LINE      CODE     ---       #899
      010051F1H   LINE      CODE     ---       #901
      010051F5H   LINE      CODE     ---       #902
      010051F5H   LINE      CODE     ---       #903
      010051FAH   LINE      CODE     ---       #904
      010051FAH   LINE      CODE     ---       #905
      010051FDH   LINE      CODE     ---       #906
      01005201H   LINE      CODE     ---       #907
      01005201H   LINE      CODE     ---       #908
      01005206H   LINE      CODE     ---       #909
      01005206H   LINE      CODE     ---       #910
      01005209H   LINE      CODE     ---       #911
      01005209H   LINE      CODE     ---       #912
      0100520CH   LINE      CODE     ---       #913
      0100520EH   LINE      CODE     ---       #914
      01005210H   LINE      CODE     ---       #915
      01005212H   LINE      CODE     ---       #917
      01005212H   LINE      CODE     ---       #918
      01005216H   LINE      CODE     ---       #919
      01005218H   LINE      CODE     ---       #920
      0100521CH   LINE      CODE     ---       #921
      0100521CH   LINE      CODE     ---       #922
      0100521EH   LINE      CODE     ---       #923
      0100521EH   LINE      CODE     ---       #924
      0100521EH   LINE      CODE     ---       #925
      01005222H   LINE      CODE     ---       #926
      ---         BLOCKEND  ---      ---       LVL=0

      01005223H   BLOCK     CODE     ---       LVL=0
      01005223H   BLOCK     CODE     NEAR LAB  LVL=1
      00000061H   SYMBOL    DATA     WORD      mA_Value
      00000007H   SYMBOL    DATA     BYTE      key
      ---         BLOCKEND  ---      ---       LVL=1
      01005223H   LINE      CODE     ---       #930
      01005223H   LINE      CODE     ---       #931
      01005223H   LINE      CODE     ---       #935
      01005226H   LINE      CODE     ---       #937
      01005229H   LINE      CODE     ---       #938
      01005229H   LINE      CODE     ---       #939
      0100522CH   LINE      CODE     ---       #940
      0100522FH   LINE      CODE     ---       #942
      0100522FH   LINE      CODE     ---       #943
      01005237H   LINE      CODE     ---       #944
      01005237H   LINE      CODE     ---       #945
      01005239H   LINE      CODE     ---       #947
      01005240H   LINE      CODE     ---       #949
      0100524AH   LINE      CODE     ---       #950
      0100524AH   LINE      CODE     ---       #951
      01005255H   LINE      CODE     ---       #952
      01005255H   LINE      CODE     ---       #953
      01005255H   LINE      CODE     ---       #954
      01005257H   LINE      CODE     ---       #956
      01005257H   LINE      CODE     ---       #957
      01005264H   LINE      CODE     ---       #958
      01005267H   LINE      CODE     ---       #959
      01005267H   LINE      CODE     ---       #960
      01005269H   LINE      CODE     ---       #961
      01005272H   LINE      CODE     ---       #962
LX51 LINKER/LOCATER V4.47a                                                            02/02/2015  10:52:25  PAGE 35


      01005272H   LINE      CODE     ---       #963
      01005272H   LINE      CODE     ---       #964
      01005274H   LINE      CODE     ---       #965
      0100527DH   LINE      CODE     ---       #966
      0100527DH   LINE      CODE     ---       #967
      01005289H   LINE      CODE     ---       #968
      0100528BH   LINE      CODE     ---       #969
      01005293H   LINE      CODE     ---       #970
      01005293H   LINE      CODE     ---       #971
      0100529EH   LINE      CODE     ---       #972
      0100529EH   LINE      CODE     ---       #973
      010052AAH   LINE      CODE     ---       #974
      010052ACH   LINE      CODE     ---       #976
      010052ACH   LINE      CODE     ---       #977
      010052B9H   LINE      CODE     ---       #978
      010052BCH   LINE      CODE     ---       #979
      010052BCH   LINE      CODE     ---       #980
      010052BCH   LINE      CODE     ---       #981
      010052CFH   LINE      CODE     ---       #982
      010052DEH   LINE      CODE     ---       #984
      010052ECH   LINE      CODE     ---       #986
      01005306H   LINE      CODE     ---       #988
      01005311H   LINE      CODE     ---       #989
      01005311H   LINE      CODE     ---       #990
      01005316H   LINE      CODE     ---       #991
      01005316H   LINE      CODE     ---       #992
      0100531FH   LINE      CODE     ---       #993
      01005323H   LINE      CODE     ---       #995
      01005338H   LINE      CODE     ---       #996
      0100533CH   LINE      CODE     ---       #998
      0100533EH   LINE      CODE     ---       #999
      0100533EH   LINE      CODE     ---       #1000
      01005343H   LINE      CODE     ---       #1001
      01005343H   LINE      CODE     ---       #1002
      0100534DH   LINE      CODE     ---       #1003
      01005357H   LINE      CODE     ---       #1005
      0100535BH   LINE      CODE     ---       #1006
      0100535BH   LINE      CODE     ---       #1007
      01005360H   LINE      CODE     ---       #1008
      01005360H   LINE      CODE     ---       #1009
      01005363H   LINE      CODE     ---       #1010
      01005367H   LINE      CODE     ---       #1011
      01005367H   LINE      CODE     ---       #1012
      0100536CH   LINE      CODE     ---       #1013
      0100536CH   LINE      CODE     ---       #1014
      0100536FH   LINE      CODE     ---       #1015
      0100536FH   LINE      CODE     ---       #1016
      01005372H   LINE      CODE     ---       #1017
      01005374H   LINE      CODE     ---       #1018
      01005376H   LINE      CODE     ---       #1019
      01005378H   LINE      CODE     ---       #1021
      01005378H   LINE      CODE     ---       #1022
      0100537CH   LINE      CODE     ---       #1023
      0100537EH   LINE      CODE     ---       #1024
      01005382H   LINE      CODE     ---       #1025
      01005382H   LINE      CODE     ---       #1026
      01005384H   LINE      CODE     ---       #1027
      01005384H   LINE      CODE     ---       #1028
      01005384H   LINE      CODE     ---       #1029
      01005388H   LINE      CODE     ---       #1030
      ---         BLOCKEND  ---      ---       LVL=0

      010058E8H   BLOCK     CODE     ---       LVL=0
      010058E8H   BLOCK     CODE     NEAR LAB  LVL=1
      0000006CH   SYMBOL    DATA     WORD      AD3421_Value
LX51 LINKER/LOCATER V4.47a                                                            02/02/2015  10:52:25  PAGE 36


      00000007H   SYMBOL    DATA     BYTE      ssta
      ---         BLOCKEND  ---      ---       LVL=1
      010058E8H   LINE      CODE     ---       #1032
      010058E8H   LINE      CODE     ---       #1033
      010058E8H   LINE      CODE     ---       #1037
      010058EBH   LINE      CODE     ---       #1038
      010058F1H   LINE      CODE     ---       #1039
      010058F1H   LINE      CODE     ---       #1040
      010058F4H   LINE      CODE     ---       #1041
      010058FBH   LINE      CODE     ---       #1042
      010058FBH   LINE      CODE     ---       #1043
      010058FEH   LINE      CODE     ---       #1044
      01005907H   LINE      CODE     ---       #1045
      0100590CH   LINE      CODE     ---       #1046
      01005917H   LINE      CODE     ---       #1047
      01005928H   LINE      CODE     ---       #1048
      0100592EH   LINE      CODE     ---       #1049
      01005937H   LINE      CODE     ---       #1050
      0100593DH   LINE      CODE     ---       #1051
      01005946H   LINE      CODE     ---       #1054
      01005946H   LINE      CODE     ---       #1055
      01005949H   LINE      CODE     ---       #1056
      01005952H   LINE      CODE     ---       #1057
      01005957H   LINE      CODE     ---       #1058
      01005962H   LINE      CODE     ---       #1059
      01005973H   LINE      CODE     ---       #1060
      01005979H   LINE      CODE     ---       #1061
      01005982H   LINE      CODE     ---       #1062
      0100598FH   LINE      CODE     ---       #1063
      0100598FH   LINE      CODE     ---       #1066
      0100598FH   LINE      CODE     ---       #1067
      01005993H   LINE      CODE     ---       #1068
      ---         BLOCKEND  ---      ---       LVL=0

      01000026H   BLOCK     CODE     ---       LVL=0
      01000026H   BLOCK     CODE     NEAR LAB  LVL=1
      00000061H   SYMBOL    DATA     BYTE      set_key
      00000062H   SYMBOL    DATA     BYTE      times
      00000063H   SYMBOL    DATA     BYTE      Itemm
      00000064H   SYMBOL    DATA     BYTE      item_key
      00000065H   SYMBOL    DATA     BYTE      confrom_key
      00000066H   SYMBOL    DATA     BYTE      up_key
      00000067H   SYMBOL    DATA     BYTE      don_key
      00000068H   SYMBOL    DATA     WORD      temp_d
      0000006AH   SYMBOL    DATA     WORD      value_cal
      ---         BLOCKEND  ---      ---       LVL=1
      01000026H   LINE      CODE     ---       #1070
      01000026H   LINE      CODE     ---       #1071
      01000026H   LINE      CODE     ---       #1072
      0100002DH   LINE      CODE     ---       #1074
      01000031H   LINE      CODE     ---       #1077
      0100003AH   LINE      CODE     ---       #1079
      01000041H   LINE      CODE     ---       #1080
      01000041H   LINE      CODE     ---       #1081
      01000046H   LINE      CODE     ---       #1082
      01000046H   LINE      CODE     ---       #1083
      0100004DH   LINE      CODE     ---       #1084
      01000051H   LINE      CODE     ---       #1085
      01000051H   LINE      CODE     ---       #1086
      01000056H   LINE      CODE     ---       #1088
      0100005BH   LINE      CODE     ---       #1089
      01000060H   LINE      CODE     ---       #1091
      01000063H   LINE      CODE     ---       #1093
      01000068H   LINE      CODE     ---       #1094
      0100006DH   LINE      CODE     ---       #1096
LX51 LINKER/LOCATER V4.47a                                                            02/02/2015  10:52:25  PAGE 37


      01000070H   LINE      CODE     ---       #1098
      01000075H   LINE      CODE     ---       #1099
      0100007AH   LINE      CODE     ---       #1101
      0100007DH   LINE      CODE     ---       #1103
      01000082H   LINE      CODE     ---       #1104
      01000087H   LINE      CODE     ---       #1106
      0100008AH   LINE      CODE     ---       #1108
      0100008FH   LINE      CODE     ---       #1109
      0100008FH   LINE      CODE     ---       #1110
      01000091H   LINE      CODE     ---       #1111
      01000094H   LINE      CODE     ---       #1112
      01000094H   LINE      CODE     ---       #1113
      0100009BH   LINE      CODE     ---       #1114
      0100009BH   LINE      CODE     ---       #1115
      0100009EH   LINE      CODE     ---       #1116
      010000A0H   LINE      CODE     ---       #1117
      010000A0H   LINE      CODE     ---       #1118
      010000ADH   LINE      CODE     ---       #1119
      010000BAH   LINE      CODE     ---       #1122
      010000CEH   LINE      CODE     ---       #1123
      010000CEH   LINE      CODE     ---       #1124
      010000D3H   LINE      CODE     ---       #1125
      010000D3H   LINE      CODE     ---       #1126
      010000D5H   LINE      CODE     ---       #1127
      010000E4H   LINE      CODE     ---       #1128
      010000EBH   LINE      CODE     ---       #1129
      010000EFH   LINE      CODE     ---       #1131
      010000EFH   LINE      CODE     ---       #1132
      0100013BH   LINE      CODE     ---       #1133
      0100013EH   LINE      CODE     ---       #1134
      0100013EH   LINE      CODE     ---       #1135
      01000140H   LINE      CODE     ---       #1137
      01000140H   LINE      CODE     ---       #1138
      01000153H   LINE      CODE     ---       #1139
      01000153H   LINE      CODE     ---       #1140
      01000153H   LINE      CODE     ---       #1141
      01000159H   LINE      CODE     ---       #1142
      01000159H   LINE      CODE     ---       #1143
      01000163H   LINE      CODE     ---       #1145
      01000169H   LINE      CODE     ---       #1146
      0100016EH   LINE      CODE     ---       #1147
      01000175H   LINE      CODE     ---       #1148
      01000175H   LINE      CODE     ---       #1149
      01000178H   LINE      CODE     ---       #1150
      0100017CH   LINE      CODE     ---       #1151
      0100017CH   LINE      CODE     ---       #1152
      01000185H   LINE      CODE     ---       #1153
      01000185H   LINE      CODE     ---       #1154
      0100018CH   LINE      CODE     ---       #1155
      01000194H   LINE      CODE     ---       #1156
      0100019BH   LINE      CODE     ---       #1157
      0100019DH   LINE      CODE     ---       #1158
      0100019DH   LINE      CODE     ---       #1159
      010001A0H   LINE      CODE     ---       #1160
      010001A6H   LINE      CODE     ---       #1161
      010001A6H   LINE      CODE     ---       #1162
      010001B2H   LINE      CODE     ---       #1163
      010001BCH   LINE      CODE     ---       #1164
      010001C2H   LINE      CODE     ---       #1165
      010001C7H   LINE      CODE     ---       #1167
      010001CEH   LINE      CODE     ---       #1168
      010001CEH   LINE      CODE     ---       #1169
      010001D1H   LINE      CODE     ---       #1170
      010001D5H   LINE      CODE     ---       #1171
      010001D5H   LINE      CODE     ---       #1172
LX51 LINKER/LOCATER V4.47a                                                            02/02/2015  10:52:25  PAGE 38


      010001DEH   LINE      CODE     ---       #1173
      010001DEH   LINE      CODE     ---       #1174
      010001E2H   LINE      CODE     ---       #1175
      010001E2H   LINE      CODE     ---       #1176
      010001E2H   LINE      CODE     ---       #1177
      010001E2H   LINE      CODE     ---       #1178
      010001E5H   LINE      CODE     ---       #1179
      010001EBH   LINE      CODE     ---       #1180
      010001EBH   LINE      CODE     ---       #1181
      010001EFH   LINE      CODE     ---       #1182
      010001F4H   LINE      CODE     ---       #1183
      010001FAH   LINE      CODE     ---       #1184
      010001FFH   LINE      CODE     ---       #1185
      01000206H   LINE      CODE     ---       #1186
      01000206H   LINE      CODE     ---       #1187
      01000209H   LINE      CODE     ---       #1188
      0100020DH   LINE      CODE     ---       #1189
      0100020DH   LINE      CODE     ---       #1190
      01000217H   LINE      CODE     ---       #1192
      01000220H   LINE      CODE     ---       #1193
      01000220H   LINE      CODE     ---       #1194
      01000224H   LINE      CODE     ---       #1195
      01000224H   LINE      CODE     ---       #1196
      01000224H   LINE      CODE     ---       #1197
      01000224H   LINE      CODE     ---       #1198
      01000227H   LINE      CODE     ---       #1199
      01000230H   LINE      CODE     ---       #1200
      01000230H   LINE      CODE     ---       #1201
      01000239H   LINE      CODE     ---       #1202
      01000239H   LINE      CODE     ---       #1203
      01000246H   LINE      CODE     ---       #1205
      01000252H   LINE      CODE     ---       #1207
      0100025BH   LINE      CODE     ---       #1208
      0100025BH   LINE      CODE     ---       #1209
      01000264H   LINE      CODE     ---       #1211
      0100029EH   LINE      CODE     ---       #1212
      010002A1H   LINE      CODE     ---       #1213
      010002ACH   LINE      CODE     ---       #1214
      010002B6H   LINE      CODE     ---       #1215
      010002BCH   LINE      CODE     ---       #1216
      010002BCH   LINE      CODE     ---       #1217
      010002BCH   LINE      CODE     ---       #1218
      010002BCH   LINE      CODE     ---       #1219
      010002BFH   LINE      CODE     ---       #1220
      010002C8H   LINE      CODE     ---       #1221
      010002C8H   LINE      CODE     ---       #1222
      010002D1H   LINE      CODE     ---       #1224
      010002D1H   LINE      CODE     ---       #1225
      010002DDH   LINE      CODE     ---       #1226
      010002E6H   LINE      CODE     ---       #1227
      010002E6H   LINE      CODE     ---       #1228
      010002EFH   LINE      CODE     ---       #1230
      01000329H   LINE      CODE     ---       #1232
      01000332H   LINE      CODE     ---       #1233
      010003B4H   LINE      CODE     ---       #1234
      010004A9H   LINE      CODE     ---       #1235
      010004ACH   LINE      CODE     ---       #1237
      010005B1H   LINE      CODE     ---       #1238
      010005B1H   LINE      CODE     ---       #1239
      010005B4H   LINE      CODE     ---       #1241
      01000637H   LINE      CODE     ---       #1242
      01000736H   LINE      CODE     ---       #1243
      0100073CH   LINE      CODE     ---       #1245
      01000843H   LINE      CODE     ---       #1246
      01000846H   LINE      CODE     ---       #1247
LX51 LINKER/LOCATER V4.47a                                                            02/02/2015  10:52:25  PAGE 39


      01000846H   LINE      CODE     ---       #1248
      0100084FH   LINE      CODE     ---       #1249
      01000852H   LINE      CODE     ---       #1250
      01000856H   LINE      CODE     ---       #1251
      01000856H   LINE      CODE     ---       #1252
      01000856H   LINE      CODE     ---       #1253
      01000856H   LINE      CODE     ---       #1254
      01000859H   LINE      CODE     ---       #1255
      0100085FH   LINE      CODE     ---       #1256
      0100085FH   LINE      CODE     ---       #1257
      0100086AH   LINE      CODE     ---       #1258
      0100086AH   LINE      CODE     ---       #1259
      01000877H   LINE      CODE     ---       #1260
      01000883H   LINE      CODE     ---       #1261
      0100088CH   LINE      CODE     ---       #1262
      0100088CH   LINE      CODE     ---       #1263
      01000895H   LINE      CODE     ---       #1264
      0100089DH   LINE      CODE     ---       #1265
      010008A0H   LINE      CODE     ---       #1266
      010008ABH   LINE      CODE     ---       #1267
      010008B5H   LINE      CODE     ---       #1268
      010008B5H   LINE      CODE     ---       #1269
      010008B5H   LINE      CODE     ---       #1270
      010008B5H   LINE      CODE     ---       #1271
      010008B8H   LINE      CODE     ---       #1272
      010008C1H   LINE      CODE     ---       #1273
      010008C1H   LINE      CODE     ---       #1274
      010008CCH   LINE      CODE     ---       #1275
      010008CCH   LINE      CODE     ---       #1276
      010008D8H   LINE      CODE     ---       #1277
      010008E1H   LINE      CODE     ---       #1278
      010008E1H   LINE      CODE     ---       #1279
      010008EAH   LINE      CODE     ---       #1280
      010008F2H   LINE      CODE     ---       #1282
      010008F7H   LINE      CODE     ---       #1283
      0100090AH   LINE      CODE     ---       #1284
      01000913H   LINE      CODE     ---       #1286
      01000925H   LINE      CODE     ---       #1287
      01000927H   LINE      CODE     ---       #1289
      0100093BH   LINE      CODE     ---       #1290
      01000944H   LINE      CODE     ---       #1292
      0100095FH   LINE      CODE     ---       #1293
      0100095FH   LINE      CODE     ---       #1294
      01000965H   LINE      CODE     ---       #1295
      01000965H   LINE      CODE     ---       #1296
      01000965H   LINE      CODE     ---       #1297
      01000965H   LINE      CODE     ---       #1298
      01000968H   LINE      CODE     ---       #1299
      0100096EH   LINE      CODE     ---       #1300
      0100096EH   LINE      CODE     ---       #1301
      01000979H   LINE      CODE     ---       #1302
      01000979H   LINE      CODE     ---       #1303
      01000986H   LINE      CODE     ---       #1304
      01000992H   LINE      CODE     ---       #1305
      0100099BH   LINE      CODE     ---       #1306
      0100099BH   LINE      CODE     ---       #1307
      010009A4H   LINE      CODE     ---       #1308
      010009ACH   LINE      CODE     ---       #1309
      010009AFH   LINE      CODE     ---       #1310
      010009BAH   LINE      CODE     ---       #1311
      010009C4H   LINE      CODE     ---       #1312
      010009C4H   LINE      CODE     ---       #1313
      010009C4H   LINE      CODE     ---       #1314
      010009C4H   LINE      CODE     ---       #1315
      010009C7H   LINE      CODE     ---       #1316
LX51 LINKER/LOCATER V4.47a                                                            02/02/2015  10:52:25  PAGE 40


      010009D0H   LINE      CODE     ---       #1317
      010009D0H   LINE      CODE     ---       #1318
      010009DBH   LINE      CODE     ---       #1319
      010009DBH   LINE      CODE     ---       #1320
      010009E7H   LINE      CODE     ---       #1321
      010009F0H   LINE      CODE     ---       #1322
      010009F0H   LINE      CODE     ---       #1323
      010009F9H   LINE      CODE     ---       #1325
      01000A01H   LINE      CODE     ---       #1327
      01000A06H   LINE      CODE     ---       #1328
      01000A19H   LINE      CODE     ---       #1329
      01000A21H   LINE      CODE     ---       #1331
      01000A32H   LINE      CODE     ---       #1332
      01000A34H   LINE      CODE     ---       #1334
      01000A48H   LINE      CODE     ---       #1335
      01000A50H   LINE      CODE     ---       #1337
      01000A6AH   LINE      CODE     ---       #1338
      01000A6AH   LINE      CODE     ---       #1339
      01000A70H   LINE      CODE     ---       #1340
      01000A70H   LINE      CODE     ---       #1341
      01000A70H   LINE      CODE     ---       #1342
      01000A70H   LINE      CODE     ---       #1343
      01000A73H   LINE      CODE     ---       #1344
      01000A79H   LINE      CODE     ---       #1345
      01000A79H   LINE      CODE     ---       #1346
      01000A84H   LINE      CODE     ---       #1347
      01000A84H   LINE      CODE     ---       #1348
      01000A91H   LINE      CODE     ---       #1349
      01000A9DH   LINE      CODE     ---       #1350
      01000AA6H   LINE      CODE     ---       #1351
      01000AA6H   LINE      CODE     ---       #1352
      01000AACH   LINE      CODE     ---       #1353
      01000AB5H   LINE      CODE     ---       #1354
      01000ABDH   LINE      CODE     ---       #1355
      01000AC0H   LINE      CODE     ---       #1356
      01000ACBH   LINE      CODE     ---       #1357
      01000AD5H   LINE      CODE     ---       #1358
      01000AD5H   LINE      CODE     ---       #1359
      01000AD5H   LINE      CODE     ---       #1360
      01000AD5H   LINE      CODE     ---       #1361
      01000AD8H   LINE      CODE     ---       #1362
      01000AE1H   LINE      CODE     ---       #1363
      01000AE1H   LINE      CODE     ---       #1364
      01000AECH   LINE      CODE     ---       #1365
      01000AECH   LINE      CODE     ---       #1366
      01000AF8H   LINE      CODE     ---       #1367
      01000B01H   LINE      CODE     ---       #1368
      01000B01H   LINE      CODE     ---       #1369
      01000B0AH   LINE      CODE     ---       #1370
      01000B12H   LINE      CODE     ---       #1371
      01000B15H   LINE      CODE     ---       #1372
      01000B1AH   LINE      CODE     ---       #1373
      01000B2DH   LINE      CODE     ---       #1374
      01000B35H   LINE      CODE     ---       #1376
      01000B46H   LINE      CODE     ---       #1377
      01000B48H   LINE      CODE     ---       #1379
      01000B5CH   LINE      CODE     ---       #1380
      01000B64H   LINE      CODE     ---       #1382
      01000B7EH   LINE      CODE     ---       #1383
      01000B7EH   LINE      CODE     ---       #1384
      01000B87H   LINE      CODE     ---       #1385
      01000B87H   LINE      CODE     ---       #1386
      01000B87H   LINE      CODE     ---       #1387
      01000B87H   LINE      CODE     ---       #1388
      01000B8AH   LINE      CODE     ---       #1390
LX51 LINKER/LOCATER V4.47a                                                            02/02/2015  10:52:25  PAGE 41


      01000B90H   LINE      CODE     ---       #1391
      01000B90H   LINE      CODE     ---       #1392
      01000BA4H   LINE      CODE     ---       #1393
      01000BA9H   LINE      CODE     ---       #1394
      01000BB2H   LINE      CODE     ---       #1395
      01000BC1H   LINE      CODE     ---       #1396
      01000BC1H   LINE      CODE     ---       #1397
      01000BD5H   LINE      CODE     ---       #1398
      01000BDEH   LINE      CODE     ---       #1399
      01000BDEH   LINE      CODE     ---       #1400
      01000BE7H   LINE      CODE     ---       #1401
      01000BE7H   LINE      CODE     ---       #1402
      01000BE7H   LINE      CODE     ---       #1403
      01000BE7H   LINE      CODE     ---       #1404
      01000BEAH   LINE      CODE     ---       #1405
      01000BF0H   LINE      CODE     ---       #1406
      01000BF0H   LINE      CODE     ---       #1407
      01000C04H   LINE      CODE     ---       #1408
      01000C09H   LINE      CODE     ---       #1409
      01000C12H   LINE      CODE     ---       #1410
      01000C21H   LINE      CODE     ---       #1411
      01000C21H   LINE      CODE     ---       #1412
      01000C35H   LINE      CODE     ---       #1414
      01000C3EH   LINE      CODE     ---       #1415
      01000C3EH   LINE      CODE     ---       #1416
      01000C47H   LINE      CODE     ---       #1417
      01000C47H   LINE      CODE     ---       #1418
      01000C47H   LINE      CODE     ---       #1419
      01000C47H   LINE      CODE     ---       #1420
      01000C4AH   LINE      CODE     ---       #1421
      01000C53H   LINE      CODE     ---       #1422
      01000C53H   LINE      CODE     ---       #1423
      01000C5EH   LINE      CODE     ---       #1424
      01000C5EH   LINE      CODE     ---       #1425
      01000C67H   LINE      CODE     ---       #1427
      01000C79H   LINE      CODE     ---       #1428
      01000C7CH   LINE      CODE     ---       #1429
      01000C7CH   LINE      CODE     ---       #1430
      01000C7EH   LINE      CODE     ---       #1432
      01000C7EH   LINE      CODE     ---       #1433
      01000C86H   LINE      CODE     ---       #1434
      01000C86H   LINE      CODE     ---       #1435
      01000C92H   LINE      CODE     ---       #1436
      01000CA4H   LINE      CODE     ---       #1437
      01000CABH   LINE      CODE     ---       #1438
      01000CABH   LINE      CODE     ---       #1439
      01000CABH   LINE      CODE     ---       #1440
      01000CB8H   LINE      CODE     ---       #1442
      01000CC1H   LINE      CODE     ---       #1443
      01000CC1H   LINE      CODE     ---       #1444
      01000CC8H   LINE      CODE     ---       #1445
      01000CCFH   LINE      CODE     ---       #1446
      01000CCFH   LINE      CODE     ---       #1447
      01000CCFH   LINE      CODE     ---       #1449
      01000CD2H   LINE      CODE     ---       #1450
      01000CD8H   LINE      CODE     ---       #1451
      01000CD8H   LINE      CODE     ---       #1452
      01000CE3H   LINE      CODE     ---       #1453
      01000CE3H   LINE      CODE     ---       #1454
      01000CEFH   LINE      CODE     ---       #1456
      01000D01H   LINE      CODE     ---       #1457
      01000D03H   LINE      CODE     ---       #1458
      01000D03H   LINE      CODE     ---       #1459
      01000D05H   LINE      CODE     ---       #1461
      01000D05H   LINE      CODE     ---       #1462
LX51 LINKER/LOCATER V4.47a                                                            02/02/2015  10:52:25  PAGE 42


      01000D0DH   LINE      CODE     ---       #1463
      01000D0DH   LINE      CODE     ---       #1464
      01000D17H   LINE      CODE     ---       #1465
      01000D29H   LINE      CODE     ---       #1466
      01000D30H   LINE      CODE     ---       #1467
      01000D30H   LINE      CODE     ---       #1468
      01000D30H   LINE      CODE     ---       #1469
      01000D3AH   LINE      CODE     ---       #1471
      01000D43H   LINE      CODE     ---       #1472
      01000D43H   LINE      CODE     ---       #1473
      01000D4AH   LINE      CODE     ---       #1474
      01000D51H   LINE      CODE     ---       #1475
      01000D51H   LINE      CODE     ---       #1476
      01000D51H   LINE      CODE     ---       #1477
      01000D54H   LINE      CODE     ---       #1478
      01000D5DH   LINE      CODE     ---       #1479
      01000D5DH   LINE      CODE     ---       #1480
      01000D6BH   LINE      CODE     ---       #1481
      01000D6BH   LINE      CODE     ---       #1482
      01000D81H   LINE      CODE     ---       #1483
      01000D98H   LINE      CODE     ---       #1484
      01000DCEH   LINE      CODE     ---       #1485
      01000DF1H   LINE      CODE     ---       #1486
      01000E03H   LINE      CODE     ---       #1487
      01000E06H   LINE      CODE     ---       #1488
      01000E09H   LINE      CODE     ---       #1490
      01000E09H   LINE      CODE     ---       #1491
      01000E14H   LINE      CODE     ---       #1492
      01000E14H   LINE      CODE     ---       #1493
      01000E2BH   LINE      CODE     ---       #1494
      01000E41H   LINE      CODE     ---       #1495
      01000E75H   LINE      CODE     ---       #1496
      01000E97H   LINE      CODE     ---       #1497
      01000EA9H   LINE      CODE     ---       #1498
      01000EB0H   LINE      CODE     ---       #1499
      01000EB0H   LINE      CODE     ---       #1500
      01000EB0H   LINE      CODE     ---       #1501
      01000EBAH   LINE      CODE     ---       #1503
      01000EC3H   LINE      CODE     ---       #1504
      01000EC3H   LINE      CODE     ---       #1505
      01000ECAH   LINE      CODE     ---       #1506
      01000ED1H   LINE      CODE     ---       #1507
      01000ED1H   LINE      CODE     ---       #1508
      01000ED1H   LINE      CODE     ---       #1509
      01000ED4H   LINE      CODE     ---       #1510
      01000EDAH   LINE      CODE     ---       #1511
      01000EDAH   LINE      CODE     ---       #1512
      01000EE5H   LINE      CODE     ---       #1513
      01000EE5H   LINE      CODE     ---       #1514
      01000EEEH   LINE      CODE     ---       #1516
      01000F00H   LINE      CODE     ---       #1517
      01000F03H   LINE      CODE     ---       #1518
      01000F03H   LINE      CODE     ---       #1519
      01000F05H   LINE      CODE     ---       #1521
      01000F05H   LINE      CODE     ---       #1522
      01000F0DH   LINE      CODE     ---       #1523
      01000F0DH   LINE      CODE     ---       #1524
      01000F17H   LINE      CODE     ---       #1526
      01000F29H   LINE      CODE     ---       #1527
      01000F30H   LINE      CODE     ---       #1528
      01000F30H   LINE      CODE     ---       #1529
      01000F30H   LINE      CODE     ---       #1530
      01000F30H   LINE      CODE     ---       #1531
      01000F3AH   LINE      CODE     ---       #1532
      01000F43H   LINE      CODE     ---       #1533
LX51 LINKER/LOCATER V4.47a                                                            02/02/2015  10:52:25  PAGE 43


      01000F43H   LINE      CODE     ---       #1534
      01000F4AH   LINE      CODE     ---       #1535
      01000F51H   LINE      CODE     ---       #1536
      01000F51H   LINE      CODE     ---       #1537
      01000F51H   LINE      CODE     ---       #1538
      01000F54H   LINE      CODE     ---       #1539
      01000F5DH   LINE      CODE     ---       #1540
      01000F5DH   LINE      CODE     ---       #1541
      01000F68H   LINE      CODE     ---       #1542
      01000F68H   LINE      CODE     ---       #1543
      01000F71H   LINE      CODE     ---       #1545
      01000F71H   LINE      CODE     ---       #1546
      01000F83H   LINE      CODE     ---       #1547
      01000F86H   LINE      CODE     ---       #1548
      01000F86H   LINE      CODE     ---       #1549
      01000F88H   LINE      CODE     ---       #1551
      01000F88H   LINE      CODE     ---       #1552
      01000F90H   LINE      CODE     ---       #1553
      01000F90H   LINE      CODE     ---       #1554
      01000F9AH   LINE      CODE     ---       #1556
      01000FACH   LINE      CODE     ---       #1557
      01000FB3H   LINE      CODE     ---       #1558
      01000FB3H   LINE      CODE     ---       #1559
      01000FB3H   LINE      CODE     ---       #1560
      01000FB3H   LINE      CODE     ---       #1561
      01000FBDH   LINE      CODE     ---       #1562
      01000FC6H   LINE      CODE     ---       #1563
      01000FC6H   LINE      CODE     ---       #1564
      01000FCDH   LINE      CODE     ---       #1565
      01000FD4H   LINE      CODE     ---       #1566
      01000FE5H   LINE      CODE     ---       #1567
      01000FE5H   LINE      CODE     ---       #1568
      01000FE8H   LINE      CODE     ---       #1569
      01000FF2H   LINE      CODE     ---       #1570
      01000FF2H   LINE      CODE     ---       #1571
      01000FF5H   LINE      CODE     ---       #1572
      01000FF7H   LINE      CODE     ---       #1573
      01000FF7H   LINE      CODE     ---       #1574
      01000FFAH   LINE      CODE     ---       #1575
      ---         BLOCKEND  ---      ---       LVL=0

      01005BE2H   BLOCK     CODE     ---       LVL=0
      01005BE2H   LINE      CODE     ---       #1578
      01005BE2H   LINE      CODE     ---       #1579
      01005BE2H   LINE      CODE     ---       #1580
      01005BE9H   LINE      CODE     ---       #1581
      01005BF0H   LINE      CODE     ---       #1582
      01005BFAH   LINE      CODE     ---       #1584
      01005BFFH   LINE      CODE     ---       #1586
      01005BFFH   LINE      CODE     ---       #1587
      01005C06H   LINE      CODE     ---       #1588
      01005C0DH   LINE      CODE     ---       #1589
      01005C14H   LINE      CODE     ---       #1590
      01005C1EH   LINE      CODE     ---       #1591
      01005C25H   LINE      CODE     ---       #1592
      01005C2CH   LINE      CODE     ---       #1593
      01005C36H   LINE      CODE     ---       #1594
      01005C36H   LINE      CODE     ---       #1596
      ---         BLOCKEND  ---      ---       LVL=0

      01005AA0H   BLOCK     CODE     ---       LVL=0
      01005AA0H   LINE      CODE     ---       #1618
      01005AA0H   LINE      CODE     ---       #1619
      01005AA0H   LINE      CODE     ---       #1620
      01005AAAH   LINE      CODE     ---       #1621
LX51 LINKER/LOCATER V4.47a                                                            02/02/2015  10:52:25  PAGE 44


      01005AB1H   LINE      CODE     ---       #1622
      01005AB8H   LINE      CODE     ---       #1623
      01005AC2H   LINE      CODE     ---       #1624
      01005AC9H   LINE      CODE     ---       #1625
      01005AD0H   LINE      CODE     ---       #1626
      01005AD7H   LINE      CODE     ---       #1628
      01005ADFH   LINE      CODE     ---       #1629
      01005ADFH   LINE      CODE     ---       #1630
      01005AE6H   LINE      CODE     ---       #1631
      01005AEDH   LINE      CODE     ---       #1632
      01005AF4H   LINE      CODE     ---       #1633
      01005AFBH   LINE      CODE     ---       #1634
      01005B02H   LINE      CODE     ---       #1635
      01005B09H   LINE      CODE     ---       #1636
      01005B10H   LINE      CODE     ---       #1637
      01005B10H   LINE      CODE     ---       #1638
      ---         BLOCKEND  ---      ---       LVL=0

      010055CDH   BLOCK     CODE     ---       LVL=0
      010055CDH   LINE      CODE     ---       #1640
      010055CDH   LINE      CODE     ---       #1641
      010055CDH   LINE      CODE     ---       #1642
      010055D0H   LINE      CODE     ---       #1643
      010055D7H   LINE      CODE     ---       #1644
      010055DEH   LINE      CODE     ---       #1645
      010055E5H   LINE      CODE     ---       #1647
      010055EDH   LINE      CODE     ---       #1648
      010055F6H   LINE      CODE     ---       #1649
      010055FEH   LINE      CODE     ---       #1650
      01005607H   LINE      CODE     ---       #1651
      0100560FH   LINE      CODE     ---       #1652
      01005618H   LINE      CODE     ---       #1653
      01005621H   LINE      CODE     ---       #1654
      0100562AH   LINE      CODE     ---       #1655
      01005632H   LINE      CODE     ---       #1656
      0100563BH   LINE      CODE     ---       #1658
      01005642H   LINE      CODE     ---       #1659
      01005649H   LINE      CODE     ---       #1660
      01005650H   LINE      CODE     ---       #1661
      01005657H   LINE      CODE     ---       #1662
      0100565EH   LINE      CODE     ---       #1663
      01005665H   LINE      CODE     ---       #1664
      0100566CH   LINE      CODE     ---       #1665
      01005673H   LINE      CODE     ---       #1666
      0100567CH   LINE      CODE     ---       #1667
      01005685H   LINE      CODE     ---       #1668
      0100568EH   LINE      CODE     ---       #1669
      01005697H   LINE      CODE     ---       #1670
      0100569FH   LINE      CODE     ---       #1671
      010056A8H   LINE      CODE     ---       #1672
      ---         BLOCKEND  ---      ---       LVL=0

      010054EBH   BLOCK     CODE     ---       LVL=0
      010054EBH   LINE      CODE     ---       #1675
      010054EBH   LINE      CODE     ---       #1676
      010054EBH   LINE      CODE     ---       #1677
      010054EEH   LINE      CODE     ---       #1678
      010054F1H   LINE      CODE     ---       #1679
      010054F8H   LINE      CODE     ---       #1680
      010054FFH   LINE      CODE     ---       #1681
      01005506H   LINE      CODE     ---       #1682
      0100550FH   LINE      CODE     ---       #1683
      01005518H   LINE      CODE     ---       #1684
      01005521H   LINE      CODE     ---       #1685
      0100552AH   LINE      CODE     ---       #1686
LX51 LINKER/LOCATER V4.47a                                                            02/02/2015  10:52:25  PAGE 45


      01005533H   LINE      CODE     ---       #1687
      0100553CH   LINE      CODE     ---       #1689
      01005545H   LINE      CODE     ---       #1690
      0100554EH   LINE      CODE     ---       #1691
      01005557H   LINE      CODE     ---       #1692
      01005560H   LINE      CODE     ---       #1693
      01005567H   LINE      CODE     ---       #1695
      0100556EH   LINE      CODE     ---       #1696
      01005575H   LINE      CODE     ---       #1697
      0100557CH   LINE      CODE     ---       #1698
      01005583H   LINE      CODE     ---       #1699
      0100558AH   LINE      CODE     ---       #1700
      01005591H   LINE      CODE     ---       #1701
      01005598H   LINE      CODE     ---       #1702
      010055A1H   LINE      CODE     ---       #1703
      010055AAH   LINE      CODE     ---       #1704
      010055B3H   LINE      CODE     ---       #1705
      010055BCH   LINE      CODE     ---       #1706
      010055C5H   LINE      CODE     ---       #1707
      010055CCH   LINE      CODE     ---       #1708
      ---         BLOCKEND  ---      ---       LVL=0

      01004C85H   BLOCK     CODE     ---       LVL=0
      01004C85H   LINE      CODE     ---       #1712
      01004C85H   LINE      CODE     ---       #1713
      01004C85H   LINE      CODE     ---       #1714
      01004C87H   LINE      CODE     ---       #1715
      01004C90H   LINE      CODE     ---       #1716
      01004C93H   LINE      CODE     ---       #1717
      01004C96H   LINE      CODE     ---       #1718
      01004C98H   LINE      CODE     ---       #1720
      01004C9BH   LINE      CODE     ---       #1721
      01004C9EH   LINE      CODE     ---       #1722
      01004CA1H   LINE      CODE     ---       #1723
      01004CAAH   LINE      CODE     ---       #1724
      01004CADH   LINE      CODE     ---       #1725
      01004CB0H   LINE      CODE     ---       #1726
      01004CB3H   LINE      CODE     ---       #1727
      01004CB5H   LINE      CODE     ---       #1728
      01004CBAH   LINE      CODE     ---       #1729
      01004CBAH   LINE      CODE     ---       #1730
      01004CBCH   LINE      CODE     ---       #1731
      01004CBEH   LINE      CODE     ---       #1732
      01004CC1H   LINE      CODE     ---       #1733
      01004CC4H   LINE      CODE     ---       #1734
      01004CC7H   LINE      CODE     ---       #1735
      01004CD0H   LINE      CODE     ---       #1736
      01004CD3H   LINE      CODE     ---       #1737
      01004CD6H   LINE      CODE     ---       #1738
      01004CD9H   LINE      CODE     ---       #1739
      01004CDCH   LINE      CODE     ---       #1740
      01004CDFH   LINE      CODE     ---       #1741
      01004CE2H   LINE      CODE     ---       #1742
      01004CEBH   LINE      CODE     ---       #1743
      01004CEEH   LINE      CODE     ---       #1744
      01004CF1H   LINE      CODE     ---       #1745
      01004CF4H   LINE      CODE     ---       #1747
      01004CF7H   LINE      CODE     ---       #1748
      01004CF9H   LINE      CODE     ---       #1749
      01004CFBH   LINE      CODE     ---       #1750
      01004CFEH   LINE      CODE     ---       #1751
      01004D01H   LINE      CODE     ---       #1752
      01004D04H   LINE      CODE     ---       #1753
      01004D07H   LINE      CODE     ---       #1754
      01004D0AH   LINE      CODE     ---       #1755
LX51 LINKER/LOCATER V4.47a                                                            02/02/2015  10:52:25  PAGE 46


      01004D0DH   LINE      CODE     ---       #1756
      01004D13H   LINE      CODE     ---       #1757
      01004D16H   LINE      CODE     ---       #1758
      01004D1CH   LINE      CODE     ---       #1759
      01004D21H   LINE      CODE     ---       #1760
      01004D24H   LINE      CODE     ---       #1762
      01004D4FH   LINE      CODE     ---       #1763
      01004D4FH   LINE      CODE     ---       #1764
      01004D56H   LINE      CODE     ---       #1765
      01004D5DH   LINE      CODE     ---       #1766
      01004D64H   LINE      CODE     ---       #1767
      01004D6BH   LINE      CODE     ---       #1768
      01004D72H   LINE      CODE     ---       #1769
      01004D75H   LINE      CODE     ---       #1770
      01004D78H   LINE      CODE     ---       #1771
      01004D78H   LINE      CODE     ---       #1772
      01004D7BH   LINE      CODE     ---       #1773
      01004D82H   LINE      CODE     ---       #1774
      01004D89H   LINE      CODE     ---       #1775
      01004D90H   LINE      CODE     ---       #1776
      01004D99H   LINE      CODE     ---       #1777
      01004DA2H   LINE      CODE     ---       #1778
      01004DABH   LINE      CODE     ---       #1779
      01004DB4H   LINE      CODE     ---       #1780
      01004DBDH   LINE      CODE     ---       #1781
      01004DC6H   LINE      CODE     ---       #1783
      01004DCFH   LINE      CODE     ---       #1784
      01004DD8H   LINE      CODE     ---       #1785
      01004DE1H   LINE      CODE     ---       #1786
      01004DEAH   LINE      CODE     ---       #1787
      01004DF1H   LINE      CODE     ---       #1788
      01004DF8H   LINE      CODE     ---       #1789
      01004DFFH   LINE      CODE     ---       #1790
      01004E06H   LINE      CODE     ---       #1791
      01004E0DH   LINE      CODE     ---       #1792
      01004E14H   LINE      CODE     ---       #1793
      01004E1BH   LINE      CODE     ---       #1795
      01004E24H   LINE      CODE     ---       #1796
      01004E2DH   LINE      CODE     ---       #1797
      01004E36H   LINE      CODE     ---       #1798
      01004E3FH   LINE      CODE     ---       #1799
      01004E48H   LINE      CODE     ---       #1800
      01004E4FH   LINE      CODE     ---       #1801
      01004E59H   LINE      CODE     ---       #1802
      01004E5CH   LINE      CODE     ---       #1805
      01004E5EH   LINE      CODE     ---       #1806
      01004E60H   LINE      CODE     ---       #1807
      01004E62H   LINE      CODE     ---       #1808
      01004E64H   LINE      CODE     ---       #1809
      01004E66H   LINE      CODE     ---       #1810
      01004E69H   LINE      CODE     ---       #1812
      01004E6CH   LINE      CODE     ---       #1814
      01004E70H   LINE      CODE     ---       #1815
      01004E77H   LINE      CODE     ---       #1816
      01004E7CH   LINE      CODE     ---       #1817
      01004E83H   LINE      CODE     ---       #1818
      01004E88H   LINE      CODE     ---       #1819
      01004E8FH   LINE      CODE     ---       #1820
      01004E94H   LINE      CODE     ---       #1821
      01004E9CH   LINE      CODE     ---       #1824
      01004E9CH   LINE      CODE     ---       #1825
      01004E9CH   LINE      CODE     ---       #1826
      01004EB1H   LINE      CODE     ---       #1827
      01004EB1H   LINE      CODE     ---       #1828
      01004EB1H   LINE      CODE     ---       #1829
LX51 LINKER/LOCATER V4.47a                                                            02/02/2015  10:52:25  PAGE 47


      01004EB5H   LINE      CODE     ---       #1830
      01004EC2H   LINE      CODE     ---       #1831
      01004EC5H   LINE      CODE     ---       #1832
      01004EC7H   LINE      CODE     ---       #1834
      01004EC7H   LINE      CODE     ---       #1835
      01004ECAH   LINE      CODE     ---       #1836
      01004ECCH   LINE      CODE     ---       #1838
      01004ECCH   LINE      CODE     ---       #1839
      01004ECFH   LINE      CODE     ---       #1840
      01004ED1H   LINE      CODE     ---       #1842
      01004ED1H   LINE      CODE     ---       #1843
      01004ED4H   LINE      CODE     ---       #1844
      01004ED6H   LINE      CODE     ---       #1846
      01004ED6H   LINE      CODE     ---       #1847
      01004ED9H   LINE      CODE     ---       #1848
      01004EDCH   LINE      CODE     ---       #1850
      01004EDEH   LINE      CODE     ---       #1852
      01004EDEH   LINE      CODE     ---       #1853
      01004EE1H   LINE      CODE     ---       #1854
      ---         BLOCKEND  ---      ---       LVL=0

      ---         MODULE    ---      ---       LED
      0100620AH   PUBLIC    CONST    ---       Point_tab_LED
      010061EEH   PUBLIC    CONST    ---       tab_LED
      00000078H   PUBLIC    DATA     BYTE      ?_LED_DATA_Write?BYTE
      010056ABH   PUBLIC    CODE     ---       _LED_DATA_Write
      01005EBFH   PUBLIC    CODE     ---       LED_Init
      010061CBH   PUBLIC    CODE     ---       _BitDly
      01006066H   PUBLIC    CODE     ---       LED_Fill
      010027E7H   PUBLIC    CODE     ---       _SETUP_LED_Disp
      01002057H   PUBLIC    CODE     ---       _LED_Disp
      000000B0H   SFRSYM    DATA     BIT       R485_RX
      000000D8H.2 SFRSYM    DATA     BIT       CCF2
      00000098H.3 SFRSYM    DATA     BIT       TB80
      000000F6H   SFRSYM    DATA     BYTE      PCAPWM4
      00000091H   SFRSYM    DATA     BYTE      P1M0
      00000094H   SFRSYM    DATA     BYTE      P0M1
      00000090H.7 SFRSYM    DATA     BIT       non3
      000000D8H.3 SFRSYM    DATA     BIT       CCF3
      00000098H.3 SFRSYM    DATA     BIT       TB81
      000000F7H   SFRSYM    DATA     BYTE      PCAPWM5
      00000095H   SFRSYM    DATA     BYTE      P2M0
      00000092H   SFRSYM    DATA     BYTE      P1M1
      00000080H   SFRSYM    DATA     BYTE      P0
      000000B0H.1 SFRSYM    DATA     BIT       R485_TX
      000000D8H.4 SFRSYM    DATA     BIT       CCF4
      00000098H.7 SFRSYM    DATA     BIT       SM00
      000000B1H   SFRSYM    DATA     BYTE      P3M0
      00000096H   SFRSYM    DATA     BYTE      P2M1
      00000090H   SFRSYM    DATA     BYTE      P1
      000000D8H.5 SFRSYM    DATA     BIT       CCF5
      00000098H.7 SFRSYM    DATA     BIT       SM01
      00000098H.6 SFRSYM    DATA     BIT       SM10
      000000B3H   SFRSYM    DATA     BYTE      P4M0
      000000B2H   SFRSYM    DATA     BYTE      P3M1
      000000A0H   SFRSYM    DATA     BYTE      P2
      00000098H.6 SFRSYM    DATA     BIT       SM11
      00000098H.5 SFRSYM    DATA     BIT       SM20
      000000E7H   SFRSYM    DATA     BYTE      ISPCR
      000000B5H   SFRSYM    DATA     BYTE      P5M0
      000000B4H   SFRSYM    DATA     BYTE      P4M1
      000000B0H   SFRSYM    DATA     BYTE      P3
      000000C0H   SFRSYM    DATA     BYTE      XICON
      000000A0H.2 SFRSYM    DATA     BIT       EEPROM_SDA
      00000080H.7 SFRSYM    DATA     BIT       DOWN_KEY
LX51 LINKER/LOCATER V4.47a                                                            02/02/2015  10:52:25  PAGE 48


      000000B0H.4 SFRSYM    DATA     BIT       T0
      00000098H.5 SFRSYM    DATA     BIT       SM21
      000000D0H.6 SFRSYM    DATA     BIT       AC
      00000097H   SFRSYM    DATA     BYTE      EVRCR
      000000B6H   SFRSYM    DATA     BYTE      P5M1
      000000E8H   SFRSYM    DATA     BYTE      P4
      000000B0H.5 SFRSYM    DATA     BIT       T1
      00000085H   SFRSYM    DATA     BYTE      SPCON
      000000F8H   SFRSYM    DATA     BYTE      P5
      000000ADH   SFRSYM    DATA     BYTE      EIE1
      00000090H   SFRSYM    DATA     BIT       T2
      000000A8H.7 SFRSYM    DATA     BIT       EA
      000000ACH   SFRSYM    DATA     BYTE      SFRPI
      000000E1H   SFRSYM    DATA     BYTE      WDTCR
      000000C8H   SFRSYM    DATA     BYTE      P6
      000000A0H.4 SFRSYM    DATA     BIT       mV_SCL
      000000A0H   SFRSYM    DATA     BIT       KBI0
      00000090H.5 SFRSYM    DATA     BIT       SPI_MOSI
      00000090H.6 SFRSYM    DATA     BIT       SPI_MISO
      00000080H.5 SFRSYM    DATA     BIT       mA_OUT
      000000A0H.1 SFRSYM    DATA     BIT       KBI1
      00000085H   SFRSYM    DATA     BYTE      SPCTL
      000000A0H.2 SFRSYM    DATA     BIT       KBI2
      00000090H   SFRSYM    DATA     BIT       AIN0
      000000D8H.7 SFRSYM    DATA     BIT       CF
      000000AEH   SFRSYM    DATA     BYTE      AUXIP
      000000A0H.3 SFRSYM    DATA     BIT       KBI3
      00000090H.1 SFRSYM    DATA     BIT       AIN1
      000000A0H.4 SFRSYM    DATA     BIT       KBI4
      00000090H.2 SFRSYM    DATA     BIT       AIN2
      00000098H.7 SFRSYM    DATA     BIT       FE
      000000F9H   SFRSYM    DATA     BYTE      CH
      000000A0H.5 SFRSYM    DATA     BIT       KBI5
      00000090H.3 SFRSYM    DATA     BIT       AIN3
      000000A0H.6 SFRSYM    DATA     BIT       KBI6
      00000090H.4 SFRSYM    DATA     BIT       AIN4
      000000A0H.3 SFRSYM    DATA     BIT       EEPROM_SCL
      00000080H.1 SFRSYM    DATA     BIT       RTD_C
      000000A0H.7 SFRSYM    DATA     BIT       KBI7
      00000090H.5 SFRSYM    DATA     BIT       AIN5
      000000A8H   SFRSYM    DATA     BYTE      IE
      00000090H.6 SFRSYM    DATA     BIT       AIN6
      000000E9H   SFRSYM    DATA     BYTE      CL
      00000090H.7 SFRSYM    DATA     BIT       AIN7
      00000090H.2 SFRSYM    DATA     BIT       CEX0
      000000FAH   SFRSYM    DATA     BYTE      CCAP0H
      000000C6H   SFRSYM    DATA     BYTE      ADCH
      00000090H.3 SFRSYM    DATA     BIT       CEX1
      000000FBH   SFRSYM    DATA     BYTE      CCAP1H
      000000B7H   SFRSYM    DATA     BYTE      IP0H
      000000A0H.2 SFRSYM    DATA     BIT       ALL_SDA
      00000090H.4 SFRSYM    DATA     BIT       CEX2
      000000FCH   SFRSYM    DATA     BYTE      CCAP2H
      000000B0H.3 SFRSYM    DATA     BIT       OFFSET_KEY
      00000090H.5 SFRSYM    DATA     BIT       CEX3
      000000FDH   SFRSYM    DATA     BYTE      CCAP3H
      00000090H.6 SFRSYM    DATA     BIT       CEX4
      000000D8H.6 SFRSYM    DATA     BIT       CR
      000000FEH   SFRSYM    DATA     BYTE      CCAP4H
      000000EAH   SFRSYM    DATA     BYTE      CCAP0L
      000000BEH   SFRSYM    DATA     BYTE      ADCL
      000000B0H.7 SFRSYM    DATA     BIT       RD
      00000090H.7 SFRSYM    DATA     BIT       CEX5
      000000C8H.6 SFRSYM    DATA     BIT       EXF2
      00000098H.4 SFRSYM    DATA     BIT       REN0
LX51 LINKER/LOCATER V4.47a                                                            02/02/2015  10:52:25  PAGE 49


      000000FFH   SFRSYM    DATA     BYTE      CCAP5H
      000000EBH   SFRSYM    DATA     BYTE      CCAP1L
      000000DAH   SFRSYM    DATA     BYTE      CCAPM0
      000000B8H   SFRSYM    DATA     BYTE      IP0L
      00000098H.4 SFRSYM    DATA     BIT       REN1
      000000ECH   SFRSYM    DATA     BYTE      CCAP2L
      000000DBH   SFRSYM    DATA     BYTE      CCAPM1
      000000C0H.3 SFRSYM    DATA     BIT       IT2H
      000000A8H.4 SFRSYM    DATA     BIT       ES
      00000097H   SFRSYM    DATA     BYTE      TSTWD
      000000EDH   SFRSYM    DATA     BYTE      CCAP3L
      000000DCH   SFRSYM    DATA     BYTE      CCAPM2
      000000C0H.7 SFRSYM    DATA     BIT       IT3H
      000000EEH   SFRSYM    DATA     BYTE      CCAP4L
      000000DDH   SFRSYM    DATA     BYTE      CCAPM3
      000000B8H   SFRSYM    DATA     BYTE      IP
      000000EFH   SFRSYM    DATA     BYTE      CCAP5L
      000000DEH   SFRSYM    DATA     BYTE      CCAPM4
      00000098H   SFRSYM    DATA     BIT       RI
      000000DFH   SFRSYM    DATA     BYTE      CCAPM5
      000000B0H.2 SFRSYM    DATA     BIT       INT0
      000000D0H.7 SFRSYM    DATA     BIT       CY
      000000B0H.4 SFRSYM    DATA     BIT       BEEP
      00000080H.4 SFRSYM    DATA     BIT       mV_OUT
      000000B0H.3 SFRSYM    DATA     BIT       INT1
      00000098H.1 SFRSYM    DATA     BIT       TI
      000000A0H.3 SFRSYM    DATA     BIT       EEP_SCL
      000000E8H.3 SFRSYM    DATA     BIT       INT2
      000000E8H.2 SFRSYM    DATA     BIT       INT3
      000000C6H   SFRSYM    DATA     BYTE      ADCV
      0000008FH   SFRSYM    DATA     BYTE      STRETCH
      000000B8H.1 SFRSYM    DATA     BIT       PT0L
      000000B8H.3 SFRSYM    DATA     BIT       PT1L
      000000CBH   SFRSYM    DATA     BYTE      RCAP2H
      000000A0H.2 SFRSYM    DATA     BIT       RTC_SDA
      000000B8H.4 SFRSYM    DATA     BIT       PS
      000000B8H.5 SFRSYM    DATA     BIT       PT2L
      00000081H   SFRSYM    DATA     BYTE      SP
      00000090H.1 SFRSYM    DATA     BIT       T2EX
      000000D9H   SFRSYM    DATA     BYTE      CMOD
      000000D8H   SFRSYM    DATA     BYTE      CCON
      0000009AH   SFRSYM    DATA     BYTE      SCFG
      000000B8H   SFRSYM    DATA     BIT       PX0L
      000000D0H.2 SFRSYM    DATA     BIT       OV
      000000B8H.2 SFRSYM    DATA     BIT       PX1L
      000000CAH   SFRSYM    DATA     BYTE      RCAP2L
      000000B8H.6 SFRSYM    DATA     BIT       PX2L
      00000090H.7 SFRSYM    DATA     BIT       SPI_CLK
      000000B8H.7 SFRSYM    DATA     BIT       PX3L
      000000E6H   SFRSYM    DATA     BYTE      SCMD
      000000B0H.6 SFRSYM    DATA     BIT       WR
      000000C8H.1 SFRSYM    DATA     BIT       C_T2
      00000084H   SFRSYM    DATA     BYTE      SPISTAT
      00000090H.6 SFRSYM    DATA     BIT       RTC_SCL
      000000C8H.5 SFRSYM    DATA     BIT       RCLK
      000000C8H.4 SFRSYM    DATA     BIT       TCLK
      00000080H   SFRSYM    DATA     BIT       P00
      000000E3H   SFRSYM    DATA     BYTE      IFADRH
      00000090H   SFRSYM    DATA     BIT       P10
      00000080H.1 SFRSYM    DATA     BIT       P01
      000000E5H   SFRSYM    DATA     BYTE      IFMT
      00000087H   SFRSYM    DATA     BYTE      PCON
      00000099H   SFRSYM    DATA     BYTE      SBUF
      000000A0H   SFRSYM    DATA     BIT       P20
      00000090H.1 SFRSYM    DATA     BIT       P11
LX51 LINKER/LOCATER V4.47a                                                            02/02/2015  10:52:25  PAGE 50


      00000080H.2 SFRSYM    DATA     BIT       P02
      000000B0H   SFRSYM    DATA     BIT       P30
      000000A0H.1 SFRSYM    DATA     BIT       P21
      00000090H.2 SFRSYM    DATA     BIT       P12
      00000080H.3 SFRSYM    DATA     BIT       P03
      000000B0H.2 SFRSYM    DATA     BIT       FUNCTION_KEY
      000000E8H   SFRSYM    DATA     BIT       P40
      000000B0H.1 SFRSYM    DATA     BIT       P31
      000000A0H.2 SFRSYM    DATA     BIT       P22
      00000090H.3 SFRSYM    DATA     BIT       P13
      00000080H.4 SFRSYM    DATA     BIT       P04
      000000E4H   SFRSYM    DATA     BYTE      IFADRL
      00000098H   SFRSYM    DATA     BYTE      SCON
      000000F8H   SFRSYM    DATA     BIT       P50
      000000E8H.1 SFRSYM    DATA     BIT       P41
      000000B0H.2 SFRSYM    DATA     BIT       P32
      000000A0H.3 SFRSYM    DATA     BIT       P23
      00000090H.4 SFRSYM    DATA     BIT       P14
      00000080H.5 SFRSYM    DATA     BIT       P05
      00000089H   SFRSYM    DATA     BYTE      TMOD
      00000088H   SFRSYM    DATA     BYTE      TCON
      000000C8H   SFRSYM    DATA     BIT       P60
      000000F8H.1 SFRSYM    DATA     BIT       P51
      000000E8H.2 SFRSYM    DATA     BIT       P42
      000000B0H.3 SFRSYM    DATA     BIT       P33
      000000A0H.4 SFRSYM    DATA     BIT       P24
      00000090H.5 SFRSYM    DATA     BIT       P15
      00000080H.6 SFRSYM    DATA     BIT       P06
      000000A0H.5 SFRSYM    DATA     BIT       TEMP
      000000C8H.1 SFRSYM    DATA     BIT       P61
      000000F8H.2 SFRSYM    DATA     BIT       P52
      000000E8H.3 SFRSYM    DATA     BIT       P43
      000000B0H.4 SFRSYM    DATA     BIT       P34
      000000A0H.5 SFRSYM    DATA     BIT       P25
      00000090H.6 SFRSYM    DATA     BIT       P16
      00000080H.7 SFRSYM    DATA     BIT       P07
      000000F8H.3 SFRSYM    DATA     BIT       P53
      000000E8H.4 SFRSYM    DATA     BIT       P44
      000000B0H.5 SFRSYM    DATA     BIT       P35
      000000A0H.6 SFRSYM    DATA     BIT       P26
      00000090H.7 SFRSYM    DATA     BIT       P17
      000000A0H   SFRSYM    DATA     BIT       Value_SDA
      000000E8H.5 SFRSYM    DATA     BIT       P45
      000000B0H.6 SFRSYM    DATA     BIT       P36
      000000A0H.7 SFRSYM    DATA     BIT       P27
      00000080H   SFRSYM    DATA     BIT       TC_C
      000000E8H.6 SFRSYM    DATA     BIT       P46
      000000B0H.7 SFRSYM    DATA     BIT       P37
      000000E8H.7 SFRSYM    DATA     BIT       P47
      000000D7H   SFRSYM    DATA     BYTE      KBMASK
      000000A0H.4 SFRSYM    DATA     BIT       OUT_SCL
      000000A0H   SFRSYM    DATA     BIT       AD_SDA
      00000088H.1 SFRSYM    DATA     BIT       IE0
      00000088H.3 SFRSYM    DATA     BIT       IE1
      00000090H   SFRSYM    DATA     BIT       LED1_SDA
      000000C0H.1 SFRSYM    DATA     BIT       IE2
      00000090H.3 SFRSYM    DATA     BIT       LED2_SDA
      000000C0H.5 SFRSYM    DATA     BIT       IE3
      000000A8H.6 SFRSYM    DATA     BIT       GF4
      0000008EH   SFRSYM    DATA     BYTE      AUXR
      000000F0H   SFRSYM    DATA     BYTE      B
      000000D5H   SFRSYM    DATA     BYTE      KBPATN
      000000A0H.1 SFRSYM    DATA     BIT       Value_SCL
      000000C8H   SFRSYM    DATA     BIT       CP_RL2
      000000A0H.6 SFRSYM    DATA     BIT       NONE_4
LX51 LINKER/LOCATER V4.47a                                                            02/02/2015  10:52:25  PAGE 51


      000000A0H.7 SFRSYM    DATA     BIT       NONE_5
      000000B0H.6 SFRSYM    DATA     BIT       NONE_6
      00000086H   SFRSYM    DATA     BYTE      SPIDAT
      000000E0H   SFRSYM    DATA     BYTE      ACC
      000000B0H.7 SFRSYM    DATA     BIT       NONE_7
      000000A0H.1 SFRSYM    DATA     BIT       AD_SCL
      000000A8H.4 SFRSYM    DATA     BIT       ES0
      000000A8H.1 SFRSYM    DATA     BIT       ET0
      00000090H.2 SFRSYM    DATA     BIT       LED1_SCL
      00000088H.5 SFRSYM    DATA     BIT       TF0
      000000A8H.3 SFRSYM    DATA     BIT       ET1
      00000090H.4 SFRSYM    DATA     BIT       LED2_SCL
      00000088H.7 SFRSYM    DATA     BIT       TF1
      00000098H   SFRSYM    DATA     BIT       RI0
      000000A8H.5 SFRSYM    DATA     BIT       ET2
      000000C8H.7 SFRSYM    DATA     BIT       TF2
      00000098H   SFRSYM    DATA     BIT       RI1
      00000098H.2 SFRSYM    DATA     BIT       RB8
      0000008CH   SFRSYM    DATA     BYTE      TH0
      00000088H   SFRSYM    DATA     BIT       IT0
      00000098H.1 SFRSYM    DATA     BIT       TI0
      000000A8H   SFRSYM    DATA     BIT       EX0
      0000008DH   SFRSYM    DATA     BYTE      TH1
      00000088H.2 SFRSYM    DATA     BIT       IT1
      00000098H.1 SFRSYM    DATA     BIT       TI1
      00000098H.3 SFRSYM    DATA     BIT       TB8
      000000A8H.2 SFRSYM    DATA     BIT       EX1
      00000085H   SFRSYM    DATA     BYTE      SPICON
      000000CDH   SFRSYM    DATA     BYTE      TH2
      000000C0H   SFRSYM    DATA     BIT       IT2
      000000C0H.2 SFRSYM    DATA     BIT       EX2
      000000D0H   SFRSYM    DATA     BIT       P
      000000C0H.4 SFRSYM    DATA     BIT       IT3
      000000C0H.6 SFRSYM    DATA     BIT       EX3
      00000098H.7 SFRSYM    DATA     BIT       SM0
      0000008AH   SFRSYM    DATA     BYTE      TL0
      00000080H.3 SFRSYM    DATA     BIT       mA_C
      000000C8H   SFRSYM    DATA     BIT       XOUT
      00000090H.1 SFRSYM    DATA     BIT       ECI
      00000098H.6 SFRSYM    DATA     BIT       SM1
      00000085H   SFRSYM    DATA     BYTE      SPICTL
      0000008BH   SFRSYM    DATA     BYTE      TL1
      000000AFH   SFRSYM    DATA     BYTE      AUXIPH
      000000E8H.6 SFRSYM    DATA     BIT       ALE
      00000098H.5 SFRSYM    DATA     BIT       SM2
      000000CCH   SFRSYM    DATA     BYTE      TL2
      000000E2H   SFRSYM    DATA     BYTE      IFD
      000000B8H.1 SFRSYM    DATA     BIT       PT0
      000000B0H.5 SFRSYM    DATA     BIT       R485_DE_RE
      000000B8H.3 SFRSYM    DATA     BIT       PT1
      000000D0H.3 SFRSYM    DATA     BIT       RS0
      00000088H.4 SFRSYM    DATA     BIT       TR0
      000000B8H.5 SFRSYM    DATA     BIT       PT2
      000000D0H.4 SFRSYM    DATA     BIT       RS1
      00000088H.6 SFRSYM    DATA     BIT       TR1
      000000C8H.2 SFRSYM    DATA     BIT       TR2
      000000B8H   SFRSYM    DATA     BIT       PX0
      000000AFH   SFRSYM    DATA     BYTE      EIP1H
      000000B8H.2 SFRSYM    DATA     BIT       PX1
      000000C0H.3 SFRSYM    DATA     BIT       PX2
      000000C0H.7 SFRSYM    DATA     BIT       PX3
      000000AEH   SFRSYM    DATA     BYTE      EIP1L
      00000083H   SFRSYM    DATA     BYTE      DPH
      000000C8H   SFRSYM    DATA     BIT       CKO
      00000082H   SFRSYM    DATA     BYTE      DPL
LX51 LINKER/LOCATER V4.47a                                                            02/02/2015  10:52:25  PAGE 52


      00000087H   SFRSYM    DATA     BYTE      PCON0
      00000084H   SFRSYM    DATA     BYTE      SPSTAT
      00000099H   SFRSYM    DATA     BYTE      SBUF0
      000000B7H   SFRSYM    DATA     BYTE      IPH
      000000B0H.4 SFRSYM    DATA     BIT       T0CKO
      00000097H   SFRSYM    DATA     BYTE      PCON1
      00000099H   SFRSYM    DATA     BYTE      SBUF1
      000000B0H.5 SFRSYM    DATA     BIT       T1CKO
      000000C8H.3 SFRSYM    DATA     BIT       EXEN2
      000000C7H   SFRSYM    DATA     BYTE      PCON2
      0000009AH   SFRSYM    DATA     BYTE      S2BUF
      00000098H   SFRSYM    DATA     BYTE      SCON0
      00000098H.4 SFRSYM    DATA     BIT       REN
      00000098H   SFRSYM    DATA     BYTE      SCON1
      00000080H.2 SFRSYM    DATA     BIT       mV_C
      000000C5H   SFRSYM    DATA     BYTE      ADCON
      000000A0H.2 SFRSYM    DATA     BIT       mA_SDA
      000000C9H   SFRSYM    DATA     BYTE      T2MOD
      000000C8H   SFRSYM    DATA     BYTE      T2CON
      000000C5H   SFRSYM    DATA     BYTE      ADCTL
      000000BEH   SFRSYM    DATA     BYTE      ADCVL
      000000B9H   SFRSYM    DATA     BYTE      SADEN
      0000009AH   SFRSYM    DATA     BYTE      S1BRT
      000000B0H   SFRSYM    DATA     BIT       RXD
      000000D6H   SFRSYM    DATA     BYTE      KBCON
      00000080H.6 SFRSYM    DATA     BIT       UP_KEY
      000000C8H.1 SFRSYM    DATA     BIT       XIN
      000000B8H.4 SFRSYM    DATA     BIT       PSL
      000000A9H   SFRSYM    DATA     BYTE      SADDR
      000000B0H.1 SFRSYM    DATA     BIT       TXD
      000000A0H.4 SFRSYM    DATA     BIT       mA_SCL
      0000008EH   SFRSYM    DATA     BYTE      AUXR0
      000000A2H   SFRSYM    DATA     BYTE      AUXR1
      00000090H.4 SFRSYM    DATA     BIT       SPI_SS
      000000A6H   SFRSYM    DATA     BYTE      AUXR2
      00000090H.2 SFRSYM    DATA     BIT       S2RXD
      000000D0H.5 SFRSYM    DATA     BIT       F0
      000000B0H.4 SFRSYM    DATA     BIT       BEEP_OUT
      00000090H.3 SFRSYM    DATA     BIT       S2TXD
      000000D0H.1 SFRSYM    DATA     BIT       F1
      00000090H.1 SFRSYM    DATA     BIT       LED1_LE
      00000090H.5 SFRSYM    DATA     BIT       LED2_LE
      000000F2H   SFRSYM    DATA     BYTE      PCAPWM0
      000000D0H   SFRSYM    DATA     BYTE      PSW
      000000F3H   SFRSYM    DATA     BYTE      PCAPWM1
      000000A0H.2 SFRSYM    DATA     BIT       mV_SDA
      000000D8H   SFRSYM    DATA     BIT       CCF0
      00000098H.2 SFRSYM    DATA     BIT       RB80
      000000F4H   SFRSYM    DATA     BYTE      PCAPWM2
      000000D8H.1 SFRSYM    DATA     BIT       CCF1
      00000098H.2 SFRSYM    DATA     BIT       RB81
      000000F5H   SFRSYM    DATA     BYTE      PCAPWM3
      00000086H   SFRSYM    DATA     BYTE      SPDAT
      00000093H   SFRSYM    DATA     BYTE      P0M0
      000000ADH   SFRSYM    DATA     BYTE      AUXIE

      01002057H   BLOCK     CODE     ---       LVL=0
      00000007H   SYMBOL    DATA     BYTE      LEDs
      00000004H   SYMBOL    DATA     WORD      disp_value
      01002057H   BLOCK     CODE     NEAR LAB  LVL=1
      00000007H   SYMBOL    DATA     BYTE      c
      00000067H   SYMBOL    DATA     BYTE      D0
      00000068H   SYMBOL    DATA     BYTE      D1
      00000069H   SYMBOL    DATA     BYTE      D2
      0000006AH   SYMBOL    DATA     BYTE      D3
LX51 LINKER/LOCATER V4.47a                                                            02/02/2015  10:52:25  PAGE 53


      0000006BH   SYMBOL    DATA     BYTE      D4
      0000006CH   SYMBOL    DATA     BYTE      D5
      0000006DH   SYMBOL    DATA     WORD      D_value
      ---         BLOCKEND  ---      ---       LVL=1
      01002057H   LINE      CODE     ---       #20
      01002057H   LINE      CODE     ---       #21
      01002057H   LINE      CODE     ---       #22
      01002057H   LINE      CODE     ---       #23
      0100205AH   LINE      CODE     ---       #24
      0100205CH   LINE      CODE     ---       #25
      0100205EH   LINE      CODE     ---       #26
      01002060H   LINE      CODE     ---       #27
      01002062H   LINE      CODE     ---       #28
      01002064H   LINE      CODE     ---       #31
      01002068H   LINE      CODE     ---       #32
      01002068H   LINE      CODE     ---       #34
      01002071H   LINE      CODE     ---       #35
      01002071H   LINE      CODE     ---       #36
      0100207CH   LINE      CODE     ---       #37
      0100207CH   LINE      CODE     ---       #38
      01002083H   LINE      CODE     ---       #39
      01002085H   LINE      CODE     ---       #40
      01002087H   LINE      CODE     ---       #41
      0100208CH   LINE      CODE     ---       #42
      01002096H   LINE      CODE     ---       #43
      010020AEH   LINE      CODE     ---       #44
      010020B8H   LINE      CODE     ---       #45
      010020B8H   LINE      CODE     ---       #46
      010020BBH   LINE      CODE     ---       #47
      010020D0H   LINE      CODE     ---       #48
      010020D0H   LINE      CODE     ---       #49
      010020D7H   LINE      CODE     ---       #50
      010020D9H   LINE      CODE     ---       #51
      010020DBH   LINE      CODE     ---       #52
      010020EDH   LINE      CODE     ---       #53
      010020FFH   LINE      CODE     ---       #54
      01002102H   LINE      CODE     ---       #55
      01002102H   LINE      CODE     ---       #56
      01002105H   LINE      CODE     ---       #57
      0100211AH   LINE      CODE     ---       #58
      0100211AH   LINE      CODE     ---       #59
      01002121H   LINE      CODE     ---       #60
      01002123H   LINE      CODE     ---       #61
      0100212AH   LINE      CODE     ---       #62
      01002133H   LINE      CODE     ---       #63
      01002148H   LINE      CODE     ---       #67
      0100215DH   LINE      CODE     ---       #68
      0100215DH   LINE      CODE     ---       #69
      01002164H   LINE      CODE     ---       #70
      0100216BH   LINE      CODE     ---       #71
      01002184H   LINE      CODE     ---       #72
      0100218DH   LINE      CODE     ---       #73
      010021A2H   LINE      CODE     ---       #77
      010021C7H   LINE      CODE     ---       #78
      010021C7H   LINE      CODE     ---       #79
      010021CEH   LINE      CODE     ---       #80
      010021E7H   LINE      CODE     ---       #81
      0100220DH   LINE      CODE     ---       #82
      01002216H   LINE      CODE     ---       #83
      01002225H   LINE      CODE     ---       #84
      01002225H   LINE      CODE     ---       #85
      01002225H   LINE      CODE     ---       #86
      01002225H   LINE      CODE     ---       #87
      01002228H   LINE      CODE     ---       #89
      01002228H   LINE      CODE     ---       #90
LX51 LINKER/LOCATER V4.47a                                                            02/02/2015  10:52:25  PAGE 54


      01002233H   LINE      CODE     ---       #91
      01002233H   LINE      CODE     ---       #92
      0100223AH   LINE      CODE     ---       #93
      0100223CH   LINE      CODE     ---       #94
      0100223EH   LINE      CODE     ---       #96
      01002256H   LINE      CODE     ---       #97
      01002272H   LINE      CODE     ---       #98
      01002285H   LINE      CODE     ---       #99
      01002285H   LINE      CODE     ---       #100
      01002288H   LINE      CODE     ---       #101
      010022A3H   LINE      CODE     ---       #102
      010022A3H   LINE      CODE     ---       #103
      010022AAH   LINE      CODE     ---       #104
      010022ACH   LINE      CODE     ---       #105
      010022AEH   LINE      CODE     ---       #107
      010022ECH   LINE      CODE     ---       #108
      01002331H   LINE      CODE     ---       #109
      01002367H   LINE      CODE     ---       #110
      01002367H   LINE      CODE     ---       #111
      0100236AH   LINE      CODE     ---       #112
      01002385H   LINE      CODE     ---       #113
      01002385H   LINE      CODE     ---       #114
      0100238CH   LINE      CODE     ---       #115
      0100238EH   LINE      CODE     ---       #116
      01002390H   LINE      CODE     ---       #118
      010023EDH   LINE      CODE     ---       #119
      01002451H   LINE      CODE     ---       #120
      010024A6H   LINE      CODE     ---       #121
      010024A6H   LINE      CODE     ---       #122
      010024A9H   LINE      CODE     ---       #123
      010024C4H   LINE      CODE     ---       #124
      010024C4H   LINE      CODE     ---       #125
      010024CBH   LINE      CODE     ---       #126
      010024CDH   LINE      CODE     ---       #127
      010024E6H   LINE      CODE     ---       #129
      01002551H   LINE      CODE     ---       #130
      010025C2H   LINE      CODE     ---       #131
      01002624H   LINE      CODE     ---       #132
      01002624H   LINE      CODE     ---       #133
      01002627H   LINE      CODE     ---       #134
      0100264CH   LINE      CODE     ---       #135
      0100264CH   LINE      CODE     ---       #136
      01002653H   LINE      CODE     ---       #137
      0100266CH   LINE      CODE     ---       #138
      01002692H   LINE      CODE     ---       #140
      010026FDH   LINE      CODE     ---       #141
      0100276DH   LINE      CODE     ---       #142
      010027D2H   LINE      CODE     ---       #143
      010027D2H   LINE      CODE     ---       #144
      010027D2H   LINE      CODE     ---       #145
      010027D2H   LINE      CODE     ---       #146
      ---         BLOCKEND  ---      ---       LVL=0

      010027E7H   BLOCK     CODE     ---       LVL=0
      00000007H   SYMBOL    DATA     BYTE      SETUP_SELECT
      0000006CH   SYMBOL    DATA     WORD      disp_value
      010027EBH   BLOCK     CODE     NEAR LAB  LVL=1
      0000006EH   SYMBOL    DATA     BYTE      setup_status
      0000006FH   SYMBOL    DATA     BYTE      D0
      00000070H   SYMBOL    DATA     BYTE      D1
      00000071H   SYMBOL    DATA     BYTE      D2
      00000072H   SYMBOL    DATA     BYTE      D3
      00000073H   SYMBOL    DATA     BYTE      D4
      00000074H   SYMBOL    DATA     BYTE      D5
      00000075H   SYMBOL    DATA     BYTE      D6
LX51 LINKER/LOCATER V4.47a                                                            02/02/2015  10:52:25  PAGE 55


      00000007H   SYMBOL    DATA     BYTE      K2
      00000003H   SYMBOL    DATA     BYTE      K3
      00000004H   SYMBOL    DATA     BYTE      K4
      00000005H   SYMBOL    DATA     BYTE      K5
      00000076H   SYMBOL    DATA     WORD      D_Value
      00000006H   SYMBOL    DATA     WORD      D_Count
      ---         BLOCKEND  ---      ---       LVL=1
      010027E7H   LINE      CODE     ---       #149
      010027EBH   LINE      CODE     ---       #150
      010027EBH   LINE      CODE     ---       #155
      010027EDH   LINE      CODE     ---       #157
      010027F1H   LINE      CODE     ---       #159
      010027F5H   LINE      CODE     ---       #160
      010027F5H   LINE      CODE     ---       #161
      010027FCH   LINE      CODE     ---       #162
      01002803H   LINE      CODE     ---       #163
      0100280AH   LINE      CODE     ---       #164
      01002811H   LINE      CODE     ---       #165
      01002818H   LINE      CODE     ---       #166
      0100281AH   LINE      CODE     ---       #167
      0100281DH   LINE      CODE     ---       #168
      01002826H   LINE      CODE     ---       #169
      01002826H   LINE      CODE     ---       #170
      0100282AH   LINE      CODE     ---       #171
      0100282AH   LINE      CODE     ---       #172
      01002830H   LINE      CODE     ---       #173
      01002837H   LINE      CODE     ---       #174
      0100283EH   LINE      CODE     ---       #175
      01002840H   LINE      CODE     ---       #176
      01002847H   LINE      CODE     ---       #177
      0100284CH   LINE      CODE     ---       #178
      0100284CH   LINE      CODE     ---       #179
      01002852H   LINE      CODE     ---       #180
      01002852H   LINE      CODE     ---       #181
      01002858H   LINE      CODE     ---       #182
      0100285FH   LINE      CODE     ---       #183
      01002866H   LINE      CODE     ---       #184
      0100286DH   LINE      CODE     ---       #185
      01002874H   LINE      CODE     ---       #186
      0100287BH   LINE      CODE     ---       #187
      0100287BH   LINE      CODE     ---       #188
      01002881H   LINE      CODE     ---       #189
      01002881H   LINE      CODE     ---       #190
      01002887H   LINE      CODE     ---       #191
      0100288EH   LINE      CODE     ---       #192
      01002895H   LINE      CODE     ---       #193
      01002897H   LINE      CODE     ---       #194
      01002899H   LINE      CODE     ---       #195
      010028A0H   LINE      CODE     ---       #196
      010028A0H   LINE      CODE     ---       #197
      010028A9H   LINE      CODE     ---       #198
      010028A9H   LINE      CODE     ---       #199
      010028AFH   LINE      CODE     ---       #200
      010028B6H   LINE      CODE     ---       #201
      010028BDH   LINE      CODE     ---       #202
      010028BFH   LINE      CODE     ---       #203
      010028C1H   LINE      CODE     ---       #204
      010028C4H   LINE      CODE     ---       #205
      010028C4H   LINE      CODE     ---       #206
      010028C7H   LINE      CODE     ---       #207
      010028CDH   LINE      CODE     ---       #208
      010028CDH   LINE      CODE     ---       #209
      010028D1H   LINE      CODE     ---       #210
      010028D1H   LINE      CODE     ---       #211
      010028D7H   LINE      CODE     ---       #212
LX51 LINKER/LOCATER V4.47a                                                            02/02/2015  10:52:25  PAGE 56


      010028DEH   LINE      CODE     ---       #213
      010028E5H   LINE      CODE     ---       #214
      010028E7H   LINE      CODE     ---       #215
      010028E9H   LINE      CODE     ---       #216
      010028ECH   LINE      CODE     ---       #217
      010028EFH   LINE      CODE     ---       #218
      010028F8H   LINE      CODE     ---       #219
      010028F8H   LINE      CODE     ---       #220
      010028FEH   LINE      CODE     ---       #221
      01002905H   LINE      CODE     ---       #222
      0100290CH   LINE      CODE     ---       #223
      0100290EH   LINE      CODE     ---       #224
      01002910H   LINE      CODE     ---       #225
      01002913H   LINE      CODE     ---       #226
      01002913H   LINE      CODE     ---       #227
      01002916H   LINE      CODE     ---       #228
      0100291FH   LINE      CODE     ---       #229
      0100291FH   LINE      CODE     ---       #230
      01002923H   LINE      CODE     ---       #231
      01002929H   LINE      CODE     ---       #232
      01002930H   LINE      CODE     ---       #233
      01002937H   LINE      CODE     ---       #234
      01002939H   LINE      CODE     ---       #235
      0100293CH   LINE      CODE     ---       #236
      0100293EH   LINE      CODE     ---       #237
      0100293EH   LINE      CODE     ---       #238
      01002944H   LINE      CODE     ---       #239
      0100294AH   LINE      CODE     ---       #240
      01002951H   LINE      CODE     ---       #241
      01002958H   LINE      CODE     ---       #242
      0100295AH   LINE      CODE     ---       #243
      01002961H   LINE      CODE     ---       #244
      01002968H   LINE      CODE     ---       #245
      01002968H   LINE      CODE     ---       #246
      0100296EH   LINE      CODE     ---       #247
      01002974H   LINE      CODE     ---       #248
      0100297BH   LINE      CODE     ---       #249
      01002982H   LINE      CODE     ---       #250
      01002984H   LINE      CODE     ---       #251
      0100298BH   LINE      CODE     ---       #252
      01002992H   LINE      CODE     ---       #253
      01002992H   LINE      CODE     ---       #254
      01002998H   LINE      CODE     ---       #255
      0100299EH   LINE      CODE     ---       #256
      010029A5H   LINE      CODE     ---       #257
      010029ACH   LINE      CODE     ---       #258
      010029AEH   LINE      CODE     ---       #259
      010029B5H   LINE      CODE     ---       #260
      010029BCH   LINE      CODE     ---       #261
      010029BCH   LINE      CODE     ---       #262
      010029C2H   LINE      CODE     ---       #263
      010029C8H   LINE      CODE     ---       #264
      010029CFH   LINE      CODE     ---       #265
      010029D6H   LINE      CODE     ---       #266
      010029D8H   LINE      CODE     ---       #267
      010029DFH   LINE      CODE     ---       #268
      010029E6H   LINE      CODE     ---       #269
      010029E6H   LINE      CODE     ---       #270
      010029EFH   LINE      CODE     ---       #271
      010029F5H   LINE      CODE     ---       #272
      010029FCH   LINE      CODE     ---       #273
      01002A03H   LINE      CODE     ---       #274
      01002A05H   LINE      CODE     ---       #275
      01002A08H   LINE      CODE     ---       #276
      01002A0AH   LINE      CODE     ---       #277
LX51 LINKER/LOCATER V4.47a                                                            02/02/2015  10:52:25  PAGE 57


      01002A0AH   LINE      CODE     ---       #295
      01002A0DH   LINE      CODE     ---       #296
      01002A21H   LINE      CODE     ---       #297
      01002A21H   LINE      CODE     ---       #298
      01002A27H   LINE      CODE     ---       #300
      01002A2CH   LINE      CODE     ---       #301
      01002A2CH   LINE      CODE     ---       #302
      01002A2FH   LINE      CODE     ---       #303
      01002A2FH   LINE      CODE     ---       #304
      01002A2FH   LINE      CODE     ---       #305
      01002A31H   LINE      CODE     ---       #306
      01002A36H   LINE      CODE     ---       #307
      01002A36H   LINE      CODE     ---       #308
      01002A39H   LINE      CODE     ---       #309
      01002A39H   LINE      CODE     ---       #310
      01002A39H   LINE      CODE     ---       #311
      01002A3BH   LINE      CODE     ---       #312
      01002A40H   LINE      CODE     ---       #313
      01002A40H   LINE      CODE     ---       #314
      01002A43H   LINE      CODE     ---       #315
      01002A43H   LINE      CODE     ---       #316
      01002A43H   LINE      CODE     ---       #317
      01002A45H   LINE      CODE     ---       #318
      01002A4AH   LINE      CODE     ---       #319
      01002A4AH   LINE      CODE     ---       #320
      01002A4DH   LINE      CODE     ---       #321
      01002A4DH   LINE      CODE     ---       #322
      01002A4DH   LINE      CODE     ---       #323
      01002A4FH   LINE      CODE     ---       #324
      01002A54H   LINE      CODE     ---       #325
      01002A54H   LINE      CODE     ---       #326
      01002A57H   LINE      CODE     ---       #327
      01002A57H   LINE      CODE     ---       #328
      01002A57H   LINE      CODE     ---       #329
      01002A59H   LINE      CODE     ---       #330
      01002A5EH   LINE      CODE     ---       #331
      01002A5EH   LINE      CODE     ---       #332
      01002A61H   LINE      CODE     ---       #333
      01002A61H   LINE      CODE     ---       #334
      01002A61H   LINE      CODE     ---       #335
      01002A63H   LINE      CODE     ---       #336
      01002A68H   LINE      CODE     ---       #337
      01002A68H   LINE      CODE     ---       #338
      01002A6FH   LINE      CODE     ---       #339
      01002A72H   LINE      CODE     ---       #340
      01002A72H   LINE      CODE     ---       #341
      01002A74H   LINE      CODE     ---       #342
      01002A79H   LINE      CODE     ---       #343
      01002A79H   LINE      CODE     ---       #344
      01002A80H   LINE      CODE     ---       #345
      01002A83H   LINE      CODE     ---       #346
      01002A83H   LINE      CODE     ---       #347
      01002A85H   LINE      CODE     ---       #348
      01002A8AH   LINE      CODE     ---       #349
      01002A8AH   LINE      CODE     ---       #350
      01002A91H   LINE      CODE     ---       #351
      01002A98H   LINE      CODE     ---       #352
      01002A98H   LINE      CODE     ---       #353
      01002A9AH   LINE      CODE     ---       #354
      01002A9FH   LINE      CODE     ---       #355
      01002A9FH   LINE      CODE     ---       #356
      01002AA6H   LINE      CODE     ---       #357
      01002AADH   LINE      CODE     ---       #358
      01002AB0H   LINE      CODE     ---       #359
      01002AB0H   LINE      CODE     ---       #360
LX51 LINKER/LOCATER V4.47a                                                            02/02/2015  10:52:25  PAGE 58


      01002AC1H   LINE      CODE     ---       #361
      01002AC1H   LINE      CODE     ---       #362
      01002AC8H   LINE      CODE     ---       #363
      01002ACAH   LINE      CODE     ---       #364
      01002AD2H   LINE      CODE     ---       #365
      01002AD2H   LINE      CODE     ---       #366
      01002AD5H   LINE      CODE     ---       #367
      01002AD7H   LINE      CODE     ---       #369
      01002AD7H   LINE      CODE     ---       #370
      01002ADEH   LINE      CODE     ---       #371
      01002ADEH   LINE      CODE     ---       #372
      01002AF7H   LINE      CODE     ---       #373
      01002AF7H   LINE      CODE     ---       #374
      01002B0CH   LINE      CODE     ---       #375
      01002B0CH   LINE      CODE     ---       #376
      01002B13H   LINE      CODE     ---       #377
      01002B15H   LINE      CODE     ---       #378
      01002B49H   LINE      CODE     ---       #379
      01002B62H   LINE      CODE     ---       #380
      01002B62H   LINE      CODE     ---       #381
      01002B7DH   LINE      CODE     ---       #382
      01002B7DH   LINE      CODE     ---       #383
      01002B84H   LINE      CODE     ---       #384
      01002B9DH   LINE      CODE     ---       #385
      01002BEBH   LINE      CODE     ---       #386
      01002C04H   LINE      CODE     ---       #387
      01002C04H   LINE      CODE     ---       #388
      01002C1FH   LINE      CODE     ---       #389
      01002C1FH   LINE      CODE     ---       #390
      01002C38H   LINE      CODE     ---       #391
      01002C5EH   LINE      CODE     ---       #392
      01002CACH   LINE      CODE     ---       #393
      01002CC5H   LINE      CODE     ---       #394
      01002CC5H   LINE      CODE     ---       #395
      01002CEAH   LINE      CODE     ---       #396
      01002CEAH   LINE      CODE     ---       #397
      01002D03H   LINE      CODE     ---       #398
      01002D29H   LINE      CODE     ---       #399
      01002D4FH   LINE      CODE     ---       #400
      01002D9DH   LINE      CODE     ---       #401
      01002DB3H   LINE      CODE     ---       #402
      01002DB3H   LINE      CODE     ---       #403
      01002DB6H   LINE      CODE     ---       #404
      01002DC6H   LINE      CODE     ---       #405
      01002DC6H   LINE      CODE     ---       #406
      01002DCBH   LINE      CODE     ---       #407
      01002DCBH   LINE      CODE     ---       #408
      01002DCEH   LINE      CODE     ---       #409
      01002DCEH   LINE      CODE     ---       #410
      01002DD0H   LINE      CODE     ---       #411
      01002DD5H   LINE      CODE     ---       #412
      01002DD5H   LINE      CODE     ---       #413
      01002DDCH   LINE      CODE     ---       #414
      01002DDFH   LINE      CODE     ---       #415
      01002DE1H   LINE      CODE     ---       #416
      01002DE6H   LINE      CODE     ---       #417
      01002DE6H   LINE      CODE     ---       #418
      01002DEDH   LINE      CODE     ---       #419
      01002DF0H   LINE      CODE     ---       #420
      01002DF2H   LINE      CODE     ---       #421
      01002DF7H   LINE      CODE     ---       #422
      01002DF7H   LINE      CODE     ---       #423
      01002DFEH   LINE      CODE     ---       #424
      01002E01H   LINE      CODE     ---       #425
      01002E03H   LINE      CODE     ---       #426
LX51 LINKER/LOCATER V4.47a                                                            02/02/2015  10:52:25  PAGE 59


      01002E08H   LINE      CODE     ---       #427
      01002E08H   LINE      CODE     ---       #428
      01002E0FH   LINE      CODE     ---       #429
      01002E16H   LINE      CODE     ---       #430
      01002E16H   LINE      CODE     ---       #432
      01002E1CH   LINE      CODE     ---       #434
      01002E21H   LINE      CODE     ---       #435
      01002E33H   LINE      CODE     ---       #436
      01002E36H   LINE      CODE     ---       #437
      01002E48H   LINE      CODE     ---       #438
      01002E4BH   LINE      CODE     ---       #439
      01002E5DH   LINE      CODE     ---       #440
      01002E60H   LINE      CODE     ---       #441
      01002E63H   LINE      CODE     ---       #442
      01002E65H   LINE      CODE     ---       #443
      01002E65H   LINE      CODE     ---       #444
      01002E6CH   LINE      CODE     ---       #446
      01002E6FH   LINE      CODE     ---       #447
      01002E6FH   LINE      CODE     ---       #448
      01002E71H   LINE      CODE     ---       #449
      01002E75H   LINE      CODE     ---       #450
      01002E75H   LINE      CODE     ---       #451
      01002E77H   LINE      CODE     ---       #453
      01002E77H   LINE      CODE     ---       #454
      01002E7EH   LINE      CODE     ---       #455
      01002E82H   LINE      CODE     ---       #456
      01002E86H   LINE      CODE     ---       #457
      01002E86H   LINE      CODE     ---       #458
      01002E88H   LINE      CODE     ---       #460
      01002E88H   LINE      CODE     ---       #461
      01002E8FH   LINE      CODE     ---       #462
      01002E93H   LINE      CODE     ---       #463
      01002E97H   LINE      CODE     ---       #464
      01002E9EH   LINE      CODE     ---       #465
      01002EA0H   LINE      CODE     ---       #466
      01002EA7H   LINE      CODE     ---       #467
      01002EA7H   LINE      CODE     ---       #468
      01002EAAH   LINE      CODE     ---       #469
      01002EACH   LINE      CODE     ---       #470
      01002EAEH   LINE      CODE     ---       #471
      01002EB1H   LINE      CODE     ---       #472
      01002EB4H   LINE      CODE     ---       #473
      01002EB7H   LINE      CODE     ---       #474
      01002EB7H   LINE      CODE     ---       #476
      ---         BLOCKEND  ---      ---       LVL=0
      00000007H   SYMBOL    DATA     BYTE      MM
      00000006H   SYMBOL    DATA     BYTE      D0
      00000001H   SYMBOL    DATA     BYTE      D2
      00000004H   SYMBOL    DATA     BYTE      D3
      00000003H   SYMBOL    DATA     BYTE      D4
      00000005H   SYMBOL    DATA     BYTE      D5
      00000007H   SYMBOL    DATA     BYTE      D_FD
      00000007H   SYMBOL    DATA     BYTE      H_FH
      00000007H   SYMBOL    DATA     BYTE      M_FM

      01006066H   BLOCK     CODE     ---       LVL=0
      01006066H   BLOCK     CODE     NEAR LAB  LVL=1
      00000061H   SYMBOL    DATA     BYTE      D0
      00000062H   SYMBOL    DATA     BYTE      D1
      00000001H   SYMBOL    DATA     BYTE      D2
      00000006H   SYMBOL    DATA     BYTE      D3
      00000003H   SYMBOL    DATA     BYTE      D4
      00000005H   SYMBOL    DATA     BYTE      D5
      ---         BLOCKEND  ---      ---       LVL=1
      01006066H   LINE      CODE     ---       #507
LX51 LINKER/LOCATER V4.47a                                                            02/02/2015  10:52:25  PAGE 60


      01006066H   LINE      CODE     ---       #508
      01006066H   LINE      CODE     ---       #511
      0100606DH   LINE      CODE     ---       #512
      0100606FH   LINE      CODE     ---       #513
      0100606FH   LINE      CODE     ---       #514
      0100606FH   LINE      CODE     ---       #515
      01006070H   LINE      CODE     ---       #516
      01006071H   LINE      CODE     ---       #519
      ---         BLOCKEND  ---      ---       LVL=0

      010061CBH   BLOCK     CODE     ---       LVL=0
      010061CBH   BLOCK     CODE     NEAR LAB  LVL=1
      00000007H   SYMBOL    DATA     BYTE      k
      ---         BLOCKEND  ---      ---       LVL=1
      010061CBH   LINE      CODE     ---       #522
      010061CBH   LINE      CODE     ---       #523
      010061CBH   LINE      CODE     ---       #526
      010061D1H   LINE      CODE     ---       #527
      ---         BLOCKEND  ---      ---       LVL=0

      01005EBFH   BLOCK     CODE     ---       LVL=0
      01005EBFH   BLOCK     CODE     NEAR LAB  LVL=1
      00000006H   SYMBOL    DATA     WORD      i
      ---         BLOCKEND  ---      ---       LVL=1
      01005EBFH   LINE      CODE     ---       #529
      01005EBFH   LINE      CODE     ---       #530
      01005EBFH   LINE      CODE     ---       #533
      01005EC1H   LINE      CODE     ---       #534
      01005EC3H   LINE      CODE     ---       #535
      01005EC5H   LINE      CODE     ---       #536
      01005EC7H   LINE      CODE     ---       #537
      01005EC9H   LINE      CODE     ---       #538
      01005ECBH   LINE      CODE     ---       #540
      01005ECEH   LINE      CODE     ---       #541
      01005ED1H   LINE      CODE     ---       #542
      01005ED4H   LINE      CODE     ---       #543
      01005ED7H   LINE      CODE     ---       #545
      01005EE7H   LINE      CODE     ---       #546
      ---         BLOCKEND  ---      ---       LVL=0

      010056ABH   BLOCK     CODE     ---       LVL=0
      00000007H   SYMBOL    DATA     BYTE      prt
      00000001H   SYMBOL    DATA     BYTE      D5
      00000003H   SYMBOL    DATA     BYTE      D4
      0000007BH   SYMBOL    DATA     BYTE      D3
      0000007CH   SYMBOL    DATA     BYTE      D2
      0000007DH   SYMBOL    DATA     BYTE      D1
      0000007EH   SYMBOL    DATA     BYTE      D0
      010056ADH   BLOCK     CODE     NEAR LAB  LVL=1
      00000005H   SYMBOL    DATA     BYTE      c
      00000002H   SYMBOL    DATA     BYTE      DISP_CODE
      00000004H   SYMBOL    DATA     BYTE      D_count
      00000006H   SYMBOL    DATA     BYTE      D_time
      ---         BLOCKEND  ---      ---       LVL=1
      010056ABH   LINE      CODE     ---       #553
      010056ADH   LINE      CODE     ---       #554
      010056ADH   LINE      CODE     ---       #556
      010056ADH   LINE      CODE     ---       #557
      010056AFH   LINE      CODE     ---       #558
      010056B1H   LINE      CODE     ---       #559
      010056B6H   LINE      CODE     ---       #560
      010056B6H   LINE      CODE     ---       #561
      010056B8H   LINE      CODE     ---       #563
      010056B9H   LINE      CODE     ---       #564
      010056B9H   LINE      CODE     ---       #565
LX51 LINKER/LOCATER V4.47a                                                            02/02/2015  10:52:25  PAGE 61


      010056BBH   LINE      CODE     ---       #566
      010056BDH   LINE      CODE     ---       #567
      010056BFH   LINE      CODE     ---       #568
      010056BFH   LINE      CODE     ---       #569
      010056C2H   LINE      CODE     ---       #570
      010056C4H   LINE      CODE     ---       #571
      010056C7H   LINE      CODE     ---       #572
      010056C9H   LINE      CODE     ---       #573
      010056CDH   LINE      CODE     ---       #574
      010056D1H   LINE      CODE     ---       #575
      010056D3H   LINE      CODE     ---       #576
      010056D3H   LINE      CODE     ---       #577
      010056D5H   LINE      CODE     ---       #578
      010056D7H   LINE      CODE     ---       #579
      010056D9H   LINE      CODE     ---       #580
      010056D9H   LINE      CODE     ---       #581
      010056DFH   LINE      CODE     ---       #582
      010056E2H   LINE      CODE     ---       #583
      010056E4H   LINE      CODE     ---       #584
      010056E7H   LINE      CODE     ---       #585
      010056E9H   LINE      CODE     ---       #586
      010056EBH   LINE      CODE     ---       #587
      010056EFH   LINE      CODE     ---       #588
      010056F3H   LINE      CODE     ---       #589
      010056FAH   LINE      CODE     ---       #590
      01005701H   LINE      CODE     ---       #591
      01005708H   LINE      CODE     ---       #592
      0100570FH   LINE      CODE     ---       #593
      01005714H   LINE      CODE     ---       #594
      01005718H   LINE      CODE     ---       #595
      0100571AH   LINE      CODE     ---       #596
      0100571DH   LINE      CODE     ---       #597
      0100571FH   LINE      CODE     ---       #598
      0100571FH   LINE      CODE     ---       #599
      01005724H   LINE      CODE     ---       #600
      01005724H   LINE      CODE     ---       #601
      01005726H   LINE      CODE     ---       #603
      01005727H   LINE      CODE     ---       #604
      01005727H   LINE      CODE     ---       #605
      01005729H   LINE      CODE     ---       #607
      0100572BH   LINE      CODE     ---       #608
      0100572BH   LINE      CODE     ---       #609
      01005731H   LINE      CODE     ---       #610
      01005734H   LINE      CODE     ---       #611
      01005736H   LINE      CODE     ---       #612
      01005739H   LINE      CODE     ---       #613
      0100573BH   LINE      CODE     ---       #614
      0100573DH   LINE      CODE     ---       #615
      01005741H   LINE      CODE     ---       #616
      01005745H   LINE      CODE     ---       #617
      0100574CH   LINE      CODE     ---       #618
      01005753H   LINE      CODE     ---       #619
      0100575AH   LINE      CODE     ---       #620
      01005761H   LINE      CODE     ---       #621
      01005766H   LINE      CODE     ---       #622
      0100576AH   LINE      CODE     ---       #623
      0100576CH   LINE      CODE     ---       #624
      0100576FH   LINE      CODE     ---       #625
      01005771H   LINE      CODE     ---       #626
      01005771H   LINE      CODE     ---       #628
      ---         BLOCKEND  ---      ---       LVL=0

      ---         MODULE    ---      ---       AD3421
      0000000BH   PUBLIC    DATA     BYTE      ad_ack
      01005EE8H   PUBLIC    CODE     ---       _AD3421_read_com
LX51 LINKER/LOCATER V4.47a                                                            02/02/2015  10:52:25  PAGE 62


      01006198H   PUBLIC    CODE     ---       _AD3421_write_com
      01005CBEH   PUBLIC    CODE     ---       _AD3421_read_byte
      01005C82H   PUBLIC    CODE     ---       _AD3421_write_byte
      010061A3H   PUBLIC    CODE     ---       AD3421_stop
      010060D5H   PUBLIC    CODE     ---       AD3421_start
      01005FF9H   PUBLIC    CODE     ---       AD3421_Init
      010061D2H   PUBLIC    CODE     ---       AD_BitDly
      01006080H   PUBLIC    CODE     ---       Get_AD3421_Value
      000000B0H   SFRSYM    DATA     BIT       R485_RX
      000000D8H.2 SFRSYM    DATA     BIT       CCF2
      00000098H.3 SFRSYM    DATA     BIT       TB80
      000000F6H   SFRSYM    DATA     BYTE      PCAPWM4
      00000091H   SFRSYM    DATA     BYTE      P1M0
      00000094H   SFRSYM    DATA     BYTE      P0M1
      00000090H.7 SFRSYM    DATA     BIT       non3
      000000D8H.3 SFRSYM    DATA     BIT       CCF3
      00000098H.3 SFRSYM    DATA     BIT       TB81
      000000F7H   SFRSYM    DATA     BYTE      PCAPWM5
      00000095H   SFRSYM    DATA     BYTE      P2M0
      00000092H   SFRSYM    DATA     BYTE      P1M1
      00000080H   SFRSYM    DATA     BYTE      P0
      000000B0H.1 SFRSYM    DATA     BIT       R485_TX
      000000D8H.4 SFRSYM    DATA     BIT       CCF4
      00000098H.7 SFRSYM    DATA     BIT       SM00
      000000B1H   SFRSYM    DATA     BYTE      P3M0
      00000096H   SFRSYM    DATA     BYTE      P2M1
      00000090H   SFRSYM    DATA     BYTE      P1
      000000D8H.5 SFRSYM    DATA     BIT       CCF5
      00000098H.7 SFRSYM    DATA     BIT       SM01
      00000098H.6 SFRSYM    DATA     BIT       SM10
      000000B3H   SFRSYM    DATA     BYTE      P4M0
      000000B2H   SFRSYM    DATA     BYTE      P3M1
      000000A0H   SFRSYM    DATA     BYTE      P2
      00000098H.6 SFRSYM    DATA     BIT       SM11
      00000098H.5 SFRSYM    DATA     BIT       SM20
      000000E7H   SFRSYM    DATA     BYTE      ISPCR
      000000B5H   SFRSYM    DATA     BYTE      P5M0
      000000B4H   SFRSYM    DATA     BYTE      P4M1
      000000B0H   SFRSYM    DATA     BYTE      P3
      000000C0H   SFRSYM    DATA     BYTE      XICON
      000000A0H.2 SFRSYM    DATA     BIT       EEPROM_SDA
      00000080H.7 SFRSYM    DATA     BIT       DOWN_KEY
      000000B0H.4 SFRSYM    DATA     BIT       T0
      00000098H.5 SFRSYM    DATA     BIT       SM21
      000000D0H.6 SFRSYM    DATA     BIT       AC
      00000097H   SFRSYM    DATA     BYTE      EVRCR
      000000B6H   SFRSYM    DATA     BYTE      P5M1
      000000E8H   SFRSYM    DATA     BYTE      P4
      000000B0H.5 SFRSYM    DATA     BIT       T1
      00000085H   SFRSYM    DATA     BYTE      SPCON
      000000F8H   SFRSYM    DATA     BYTE      P5
      000000ADH   SFRSYM    DATA     BYTE      EIE1
      00000090H   SFRSYM    DATA     BIT       T2
      000000A8H.7 SFRSYM    DATA     BIT       EA
      000000ACH   SFRSYM    DATA     BYTE      SFRPI
      000000E1H   SFRSYM    DATA     BYTE      WDTCR
      000000C8H   SFRSYM    DATA     BYTE      P6
      000000A0H.4 SFRSYM    DATA     BIT       mV_SCL
      000000A0H   SFRSYM    DATA     BIT       KBI0
      00000090H.5 SFRSYM    DATA     BIT       SPI_MOSI
      00000090H.6 SFRSYM    DATA     BIT       SPI_MISO
      00000080H.5 SFRSYM    DATA     BIT       mA_OUT
      000000A0H.1 SFRSYM    DATA     BIT       KBI1
      00000085H   SFRSYM    DATA     BYTE      SPCTL
      000000A0H.2 SFRSYM    DATA     BIT       KBI2
LX51 LINKER/LOCATER V4.47a                                                            02/02/2015  10:52:25  PAGE 63


      00000090H   SFRSYM    DATA     BIT       AIN0
      000000D8H.7 SFRSYM    DATA     BIT       CF
      000000AEH   SFRSYM    DATA     BYTE      AUXIP
      000000A0H.3 SFRSYM    DATA     BIT       KBI3
      00000090H.1 SFRSYM    DATA     BIT       AIN1
      000000A0H.4 SFRSYM    DATA     BIT       KBI4
      00000090H.2 SFRSYM    DATA     BIT       AIN2
      00000098H.7 SFRSYM    DATA     BIT       FE
      000000F9H   SFRSYM    DATA     BYTE      CH
      000000A0H.5 SFRSYM    DATA     BIT       KBI5
      00000090H.3 SFRSYM    DATA     BIT       AIN3
      000000A0H.6 SFRSYM    DATA     BIT       KBI6
      00000090H.4 SFRSYM    DATA     BIT       AIN4
      000000A0H.3 SFRSYM    DATA     BIT       EEPROM_SCL
      00000080H.1 SFRSYM    DATA     BIT       RTD_C
      000000A0H.7 SFRSYM    DATA     BIT       KBI7
      00000090H.5 SFRSYM    DATA     BIT       AIN5
      000000A8H   SFRSYM    DATA     BYTE      IE
      00000090H.6 SFRSYM    DATA     BIT       AIN6
      000000E9H   SFRSYM    DATA     BYTE      CL
      00000090H.7 SFRSYM    DATA     BIT       AIN7
      00000090H.2 SFRSYM    DATA     BIT       CEX0
      000000FAH   SFRSYM    DATA     BYTE      CCAP0H
      000000C6H   SFRSYM    DATA     BYTE      ADCH
      00000090H.3 SFRSYM    DATA     BIT       CEX1
      000000FBH   SFRSYM    DATA     BYTE      CCAP1H
      000000B7H   SFRSYM    DATA     BYTE      IP0H
      000000A0H.2 SFRSYM    DATA     BIT       ALL_SDA
      00000090H.4 SFRSYM    DATA     BIT       CEX2
      000000FCH   SFRSYM    DATA     BYTE      CCAP2H
      000000B0H.3 SFRSYM    DATA     BIT       OFFSET_KEY
      00000090H.5 SFRSYM    DATA     BIT       CEX3
      000000FDH   SFRSYM    DATA     BYTE      CCAP3H
      00000090H.6 SFRSYM    DATA     BIT       CEX4
      000000D8H.6 SFRSYM    DATA     BIT       CR
      000000FEH   SFRSYM    DATA     BYTE      CCAP4H
      000000EAH   SFRSYM    DATA     BYTE      CCAP0L
      000000BEH   SFRSYM    DATA     BYTE      ADCL
      000000B0H.7 SFRSYM    DATA     BIT       RD
      00000090H.7 SFRSYM    DATA     BIT       CEX5
      000000C8H.6 SFRSYM    DATA     BIT       EXF2
      00000098H.4 SFRSYM    DATA     BIT       REN0
      000000FFH   SFRSYM    DATA     BYTE      CCAP5H
      000000EBH   SFRSYM    DATA     BYTE      CCAP1L
      000000DAH   SFRSYM    DATA     BYTE      CCAPM0
      000000B8H   SFRSYM    DATA     BYTE      IP0L
      00000098H.4 SFRSYM    DATA     BIT       REN1
      000000ECH   SFRSYM    DATA     BYTE      CCAP2L
      000000DBH   SFRSYM    DATA     BYTE      CCAPM1
      000000C0H.3 SFRSYM    DATA     BIT       IT2H
      000000A8H.4 SFRSYM    DATA     BIT       ES
      00000097H   SFRSYM    DATA     BYTE      TSTWD
      000000EDH   SFRSYM    DATA     BYTE      CCAP3L
      000000DCH   SFRSYM    DATA     BYTE      CCAPM2
      000000C0H.7 SFRSYM    DATA     BIT       IT3H
      000000EEH   SFRSYM    DATA     BYTE      CCAP4L
      000000DDH   SFRSYM    DATA     BYTE      CCAPM3
      000000B8H   SFRSYM    DATA     BYTE      IP
      000000EFH   SFRSYM    DATA     BYTE      CCAP5L
      000000DEH   SFRSYM    DATA     BYTE      CCAPM4
      00000098H   SFRSYM    DATA     BIT       RI
      000000DFH   SFRSYM    DATA     BYTE      CCAPM5
      000000B0H.2 SFRSYM    DATA     BIT       INT0
      000000D0H.7 SFRSYM    DATA     BIT       CY
      000000B0H.4 SFRSYM    DATA     BIT       BEEP
LX51 LINKER/LOCATER V4.47a                                                            02/02/2015  10:52:25  PAGE 64


      00000080H.4 SFRSYM    DATA     BIT       mV_OUT
      000000B0H.3 SFRSYM    DATA     BIT       INT1
      00000098H.1 SFRSYM    DATA     BIT       TI
      000000A0H.3 SFRSYM    DATA     BIT       EEP_SCL
      000000E8H.3 SFRSYM    DATA     BIT       INT2
      000000E8H.2 SFRSYM    DATA     BIT       INT3
      000000C6H   SFRSYM    DATA     BYTE      ADCV
      0000008FH   SFRSYM    DATA     BYTE      STRETCH
      000000B8H.1 SFRSYM    DATA     BIT       PT0L
      000000B8H.3 SFRSYM    DATA     BIT       PT1L
      000000CBH   SFRSYM    DATA     BYTE      RCAP2H
      000000A0H.2 SFRSYM    DATA     BIT       RTC_SDA
      000000B8H.4 SFRSYM    DATA     BIT       PS
      000000B8H.5 SFRSYM    DATA     BIT       PT2L
      00000081H   SFRSYM    DATA     BYTE      SP
      00000090H.1 SFRSYM    DATA     BIT       T2EX
      000000D9H   SFRSYM    DATA     BYTE      CMOD
      000000D8H   SFRSYM    DATA     BYTE      CCON
      0000009AH   SFRSYM    DATA     BYTE      SCFG
      000000B8H   SFRSYM    DATA     BIT       PX0L
      000000D0H.2 SFRSYM    DATA     BIT       OV
      000000B8H.2 SFRSYM    DATA     BIT       PX1L
      000000CAH   SFRSYM    DATA     BYTE      RCAP2L
      000000B8H.6 SFRSYM    DATA     BIT       PX2L
      00000090H.7 SFRSYM    DATA     BIT       SPI_CLK
      000000B8H.7 SFRSYM    DATA     BIT       PX3L
      000000E6H   SFRSYM    DATA     BYTE      SCMD
      000000B0H.6 SFRSYM    DATA     BIT       WR
      000000C8H.1 SFRSYM    DATA     BIT       C_T2
      00000084H   SFRSYM    DATA     BYTE      SPISTAT
      00000090H.6 SFRSYM    DATA     BIT       RTC_SCL
      000000C8H.5 SFRSYM    DATA     BIT       RCLK
      000000C8H.4 SFRSYM    DATA     BIT       TCLK
      00000080H   SFRSYM    DATA     BIT       P00
      000000E3H   SFRSYM    DATA     BYTE      IFADRH
      00000090H   SFRSYM    DATA     BIT       P10
      00000080H.1 SFRSYM    DATA     BIT       P01
      000000E5H   SFRSYM    DATA     BYTE      IFMT
      00000087H   SFRSYM    DATA     BYTE      PCON
      00000099H   SFRSYM    DATA     BYTE      SBUF
      000000A0H   SFRSYM    DATA     BIT       P20
      00000090H.1 SFRSYM    DATA     BIT       P11
      00000080H.2 SFRSYM    DATA     BIT       P02
      000000B0H   SFRSYM    DATA     BIT       P30
      000000A0H.1 SFRSYM    DATA     BIT       P21
      00000090H.2 SFRSYM    DATA     BIT       P12
      00000080H.3 SFRSYM    DATA     BIT       P03
      000000B0H.2 SFRSYM    DATA     BIT       FUNCTION_KEY
      000000E8H   SFRSYM    DATA     BIT       P40
      000000B0H.1 SFRSYM    DATA     BIT       P31
      000000A0H.2 SFRSYM    DATA     BIT       P22
      00000090H.3 SFRSYM    DATA     BIT       P13
      00000080H.4 SFRSYM    DATA     BIT       P04
      000000E4H   SFRSYM    DATA     BYTE      IFADRL
      00000098H   SFRSYM    DATA     BYTE      SCON
      000000F8H   SFRSYM    DATA     BIT       P50
      000000E8H.1 SFRSYM    DATA     BIT       P41
      000000B0H.2 SFRSYM    DATA     BIT       P32
      000000A0H.3 SFRSYM    DATA     BIT       P23
      00000090H.4 SFRSYM    DATA     BIT       P14
      00000080H.5 SFRSYM    DATA     BIT       P05
      00000089H   SFRSYM    DATA     BYTE      TMOD
      00000088H   SFRSYM    DATA     BYTE      TCON
      000000C8H   SFRSYM    DATA     BIT       P60
      000000F8H.1 SFRSYM    DATA     BIT       P51
LX51 LINKER/LOCATER V4.47a                                                            02/02/2015  10:52:25  PAGE 65


      000000E8H.2 SFRSYM    DATA     BIT       P42
      000000B0H.3 SFRSYM    DATA     BIT       P33
      000000A0H.4 SFRSYM    DATA     BIT       P24
      00000090H.5 SFRSYM    DATA     BIT       P15
      00000080H.6 SFRSYM    DATA     BIT       P06
      000000A0H.5 SFRSYM    DATA     BIT       TEMP
      000000C8H.1 SFRSYM    DATA     BIT       P61
      000000F8H.2 SFRSYM    DATA     BIT       P52
      000000E8H.3 SFRSYM    DATA     BIT       P43
      000000B0H.4 SFRSYM    DATA     BIT       P34
      000000A0H.5 SFRSYM    DATA     BIT       P25
      00000090H.6 SFRSYM    DATA     BIT       P16
      00000080H.7 SFRSYM    DATA     BIT       P07
      000000F8H.3 SFRSYM    DATA     BIT       P53
      000000E8H.4 SFRSYM    DATA     BIT       P44
      000000B0H.5 SFRSYM    DATA     BIT       P35
      000000A0H.6 SFRSYM    DATA     BIT       P26
      00000090H.7 SFRSYM    DATA     BIT       P17
      000000A0H   SFRSYM    DATA     BIT       Value_SDA
      000000E8H.5 SFRSYM    DATA     BIT       P45
      000000B0H.6 SFRSYM    DATA     BIT       P36
      000000A0H.7 SFRSYM    DATA     BIT       P27
      00000080H   SFRSYM    DATA     BIT       TC_C
      000000E8H.6 SFRSYM    DATA     BIT       P46
      000000B0H.7 SFRSYM    DATA     BIT       P37
      000000E8H.7 SFRSYM    DATA     BIT       P47
      000000D7H   SFRSYM    DATA     BYTE      KBMASK
      000000A0H.4 SFRSYM    DATA     BIT       OUT_SCL
      000000A0H   SFRSYM    DATA     BIT       AD_SDA
      00000088H.1 SFRSYM    DATA     BIT       IE0
      00000088H.3 SFRSYM    DATA     BIT       IE1
      00000090H   SFRSYM    DATA     BIT       LED1_SDA
      000000C0H.1 SFRSYM    DATA     BIT       IE2
      00000090H.3 SFRSYM    DATA     BIT       LED2_SDA
      000000C0H.5 SFRSYM    DATA     BIT       IE3
      000000A8H.6 SFRSYM    DATA     BIT       GF4
      0000008EH   SFRSYM    DATA     BYTE      AUXR
      000000F0H   SFRSYM    DATA     BYTE      B
      000000D5H   SFRSYM    DATA     BYTE      KBPATN
      000000A0H.1 SFRSYM    DATA     BIT       Value_SCL
      000000C8H   SFRSYM    DATA     BIT       CP_RL2
      000000A0H.6 SFRSYM    DATA     BIT       NONE_4
      000000A0H.7 SFRSYM    DATA     BIT       NONE_5
      000000B0H.6 SFRSYM    DATA     BIT       NONE_6
      00000086H   SFRSYM    DATA     BYTE      SPIDAT
      000000E0H   SFRSYM    DATA     BYTE      ACC
      000000B0H.7 SFRSYM    DATA     BIT       NONE_7
      000000A0H.1 SFRSYM    DATA     BIT       AD_SCL
      000000A8H.4 SFRSYM    DATA     BIT       ES0
      000000A8H.1 SFRSYM    DATA     BIT       ET0
      00000090H.2 SFRSYM    DATA     BIT       LED1_SCL
      00000088H.5 SFRSYM    DATA     BIT       TF0
      000000A8H.3 SFRSYM    DATA     BIT       ET1
      00000090H.4 SFRSYM    DATA     BIT       LED2_SCL
      00000088H.7 SFRSYM    DATA     BIT       TF1
      00000098H   SFRSYM    DATA     BIT       RI0
      000000A8H.5 SFRSYM    DATA     BIT       ET2
      000000C8H.7 SFRSYM    DATA     BIT       TF2
      00000098H   SFRSYM    DATA     BIT       RI1
      00000098H.2 SFRSYM    DATA     BIT       RB8
      0000008CH   SFRSYM    DATA     BYTE      TH0
      00000088H   SFRSYM    DATA     BIT       IT0
      00000098H.1 SFRSYM    DATA     BIT       TI0
      000000A8H   SFRSYM    DATA     BIT       EX0
      0000008DH   SFRSYM    DATA     BYTE      TH1
LX51 LINKER/LOCATER V4.47a                                                            02/02/2015  10:52:25  PAGE 66


      00000088H.2 SFRSYM    DATA     BIT       IT1
      00000098H.1 SFRSYM    DATA     BIT       TI1
      00000098H.3 SFRSYM    DATA     BIT       TB8
      000000A8H.2 SFRSYM    DATA     BIT       EX1
      00000085H   SFRSYM    DATA     BYTE      SPICON
      000000CDH   SFRSYM    DATA     BYTE      TH2
      000000C0H   SFRSYM    DATA     BIT       IT2
      000000C0H.2 SFRSYM    DATA     BIT       EX2
      000000D0H   SFRSYM    DATA     BIT       P
      000000C0H.4 SFRSYM    DATA     BIT       IT3
      000000C0H.6 SFRSYM    DATA     BIT       EX3
      00000098H.7 SFRSYM    DATA     BIT       SM0
      0000008AH   SFRSYM    DATA     BYTE      TL0
      00000080H.3 SFRSYM    DATA     BIT       mA_C
      000000C8H   SFRSYM    DATA     BIT       XOUT
      00000090H.1 SFRSYM    DATA     BIT       ECI
      00000098H.6 SFRSYM    DATA     BIT       SM1
      00000085H   SFRSYM    DATA     BYTE      SPICTL
      0000008BH   SFRSYM    DATA     BYTE      TL1
      000000AFH   SFRSYM    DATA     BYTE      AUXIPH
      000000E8H.6 SFRSYM    DATA     BIT       ALE
      00000098H.5 SFRSYM    DATA     BIT       SM2
      000000CCH   SFRSYM    DATA     BYTE      TL2
      000000E2H   SFRSYM    DATA     BYTE      IFD
      000000B8H.1 SFRSYM    DATA     BIT       PT0
      000000B0H.5 SFRSYM    DATA     BIT       R485_DE_RE
      000000B8H.3 SFRSYM    DATA     BIT       PT1
      000000D0H.3 SFRSYM    DATA     BIT       RS0
      00000088H.4 SFRSYM    DATA     BIT       TR0
      000000B8H.5 SFRSYM    DATA     BIT       PT2
      000000D0H.4 SFRSYM    DATA     BIT       RS1
      00000088H.6 SFRSYM    DATA     BIT       TR1
      000000C8H.2 SFRSYM    DATA     BIT       TR2
      000000B8H   SFRSYM    DATA     BIT       PX0
      000000AFH   SFRSYM    DATA     BYTE      EIP1H
      000000B8H.2 SFRSYM    DATA     BIT       PX1
      000000C0H.3 SFRSYM    DATA     BIT       PX2
      000000C0H.7 SFRSYM    DATA     BIT       PX3
      000000AEH   SFRSYM    DATA     BYTE      EIP1L
      00000083H   SFRSYM    DATA     BYTE      DPH
      000000C8H   SFRSYM    DATA     BIT       CKO
      00000082H   SFRSYM    DATA     BYTE      DPL
      00000087H   SFRSYM    DATA     BYTE      PCON0
      00000084H   SFRSYM    DATA     BYTE      SPSTAT
      00000099H   SFRSYM    DATA     BYTE      SBUF0
      000000B7H   SFRSYM    DATA     BYTE      IPH
      000000B0H.4 SFRSYM    DATA     BIT       T0CKO
      00000097H   SFRSYM    DATA     BYTE      PCON1
      00000099H   SFRSYM    DATA     BYTE      SBUF1
      000000B0H.5 SFRSYM    DATA     BIT       T1CKO
      000000C8H.3 SFRSYM    DATA     BIT       EXEN2
      000000C7H   SFRSYM    DATA     BYTE      PCON2
      0000009AH   SFRSYM    DATA     BYTE      S2BUF
      00000098H   SFRSYM    DATA     BYTE      SCON0
      00000098H.4 SFRSYM    DATA     BIT       REN
      00000098H   SFRSYM    DATA     BYTE      SCON1
      00000080H.2 SFRSYM    DATA     BIT       mV_C
      000000C5H   SFRSYM    DATA     BYTE      ADCON
      000000A0H.2 SFRSYM    DATA     BIT       mA_SDA
      000000C9H   SFRSYM    DATA     BYTE      T2MOD
      000000C8H   SFRSYM    DATA     BYTE      T2CON
      000000C5H   SFRSYM    DATA     BYTE      ADCTL
      000000BEH   SFRSYM    DATA     BYTE      ADCVL
      000000B9H   SFRSYM    DATA     BYTE      SADEN
      0000009AH   SFRSYM    DATA     BYTE      S1BRT
LX51 LINKER/LOCATER V4.47a                                                            02/02/2015  10:52:25  PAGE 67


      000000B0H   SFRSYM    DATA     BIT       RXD
      000000D6H   SFRSYM    DATA     BYTE      KBCON
      00000080H.6 SFRSYM    DATA     BIT       UP_KEY
      000000C8H.1 SFRSYM    DATA     BIT       XIN
      000000B8H.4 SFRSYM    DATA     BIT       PSL
      000000A9H   SFRSYM    DATA     BYTE      SADDR
      000000B0H.1 SFRSYM    DATA     BIT       TXD
      000000A0H.4 SFRSYM    DATA     BIT       mA_SCL
      0000008EH   SFRSYM    DATA     BYTE      AUXR0
      000000A2H   SFRSYM    DATA     BYTE      AUXR1
      00000090H.4 SFRSYM    DATA     BIT       SPI_SS
      000000A6H   SFRSYM    DATA     BYTE      AUXR2
      00000090H.2 SFRSYM    DATA     BIT       S2RXD
      000000D0H.5 SFRSYM    DATA     BIT       F0
      000000B0H.4 SFRSYM    DATA     BIT       BEEP_OUT
      00000090H.3 SFRSYM    DATA     BIT       S2TXD
      000000D0H.1 SFRSYM    DATA     BIT       F1
      00000090H.1 SFRSYM    DATA     BIT       LED1_LE
      00000090H.5 SFRSYM    DATA     BIT       LED2_LE
      000000F2H   SFRSYM    DATA     BYTE      PCAPWM0
      000000D0H   SFRSYM    DATA     BYTE      PSW
      000000F3H   SFRSYM    DATA     BYTE      PCAPWM1
      000000A0H.2 SFRSYM    DATA     BIT       mV_SDA
      000000D8H   SFRSYM    DATA     BIT       CCF0
      00000098H.2 SFRSYM    DATA     BIT       RB80
      000000F4H   SFRSYM    DATA     BYTE      PCAPWM2
      000000D8H.1 SFRSYM    DATA     BIT       CCF1
      00000098H.2 SFRSYM    DATA     BIT       RB81
      000000F5H   SFRSYM    DATA     BYTE      PCAPWM3
      00000086H   SFRSYM    DATA     BYTE      SPDAT
      00000093H   SFRSYM    DATA     BYTE      P0M0
      000000ADH   SFRSYM    DATA     BYTE      AUXIE

      01006080H   BLOCK     CODE     ---       LVL=0
      01006080H   BLOCK     CODE     NEAR LAB  LVL=1
      00000010H   SYMBOL    IDATA    BYTE      res
      ---         BLOCKEND  ---      ---       LVL=1
      01006080H   LINE      CODE     ---       #25
      01006080H   LINE      CODE     ---       #26
      01006080H   LINE      CODE     ---       #28
      01006084H   LINE      CODE     ---       #29
      01006087H   LINE      CODE     ---       #30
      0100608EH   LINE      CODE     ---       #31
      01006093H   LINE      CODE     ---       #32
      01006097H   LINE      CODE     ---       #33
      ---         BLOCKEND  ---      ---       LVL=0

      010061D2H   BLOCK     CODE     ---       LVL=0
      010061D2H   BLOCK     CODE     NEAR LAB  LVL=1
      00000007H   SYMBOL    DATA     BYTE      i
      ---         BLOCKEND  ---      ---       LVL=1
      010061D2H   LINE      CODE     ---       #35
      010061D2H   LINE      CODE     ---       #36
      010061D2H   LINE      CODE     ---       #39
      010061D8H   LINE      CODE     ---       #40
      ---         BLOCKEND  ---      ---       LVL=0

      01005FF9H   BLOCK     CODE     ---       LVL=0
      01005FF9H   BLOCK     CODE     NEAR LAB  LVL=1
      00000007H   SYMBOL    DATA     BYTE      i
      ---         BLOCKEND  ---      ---       LVL=1
      01005FF9H   LINE      CODE     ---       #42
      01005FF9H   LINE      CODE     ---       #43
      01005FF9H   LINE      CODE     ---       #45
      01005FFBH   LINE      CODE     ---       #46
LX51 LINKER/LOCATER V4.47a                                                            02/02/2015  10:52:25  PAGE 68


      01005FFEH   LINE      CODE     ---       #47
      01006000H   LINE      CODE     ---       #48
      01006003H   LINE      CODE     ---       #49
      01006006H   LINE      CODE     ---       #50
      01006009H   LINE      CODE     ---       #51
      0100600CH   LINE      CODE     ---       #52
      0100600EH   LINE      CODE     ---       #54
      01006014H   LINE      CODE     ---       #55
      ---         BLOCKEND  ---      ---       LVL=0

      010060D5H   BLOCK     CODE     ---       LVL=0
      010060D5H   LINE      CODE     ---       #57
      010060D5H   LINE      CODE     ---       #58
      010060D5H   LINE      CODE     ---       #59
      010060D7H   LINE      CODE     ---       #60
      010060DAH   LINE      CODE     ---       #61
      010060DCH   LINE      CODE     ---       #62
      010060DFH   LINE      CODE     ---       #63
      010060E1H   LINE      CODE     ---       #64
      010060E4H   LINE      CODE     ---       #65
      010060E6H   LINE      CODE     ---       #66
      ---         BLOCKEND  ---      ---       LVL=0

      010061A3H   BLOCK     CODE     ---       LVL=0
      010061A3H   LINE      CODE     ---       #68
      010061A3H   LINE      CODE     ---       #69
      010061A3H   LINE      CODE     ---       #70
      010061A5H   LINE      CODE     ---       #71
      010061A8H   LINE      CODE     ---       #72
      010061AAH   LINE      CODE     ---       #73
      ---         BLOCKEND  ---      ---       LVL=0

      01005C7BH   BLOCK     CODE     ---       LVL=0
      ---         BLOCKEND  ---      ---       LVL=0

      01005C82H   BLOCK     CODE     ---       LVL=0
      00000006H   SYMBOL    DATA     BYTE      bt
      00000011H   SYMBOL    IDATA    BYTE      i
      01005C84H   BLOCK     CODE     NEAR LAB  LVL=1
      00000011H   SYMBOL    IDATA    BYTE      i
      ---         BLOCKEND  ---      ---       LVL=1
      01005C82H   LINE      CODE     ---       #76
      01005C84H   LINE      CODE     ---       #77
      01005C84H   LINE      CODE     ---       #80
      01005C87H   LINE      CODE     ---       #82
      01005C8BH   LINE      CODE     ---       #83
      01005C8BH   LINE      CODE     ---       #84
      01005C8FH   LINE      CODE     ---       #85
      01005C93H   LINE      CODE     ---       #87
      01005C95H   LINE      CODE     ---       #89
      01005C97H   LINE      CODE     ---       #90
      01005C9AH   LINE      CODE     ---       #91
      01005C9CH   LINE      CODE     ---       #92
      01005C9FH   LINE      CODE     ---       #93
      01005CA3H   LINE      CODE     ---       #94
      01005CACH   LINE      CODE     ---       #96
      01005CAEH   LINE      CODE     ---       #98
      01005CB0H   LINE      CODE     ---       #99
      01005CB3H   LINE      CODE     ---       #100
      01005CB6H   LINE      CODE     ---       #101
      01005CB9H   LINE      CODE     ---       #102
      01005CBBH   LINE      CODE     ---       #103
      ---         BLOCKEND  ---      ---       LVL=0

      01005CBEH   BLOCK     CODE     ---       LVL=0
LX51 LINKER/LOCATER V4.47a                                                            02/02/2015  10:52:25  PAGE 69


      00000006H   SYMBOL    DATA     BYTE      lastbyte
      01005CC0H   BLOCK     CODE     NEAR LAB  LVL=1
      00000011H   SYMBOL    IDATA    BYTE      i
      00000012H   SYMBOL    IDATA    BYTE      res
      ---         BLOCKEND  ---      ---       LVL=1
      01005CBEH   LINE      CODE     ---       #106
      01005CC0H   LINE      CODE     ---       #107
      01005CC0H   LINE      CODE     ---       #109
      01005CC4H   LINE      CODE     ---       #110
      01005CC6H   LINE      CODE     ---       #111
      01005CC8H   LINE      CODE     ---       #112
      01005CC8H   LINE      CODE     ---       #113
      01005CCAH   LINE      CODE     ---       #114
      01005CCDH   LINE      CODE     ---       #115
      01005CD4H   LINE      CODE     ---       #116
      01005CDBH   LINE      CODE     ---       #117
      01005CDDH   LINE      CODE     ---       #118
      01005CE0H   LINE      CODE     ---       #119
      01005CE9H   LINE      CODE     ---       #120
      01005CEEH   LINE      CODE     ---       #121
      01005CF0H   LINE      CODE     ---       #122
      01005CF3H   LINE      CODE     ---       #123
      01005CF5H   LINE      CODE     ---       #124
      01005CF7H   LINE      CODE     ---       #125
      01005CFAH   LINE      CODE     ---       #126
      01005CFEH   LINE      CODE     ---       #127
      ---         BLOCKEND  ---      ---       LVL=0

      01006198H   BLOCK     CODE     ---       LVL=0
      00000006H   SYMBOL    DATA     BYTE      dev_id
      00000005H   SYMBOL    DATA     BYTE      reg_addr
      01006198H   LINE      CODE     ---       #129
      01006198H   LINE      CODE     ---       #130
      01006198H   LINE      CODE     ---       #131
      01006198H   LINE      CODE     ---       #132
      0100619BH   LINE      CODE     ---       #133
      010061A0H   LINE      CODE     ---       #134
      ---         BLOCKEND  ---      ---       LVL=0

      01005EE8H   BLOCK     CODE     ---       LVL=0
      00000006H   SYMBOL    DATA     BYTE      dev_id
      01005EE8H   BLOCK     CODE     NEAR LAB  LVL=1
      00000007H   SYMBOL    DATA     BYTE      i
      ---         BLOCKEND  ---      ---       LVL=1
      01005EE8H   LINE      CODE     ---       #137
      01005EE8H   LINE      CODE     ---       #138
      01005EE8H   LINE      CODE     ---       #140
      01005EE8H   LINE      CODE     ---       #141
      01005EEBH   LINE      CODE     ---       #142
      01005EF2H   LINE      CODE     ---       #143
      01005EF9H   LINE      CODE     ---       #144
      01005F00H   LINE      CODE     ---       #145
      01005F07H   LINE      CODE     ---       #146
      01005F0AH   LINE      CODE     ---       #147
      01005F0FH   LINE      CODE     ---       #148
      01005F0FH   LINE      CODE     ---       #149
      ---         BLOCKEND  ---      ---       LVL=0

      ---         MODULE    ---      ---       EEPROM
      0000000CH   PUBLIC    DATA     BYTE      EEPROM_ack
      01006015H   PUBLIC    CODE     ---       _EEPROM_read_word
      0100610BH   PUBLIC    CODE     ---       _EEPROM_write_word
      01005F5BH   PUBLIC    CODE     ---       _EEPROM_read_byte
      01005FBDH   PUBLIC    CODE     ---       _EEPROM_write_byte
      01005D3BH   PUBLIC    CODE     ---       EEPROM_read_byte0
LX51 LINKER/LOCATER V4.47a                                                            02/02/2015  10:52:25  PAGE 70


      01005CFFH   PUBLIC    CODE     ---       _EEPROM_write_byte0
      010060AFH   PUBLIC    CODE     ---       EEPROM_restart0
      0100616CH   PUBLIC    CODE     ---       EEPROM_stop0
      0100615DH   PUBLIC    CODE     ---       EEPROM_start0
      01005F9FH   PUBLIC    CODE     ---       EEPROM_Init
      010061D9H   PUBLIC    CODE     ---       EEPROM_BitDly
      01006098H   PUBLIC    CODE     ---       _EEPROM_Delay
      000000B0H   SFRSYM    DATA     BIT       R485_RX
      000000D8H.2 SFRSYM    DATA     BIT       CCF2
      00000098H.3 SFRSYM    DATA     BIT       TB80
      000000F6H   SFRSYM    DATA     BYTE      PCAPWM4
      00000091H   SFRSYM    DATA     BYTE      P1M0
      00000094H   SFRSYM    DATA     BYTE      P0M1
      00000090H.7 SFRSYM    DATA     BIT       non3
      000000D8H.3 SFRSYM    DATA     BIT       CCF3
      00000098H.3 SFRSYM    DATA     BIT       TB81
      000000F7H   SFRSYM    DATA     BYTE      PCAPWM5
      00000095H   SFRSYM    DATA     BYTE      P2M0
      00000092H   SFRSYM    DATA     BYTE      P1M1
      00000080H   SFRSYM    DATA     BYTE      P0
      000000B0H.1 SFRSYM    DATA     BIT       R485_TX
      000000D8H.4 SFRSYM    DATA     BIT       CCF4
      00000098H.7 SFRSYM    DATA     BIT       SM00
      000000B1H   SFRSYM    DATA     BYTE      P3M0
      00000096H   SFRSYM    DATA     BYTE      P2M1
      00000090H   SFRSYM    DATA     BYTE      P1
      000000D8H.5 SFRSYM    DATA     BIT       CCF5
      00000098H.7 SFRSYM    DATA     BIT       SM01
      00000098H.6 SFRSYM    DATA     BIT       SM10
      000000B3H   SFRSYM    DATA     BYTE      P4M0
      000000B2H   SFRSYM    DATA     BYTE      P3M1
      000000A0H   SFRSYM    DATA     BYTE      P2
      00000098H.6 SFRSYM    DATA     BIT       SM11
      00000098H.5 SFRSYM    DATA     BIT       SM20
      000000E7H   SFRSYM    DATA     BYTE      ISPCR
      000000B5H   SFRSYM    DATA     BYTE      P5M0
      000000B4H   SFRSYM    DATA     BYTE      P4M1
      000000B0H   SFRSYM    DATA     BYTE      P3
      000000C0H   SFRSYM    DATA     BYTE      XICON
      000000A0H.2 SFRSYM    DATA     BIT       EEPROM_SDA
      00000080H.7 SFRSYM    DATA     BIT       DOWN_KEY
      000000B0H.4 SFRSYM    DATA     BIT       T0
      00000098H.5 SFRSYM    DATA     BIT       SM21
      000000D0H.6 SFRSYM    DATA     BIT       AC
      00000097H   SFRSYM    DATA     BYTE      EVRCR
      000000B6H   SFRSYM    DATA     BYTE      P5M1
      000000E8H   SFRSYM    DATA     BYTE      P4
      000000B0H.5 SFRSYM    DATA     BIT       T1
      00000085H   SFRSYM    DATA     BYTE      SPCON
      000000F8H   SFRSYM    DATA     BYTE      P5
      000000ADH   SFRSYM    DATA     BYTE      EIE1
      00000090H   SFRSYM    DATA     BIT       T2
      000000A8H.7 SFRSYM    DATA     BIT       EA
      000000ACH   SFRSYM    DATA     BYTE      SFRPI
      000000E1H   SFRSYM    DATA     BYTE      WDTCR
      000000C8H   SFRSYM    DATA     BYTE      P6
      000000A0H.4 SFRSYM    DATA     BIT       mV_SCL
      000000A0H   SFRSYM    DATA     BIT       KBI0
      00000090H.5 SFRSYM    DATA     BIT       SPI_MOSI
      00000090H.6 SFRSYM    DATA     BIT       SPI_MISO
      00000080H.5 SFRSYM    DATA     BIT       mA_OUT
      000000A0H.1 SFRSYM    DATA     BIT       KBI1
      00000085H   SFRSYM    DATA     BYTE      SPCTL
      000000A0H.2 SFRSYM    DATA     BIT       KBI2
      00000090H   SFRSYM    DATA     BIT       AIN0
LX51 LINKER/LOCATER V4.47a                                                            02/02/2015  10:52:25  PAGE 71


      000000D8H.7 SFRSYM    DATA     BIT       CF
      000000AEH   SFRSYM    DATA     BYTE      AUXIP
      000000A0H.3 SFRSYM    DATA     BIT       KBI3
      00000090H.1 SFRSYM    DATA     BIT       AIN1
      000000A0H.4 SFRSYM    DATA     BIT       KBI4
      00000090H.2 SFRSYM    DATA     BIT       AIN2
      00000098H.7 SFRSYM    DATA     BIT       FE
      000000F9H   SFRSYM    DATA     BYTE      CH
      000000A0H.5 SFRSYM    DATA     BIT       KBI5
      00000090H.3 SFRSYM    DATA     BIT       AIN3
      000000A0H.6 SFRSYM    DATA     BIT       KBI6
      00000090H.4 SFRSYM    DATA     BIT       AIN4
      000000A0H.3 SFRSYM    DATA     BIT       EEPROM_SCL
      00000080H.1 SFRSYM    DATA     BIT       RTD_C
      000000A0H.7 SFRSYM    DATA     BIT       KBI7
      00000090H.5 SFRSYM    DATA     BIT       AIN5
      000000A8H   SFRSYM    DATA     BYTE      IE
      00000090H.6 SFRSYM    DATA     BIT       AIN6
      000000E9H   SFRSYM    DATA     BYTE      CL
      00000090H.7 SFRSYM    DATA     BIT       AIN7
      00000090H.2 SFRSYM    DATA     BIT       CEX0
      000000FAH   SFRSYM    DATA     BYTE      CCAP0H
      000000C6H   SFRSYM    DATA     BYTE      ADCH
      00000090H.3 SFRSYM    DATA     BIT       CEX1
      000000FBH   SFRSYM    DATA     BYTE      CCAP1H
      000000B7H   SFRSYM    DATA     BYTE      IP0H
      000000A0H.2 SFRSYM    DATA     BIT       ALL_SDA
      00000090H.4 SFRSYM    DATA     BIT       CEX2
      000000FCH   SFRSYM    DATA     BYTE      CCAP2H
      000000B0H.3 SFRSYM    DATA     BIT       OFFSET_KEY
      00000090H.5 SFRSYM    DATA     BIT       CEX3
      000000FDH   SFRSYM    DATA     BYTE      CCAP3H
      00000090H.6 SFRSYM    DATA     BIT       CEX4
      000000D8H.6 SFRSYM    DATA     BIT       CR
      000000FEH   SFRSYM    DATA     BYTE      CCAP4H
      000000EAH   SFRSYM    DATA     BYTE      CCAP0L
      000000BEH   SFRSYM    DATA     BYTE      ADCL
      000000B0H.7 SFRSYM    DATA     BIT       RD
      00000090H.7 SFRSYM    DATA     BIT       CEX5
      000000C8H.6 SFRSYM    DATA     BIT       EXF2
      00000098H.4 SFRSYM    DATA     BIT       REN0
      000000FFH   SFRSYM    DATA     BYTE      CCAP5H
      000000EBH   SFRSYM    DATA     BYTE      CCAP1L
      000000DAH   SFRSYM    DATA     BYTE      CCAPM0
      000000B8H   SFRSYM    DATA     BYTE      IP0L
      00000098H.4 SFRSYM    DATA     BIT       REN1
      000000ECH   SFRSYM    DATA     BYTE      CCAP2L
      000000DBH   SFRSYM    DATA     BYTE      CCAPM1
      000000C0H.3 SFRSYM    DATA     BIT       IT2H
      000000A8H.4 SFRSYM    DATA     BIT       ES
      00000097H   SFRSYM    DATA     BYTE      TSTWD
      000000EDH   SFRSYM    DATA     BYTE      CCAP3L
      000000DCH   SFRSYM    DATA     BYTE      CCAPM2
      000000C0H.7 SFRSYM    DATA     BIT       IT3H
      000000EEH   SFRSYM    DATA     BYTE      CCAP4L
      000000DDH   SFRSYM    DATA     BYTE      CCAPM3
      000000B8H   SFRSYM    DATA     BYTE      IP
      000000EFH   SFRSYM    DATA     BYTE      CCAP5L
      000000DEH   SFRSYM    DATA     BYTE      CCAPM4
      00000098H   SFRSYM    DATA     BIT       RI
      000000DFH   SFRSYM    DATA     BYTE      CCAPM5
      000000B0H.2 SFRSYM    DATA     BIT       INT0
      000000D0H.7 SFRSYM    DATA     BIT       CY
      000000B0H.4 SFRSYM    DATA     BIT       BEEP
      00000080H.4 SFRSYM    DATA     BIT       mV_OUT
LX51 LINKER/LOCATER V4.47a                                                            02/02/2015  10:52:25  PAGE 72


      000000B0H.3 SFRSYM    DATA     BIT       INT1
      00000098H.1 SFRSYM    DATA     BIT       TI
      000000A0H.3 SFRSYM    DATA     BIT       EEP_SCL
      000000E8H.3 SFRSYM    DATA     BIT       INT2
      000000E8H.2 SFRSYM    DATA     BIT       INT3
      000000C6H   SFRSYM    DATA     BYTE      ADCV
      0000008FH   SFRSYM    DATA     BYTE      STRETCH
      000000B8H.1 SFRSYM    DATA     BIT       PT0L
      000000B8H.3 SFRSYM    DATA     BIT       PT1L
      000000CBH   SFRSYM    DATA     BYTE      RCAP2H
      000000A0H.2 SFRSYM    DATA     BIT       RTC_SDA
      000000B8H.4 SFRSYM    DATA     BIT       PS
      000000B8H.5 SFRSYM    DATA     BIT       PT2L
      00000081H   SFRSYM    DATA     BYTE      SP
      00000090H.1 SFRSYM    DATA     BIT       T2EX
      000000D9H   SFRSYM    DATA     BYTE      CMOD
      000000D8H   SFRSYM    DATA     BYTE      CCON
      0000009AH   SFRSYM    DATA     BYTE      SCFG
      000000B8H   SFRSYM    DATA     BIT       PX0L
      000000D0H.2 SFRSYM    DATA     BIT       OV
      000000B8H.2 SFRSYM    DATA     BIT       PX1L
      000000CAH   SFRSYM    DATA     BYTE      RCAP2L
      000000B8H.6 SFRSYM    DATA     BIT       PX2L
      00000090H.7 SFRSYM    DATA     BIT       SPI_CLK
      000000B8H.7 SFRSYM    DATA     BIT       PX3L
      000000E6H   SFRSYM    DATA     BYTE      SCMD
      000000B0H.6 SFRSYM    DATA     BIT       WR
      000000C8H.1 SFRSYM    DATA     BIT       C_T2
      00000084H   SFRSYM    DATA     BYTE      SPISTAT
      00000090H.6 SFRSYM    DATA     BIT       RTC_SCL
      000000C8H.5 SFRSYM    DATA     BIT       RCLK
      000000C8H.4 SFRSYM    DATA     BIT       TCLK
      00000080H   SFRSYM    DATA     BIT       P00
      000000E3H   SFRSYM    DATA     BYTE      IFADRH
      00000090H   SFRSYM    DATA     BIT       P10
      00000080H.1 SFRSYM    DATA     BIT       P01
      000000E5H   SFRSYM    DATA     BYTE      IFMT
      00000087H   SFRSYM    DATA     BYTE      PCON
      00000099H   SFRSYM    DATA     BYTE      SBUF
      000000A0H   SFRSYM    DATA     BIT       P20
      00000090H.1 SFRSYM    DATA     BIT       P11
      00000080H.2 SFRSYM    DATA     BIT       P02
      000000B0H   SFRSYM    DATA     BIT       P30
      000000A0H.1 SFRSYM    DATA     BIT       P21
      00000090H.2 SFRSYM    DATA     BIT       P12
      00000080H.3 SFRSYM    DATA     BIT       P03
      000000B0H.2 SFRSYM    DATA     BIT       FUNCTION_KEY
      000000E8H   SFRSYM    DATA     BIT       P40
      000000B0H.1 SFRSYM    DATA     BIT       P31
      000000A0H.2 SFRSYM    DATA     BIT       P22
      00000090H.3 SFRSYM    DATA     BIT       P13
      00000080H.4 SFRSYM    DATA     BIT       P04
      000000E4H   SFRSYM    DATA     BYTE      IFADRL
      00000098H   SFRSYM    DATA     BYTE      SCON
      000000F8H   SFRSYM    DATA     BIT       P50
      000000E8H.1 SFRSYM    DATA     BIT       P41
      000000B0H.2 SFRSYM    DATA     BIT       P32
      000000A0H.3 SFRSYM    DATA     BIT       P23
      00000090H.4 SFRSYM    DATA     BIT       P14
      00000080H.5 SFRSYM    DATA     BIT       P05
      00000089H   SFRSYM    DATA     BYTE      TMOD
      00000088H   SFRSYM    DATA     BYTE      TCON
      000000C8H   SFRSYM    DATA     BIT       P60
      000000F8H.1 SFRSYM    DATA     BIT       P51
      000000E8H.2 SFRSYM    DATA     BIT       P42
LX51 LINKER/LOCATER V4.47a                                                            02/02/2015  10:52:25  PAGE 73


      000000B0H.3 SFRSYM    DATA     BIT       P33
      000000A0H.4 SFRSYM    DATA     BIT       P24
      00000090H.5 SFRSYM    DATA     BIT       P15
      00000080H.6 SFRSYM    DATA     BIT       P06
      000000A0H.5 SFRSYM    DATA     BIT       TEMP
      000000C8H.1 SFRSYM    DATA     BIT       P61
      000000F8H.2 SFRSYM    DATA     BIT       P52
      000000E8H.3 SFRSYM    DATA     BIT       P43
      000000B0H.4 SFRSYM    DATA     BIT       P34
      000000A0H.5 SFRSYM    DATA     BIT       P25
      00000090H.6 SFRSYM    DATA     BIT       P16
      00000080H.7 SFRSYM    DATA     BIT       P07
      000000F8H.3 SFRSYM    DATA     BIT       P53
      000000E8H.4 SFRSYM    DATA     BIT       P44
      000000B0H.5 SFRSYM    DATA     BIT       P35
      000000A0H.6 SFRSYM    DATA     BIT       P26
      00000090H.7 SFRSYM    DATA     BIT       P17
      000000A0H   SFRSYM    DATA     BIT       Value_SDA
      000000E8H.5 SFRSYM    DATA     BIT       P45
      000000B0H.6 SFRSYM    DATA     BIT       P36
      000000A0H.7 SFRSYM    DATA     BIT       P27
      00000080H   SFRSYM    DATA     BIT       TC_C
      000000E8H.6 SFRSYM    DATA     BIT       P46
      000000B0H.7 SFRSYM    DATA     BIT       P37
      000000E8H.7 SFRSYM    DATA     BIT       P47
      000000D7H   SFRSYM    DATA     BYTE      KBMASK
      000000A0H.4 SFRSYM    DATA     BIT       OUT_SCL
      000000A0H   SFRSYM    DATA     BIT       AD_SDA
      00000088H.1 SFRSYM    DATA     BIT       IE0
      00000088H.3 SFRSYM    DATA     BIT       IE1
      00000090H   SFRSYM    DATA     BIT       LED1_SDA
      000000C0H.1 SFRSYM    DATA     BIT       IE2
      00000090H.3 SFRSYM    DATA     BIT       LED2_SDA
      000000C0H.5 SFRSYM    DATA     BIT       IE3
      000000A8H.6 SFRSYM    DATA     BIT       GF4
      0000008EH   SFRSYM    DATA     BYTE      AUXR
      000000F0H   SFRSYM    DATA     BYTE      B
      000000D5H   SFRSYM    DATA     BYTE      KBPATN
      000000A0H.1 SFRSYM    DATA     BIT       Value_SCL
      000000C8H   SFRSYM    DATA     BIT       CP_RL2
      000000A0H.6 SFRSYM    DATA     BIT       NONE_4
      000000A0H.7 SFRSYM    DATA     BIT       NONE_5
      000000B0H.6 SFRSYM    DATA     BIT       NONE_6
      00000086H   SFRSYM    DATA     BYTE      SPIDAT
      000000E0H   SFRSYM    DATA     BYTE      ACC
      000000B0H.7 SFRSYM    DATA     BIT       NONE_7
      000000A0H.1 SFRSYM    DATA     BIT       AD_SCL
      000000A8H.4 SFRSYM    DATA     BIT       ES0
      000000A8H.1 SFRSYM    DATA     BIT       ET0
      00000090H.2 SFRSYM    DATA     BIT       LED1_SCL
      00000088H.5 SFRSYM    DATA     BIT       TF0
      000000A8H.3 SFRSYM    DATA     BIT       ET1
      00000090H.4 SFRSYM    DATA     BIT       LED2_SCL
      00000088H.7 SFRSYM    DATA     BIT       TF1
      00000098H   SFRSYM    DATA     BIT       RI0
      000000A8H.5 SFRSYM    DATA     BIT       ET2
      000000C8H.7 SFRSYM    DATA     BIT       TF2
      00000098H   SFRSYM    DATA     BIT       RI1
      00000098H.2 SFRSYM    DATA     BIT       RB8
      0000008CH   SFRSYM    DATA     BYTE      TH0
      00000088H   SFRSYM    DATA     BIT       IT0
      00000098H.1 SFRSYM    DATA     BIT       TI0
      000000A8H   SFRSYM    DATA     BIT       EX0
      0000008DH   SFRSYM    DATA     BYTE      TH1
      00000088H.2 SFRSYM    DATA     BIT       IT1
LX51 LINKER/LOCATER V4.47a                                                            02/02/2015  10:52:25  PAGE 74


      00000098H.1 SFRSYM    DATA     BIT       TI1
      00000098H.3 SFRSYM    DATA     BIT       TB8
      000000A8H.2 SFRSYM    DATA     BIT       EX1
      00000085H   SFRSYM    DATA     BYTE      SPICON
      000000CDH   SFRSYM    DATA     BYTE      TH2
      000000C0H   SFRSYM    DATA     BIT       IT2
      000000C0H.2 SFRSYM    DATA     BIT       EX2
      000000D0H   SFRSYM    DATA     BIT       P
      000000C0H.4 SFRSYM    DATA     BIT       IT3
      000000C0H.6 SFRSYM    DATA     BIT       EX3
      00000098H.7 SFRSYM    DATA     BIT       SM0
      0000008AH   SFRSYM    DATA     BYTE      TL0
      00000080H.3 SFRSYM    DATA     BIT       mA_C
      000000C8H   SFRSYM    DATA     BIT       XOUT
      00000090H.1 SFRSYM    DATA     BIT       ECI
      00000098H.6 SFRSYM    DATA     BIT       SM1
      00000085H   SFRSYM    DATA     BYTE      SPICTL
      0000008BH   SFRSYM    DATA     BYTE      TL1
      000000AFH   SFRSYM    DATA     BYTE      AUXIPH
      000000E8H.6 SFRSYM    DATA     BIT       ALE
      00000098H.5 SFRSYM    DATA     BIT       SM2
      000000CCH   SFRSYM    DATA     BYTE      TL2
      000000E2H   SFRSYM    DATA     BYTE      IFD
      000000B8H.1 SFRSYM    DATA     BIT       PT0
      000000B0H.5 SFRSYM    DATA     BIT       R485_DE_RE
      000000B8H.3 SFRSYM    DATA     BIT       PT1
      000000D0H.3 SFRSYM    DATA     BIT       RS0
      00000088H.4 SFRSYM    DATA     BIT       TR0
      000000B8H.5 SFRSYM    DATA     BIT       PT2
      000000D0H.4 SFRSYM    DATA     BIT       RS1
      00000088H.6 SFRSYM    DATA     BIT       TR1
      000000C8H.2 SFRSYM    DATA     BIT       TR2
      000000B8H   SFRSYM    DATA     BIT       PX0
      000000AFH   SFRSYM    DATA     BYTE      EIP1H
      000000B8H.2 SFRSYM    DATA     BIT       PX1
      000000C0H.3 SFRSYM    DATA     BIT       PX2
      000000C0H.7 SFRSYM    DATA     BIT       PX3
      000000AEH   SFRSYM    DATA     BYTE      EIP1L
      00000083H   SFRSYM    DATA     BYTE      DPH
      000000C8H   SFRSYM    DATA     BIT       CKO
      00000082H   SFRSYM    DATA     BYTE      DPL
      00000087H   SFRSYM    DATA     BYTE      PCON0
      00000084H   SFRSYM    DATA     BYTE      SPSTAT
      00000099H   SFRSYM    DATA     BYTE      SBUF0
      000000B7H   SFRSYM    DATA     BYTE      IPH
      000000B0H.4 SFRSYM    DATA     BIT       T0CKO
      00000097H   SFRSYM    DATA     BYTE      PCON1
      00000099H   SFRSYM    DATA     BYTE      SBUF1
      000000B0H.5 SFRSYM    DATA     BIT       T1CKO
      000000C8H.3 SFRSYM    DATA     BIT       EXEN2
      000000C7H   SFRSYM    DATA     BYTE      PCON2
      0000009AH   SFRSYM    DATA     BYTE      S2BUF
      00000098H   SFRSYM    DATA     BYTE      SCON0
      00000098H.4 SFRSYM    DATA     BIT       REN
      00000098H   SFRSYM    DATA     BYTE      SCON1
      00000080H.2 SFRSYM    DATA     BIT       mV_C
      000000C5H   SFRSYM    DATA     BYTE      ADCON
      000000A0H.2 SFRSYM    DATA     BIT       mA_SDA
      000000C9H   SFRSYM    DATA     BYTE      T2MOD
      000000C8H   SFRSYM    DATA     BYTE      T2CON
      000000C5H   SFRSYM    DATA     BYTE      ADCTL
      000000BEH   SFRSYM    DATA     BYTE      ADCVL
      000000B9H   SFRSYM    DATA     BYTE      SADEN
      0000009AH   SFRSYM    DATA     BYTE      S1BRT
      000000B0H   SFRSYM    DATA     BIT       RXD
LX51 LINKER/LOCATER V4.47a                                                            02/02/2015  10:52:25  PAGE 75


      000000D6H   SFRSYM    DATA     BYTE      KBCON
      00000080H.6 SFRSYM    DATA     BIT       UP_KEY
      000000C8H.1 SFRSYM    DATA     BIT       XIN
      000000B8H.4 SFRSYM    DATA     BIT       PSL
      000000A9H   SFRSYM    DATA     BYTE      SADDR
      000000B0H.1 SFRSYM    DATA     BIT       TXD
      000000A0H.4 SFRSYM    DATA     BIT       mA_SCL
      0000008EH   SFRSYM    DATA     BYTE      AUXR0
      000000A2H   SFRSYM    DATA     BYTE      AUXR1
      00000090H.4 SFRSYM    DATA     BIT       SPI_SS
      000000A6H   SFRSYM    DATA     BYTE      AUXR2
      00000090H.2 SFRSYM    DATA     BIT       S2RXD
      000000D0H.5 SFRSYM    DATA     BIT       F0
      000000B0H.4 SFRSYM    DATA     BIT       BEEP_OUT
      00000090H.3 SFRSYM    DATA     BIT       S2TXD
      000000D0H.1 SFRSYM    DATA     BIT       F1
      00000090H.1 SFRSYM    DATA     BIT       LED1_LE
      00000090H.5 SFRSYM    DATA     BIT       LED2_LE
      000000F2H   SFRSYM    DATA     BYTE      PCAPWM0
      000000D0H   SFRSYM    DATA     BYTE      PSW
      000000F3H   SFRSYM    DATA     BYTE      PCAPWM1
      000000A0H.2 SFRSYM    DATA     BIT       mV_SDA
      000000D8H   SFRSYM    DATA     BIT       CCF0
      00000098H.2 SFRSYM    DATA     BIT       RB80
      000000F4H   SFRSYM    DATA     BYTE      PCAPWM2
      000000D8H.1 SFRSYM    DATA     BIT       CCF1
      00000098H.2 SFRSYM    DATA     BIT       RB81
      000000F5H   SFRSYM    DATA     BYTE      PCAPWM3
      00000086H   SFRSYM    DATA     BYTE      SPDAT
      00000093H   SFRSYM    DATA     BYTE      P0M0
      000000ADH   SFRSYM    DATA     BYTE      AUXIE

      01006098H   BLOCK     CODE     ---       LVL=0
      00000006H   SYMBOL    DATA     WORD      i
      01006098H   BLOCK     CODE     NEAR LAB  LVL=1
      00000005H   SYMBOL    DATA     BYTE      j
      ---         BLOCKEND  ---      ---       LVL=1
      01006098H   LINE      CODE     ---       #14
      01006098H   LINE      CODE     ---       #15
      01006098H   LINE      CODE     ---       #17
      010060A1H   LINE      CODE     ---       #18
      010060AEH   LINE      CODE     ---       #19
      ---         BLOCKEND  ---      ---       LVL=0

      010061D9H   BLOCK     CODE     ---       LVL=0
      010061D9H   BLOCK     CODE     NEAR LAB  LVL=1
      00000007H   SYMBOL    DATA     BYTE      i
      ---         BLOCKEND  ---      ---       LVL=1
      010061D9H   LINE      CODE     ---       #21
      010061D9H   LINE      CODE     ---       #22
      010061D9H   LINE      CODE     ---       #25
      010061DFH   LINE      CODE     ---       #26
      ---         BLOCKEND  ---      ---       LVL=0

      01005F9FH   BLOCK     CODE     ---       LVL=0
      01005F9FH   BLOCK     CODE     NEAR LAB  LVL=1
      00000006H   SYMBOL    DATA     WORD      i
      ---         BLOCKEND  ---      ---       LVL=1
      01005F9FH   LINE      CODE     ---       #28
      01005F9FH   LINE      CODE     ---       #29
      01005F9FH   LINE      CODE     ---       #32
      01005FA1H   LINE      CODE     ---       #33
      01005FA4H   LINE      CODE     ---       #34
      01005FA7H   LINE      CODE     ---       #35
      01005FAAH   LINE      CODE     ---       #36
LX51 LINKER/LOCATER V4.47a                                                            02/02/2015  10:52:25  PAGE 76


      01005FACH   LINE      CODE     ---       #37
      01005FBCH   LINE      CODE     ---       #38
      ---         BLOCKEND  ---      ---       LVL=0

      0100615DH   BLOCK     CODE     ---       LVL=0
      0100615DH   LINE      CODE     ---       #40
      0100615DH   LINE      CODE     ---       #41
      0100615DH   LINE      CODE     ---       #42
      0100615FH   LINE      CODE     ---       #43
      01006162H   LINE      CODE     ---       #44
      01006164H   LINE      CODE     ---       #45
      01006167H   LINE      CODE     ---       #46
      01006169H   LINE      CODE     ---       #47
      ---         BLOCKEND  ---      ---       LVL=0

      0100616CH   BLOCK     CODE     ---       LVL=0
      0100616CH   LINE      CODE     ---       #50
      0100616CH   LINE      CODE     ---       #51
      0100616CH   LINE      CODE     ---       #52
      0100616EH   LINE      CODE     ---       #53
      01006171H   LINE      CODE     ---       #54
      01006173H   LINE      CODE     ---       #55
      01006176H   LINE      CODE     ---       #56
      01006178H   LINE      CODE     ---       #57
      ---         BLOCKEND  ---      ---       LVL=0

      010060AFH   BLOCK     CODE     ---       LVL=0
      010060AFH   LINE      CODE     ---       #60
      010060AFH   LINE      CODE     ---       #61
      010060AFH   LINE      CODE     ---       #62
      010060B1H   LINE      CODE     ---       #63
      010060B4H   LINE      CODE     ---       #64
      010060B6H   LINE      CODE     ---       #65
      010060B9H   LINE      CODE     ---       #66
      010060BBH   LINE      CODE     ---       #67
      010060BEH   LINE      CODE     ---       #68
      010060C0H   LINE      CODE     ---       #69
      ---         BLOCKEND  ---      ---       LVL=0

      01005CFFH   BLOCK     CODE     ---       LVL=0
      00000006H   SYMBOL    DATA     BYTE      bt
      01005D01H   BLOCK     CODE     NEAR LAB  LVL=1
      00000010H   SYMBOL    IDATA    BYTE      i
      ---         BLOCKEND  ---      ---       LVL=1
      01005CFFH   LINE      CODE     ---       #72
      01005D01H   LINE      CODE     ---       #73
      01005D01H   LINE      CODE     ---       #76
      01005D04H   LINE      CODE     ---       #78
      01005D08H   LINE      CODE     ---       #79
      01005D08H   LINE      CODE     ---       #80
      01005D0CH   LINE      CODE     ---       #81
      01005D10H   LINE      CODE     ---       #83
      01005D12H   LINE      CODE     ---       #84
      01005D14H   LINE      CODE     ---       #85
      01005D17H   LINE      CODE     ---       #86
      01005D19H   LINE      CODE     ---       #87
      01005D1CH   LINE      CODE     ---       #88
      01005D20H   LINE      CODE     ---       #89
      01005D29H   LINE      CODE     ---       #91
      01005D2BH   LINE      CODE     ---       #92
      01005D2DH   LINE      CODE     ---       #93
      01005D30H   LINE      CODE     ---       #95
      01005D33H   LINE      CODE     ---       #96
      01005D36H   LINE      CODE     ---       #97
      01005D38H   LINE      CODE     ---       #98
LX51 LINKER/LOCATER V4.47a                                                            02/02/2015  10:52:25  PAGE 77


      ---         BLOCKEND  ---      ---       LVL=0

      01005D3BH   BLOCK     CODE     ---       LVL=0
      01005D3BH   BLOCK     CODE     NEAR LAB  LVL=1
      00000010H   SYMBOL    IDATA    BYTE      i
      00000011H   SYMBOL    IDATA    BYTE      res
      ---         BLOCKEND  ---      ---       LVL=1
      01005D3BH   LINE      CODE     ---       #101
      01005D3BH   LINE      CODE     ---       #102
      01005D3BH   LINE      CODE     ---       #104
      01005D3FH   LINE      CODE     ---       #105
      01005D41H   LINE      CODE     ---       #107
      01005D43H   LINE      CODE     ---       #108
      01005D43H   LINE      CODE     ---       #109
      01005D45H   LINE      CODE     ---       #110
      01005D48H   LINE      CODE     ---       #111
      01005D4FH   LINE      CODE     ---       #112
      01005D56H   LINE      CODE     ---       #113
      01005D58H   LINE      CODE     ---       #114
      01005D5BH   LINE      CODE     ---       #115
      01005D64H   LINE      CODE     ---       #116
      01005D66H   LINE      CODE     ---       #117
      01005D68H   LINE      CODE     ---       #118
      01005D6BH   LINE      CODE     ---       #119
      01005D6DH   LINE      CODE     ---       #120
      01005D6FH   LINE      CODE     ---       #121
      01005D72H   LINE      CODE     ---       #122
      01005D76H   LINE      CODE     ---       #123
      ---         BLOCKEND  ---      ---       LVL=0

      01005FBDH   BLOCK     CODE     ---       LVL=0
      00000004H   SYMBOL    DATA     BYTE      reg_addr
      00000005H   SYMBOL    DATA     BYTE      reg_data
      01005FBDH   LINE      CODE     ---       #125
      01005FBFH   LINE      CODE     ---       #126
      01005FBFH   LINE      CODE     ---       #127
      01005FC2H   LINE      CODE     ---       #128
      01005FC7H   LINE      CODE     ---       #129
      01005FCCH   LINE      CODE     ---       #130
      01005FD1H   LINE      CODE     ---       #131
      01005FD4H   LINE      CODE     ---       #132
      ---         BLOCKEND  ---      ---       LVL=0

      01005F5BH   BLOCK     CODE     ---       LVL=0
      00000005H   SYMBOL    DATA     BYTE      reg_addr
      01005F5DH   BLOCK     CODE     NEAR LAB  LVL=1
      00000006H   SYMBOL    DATA     BYTE      retb
      ---         BLOCKEND  ---      ---       LVL=1
      01005F5BH   LINE      CODE     ---       #135
      01005F5DH   LINE      CODE     ---       #136
      01005F5DH   LINE      CODE     ---       #139
      01005F60H   LINE      CODE     ---       #140
      01005F65H   LINE      CODE     ---       #141
      01005F6AH   LINE      CODE     ---       #143
      01005F6DH   LINE      CODE     ---       #144
      01005F72H   LINE      CODE     ---       #145
      01005F77H   LINE      CODE     ---       #146
      01005F7AH   LINE      CODE     ---       #148
      01005F7CH   LINE      CODE     ---       #149
      ---         BLOCKEND  ---      ---       LVL=0

      0100610BH   BLOCK     CODE     ---       LVL=0
      00000001H   SYMBOL    DATA     BYTE      addr
      00000002H   SYMBOL    DATA     WORD      intdata
      0100610BH   LINE      CODE     ---       #151
LX51 LINKER/LOCATER V4.47a                                                            02/02/2015  10:52:25  PAGE 78


      01006111H   LINE      CODE     ---       #152
      01006111H   LINE      CODE     ---       #153
      01006115H   LINE      CODE     ---       #154
      ---         BLOCKEND  ---      ---       LVL=0

      01006015H   BLOCK     CODE     ---       LVL=0
      00000004H   SYMBOL    DATA     BYTE      addr
      01006017H   BLOCK     CODE     NEAR LAB  LVL=1
      00000002H   SYMBOL    DATA     WORD      rdata
      ---         BLOCKEND  ---      ---       LVL=1
      01006015H   LINE      CODE     ---       #157
      01006017H   LINE      CODE     ---       #158
      01006017H   LINE      CODE     ---       #161
      0100601FH   LINE      CODE     ---       #162
      01006023H   LINE      CODE     ---       #163
      0100602DH   LINE      CODE     ---       #165
      01006030H   LINE      CODE     ---       #166
      ---         BLOCKEND  ---      ---       LVL=0

      ---         MODULE    ---      ---       DAC6571_MV
      0000000DH   PUBLIC    DATA     BYTE      _mV_ack
      01005F10H   PUBLIC    CODE     ---       _Set_mV
      01005D77H   PUBLIC    CODE     ---       _DAC6571mV_write_byte
      010061ADH   PUBLIC    CODE     ---       DAC6571mV_stop
      010060E7H   PUBLIC    CODE     ---       DAC6571mV_start
      010061E0H   PUBLIC    CODE     ---       _mVBitDly
      000000B0H   SFRSYM    DATA     BIT       R485_RX
      000000D8H.2 SFRSYM    DATA     BIT       CCF2
      00000098H.3 SFRSYM    DATA     BIT       TB80
      000000F6H   SFRSYM    DATA     BYTE      PCAPWM4
      00000091H   SFRSYM    DATA     BYTE      P1M0
      00000094H   SFRSYM    DATA     BYTE      P0M1
      00000090H.7 SFRSYM    DATA     BIT       non3
      000000D8H.3 SFRSYM    DATA     BIT       CCF3
      00000098H.3 SFRSYM    DATA     BIT       TB81
      000000F7H   SFRSYM    DATA     BYTE      PCAPWM5
      00000095H   SFRSYM    DATA     BYTE      P2M0
      00000092H   SFRSYM    DATA     BYTE      P1M1
      00000080H   SFRSYM    DATA     BYTE      P0
      000000B0H.1 SFRSYM    DATA     BIT       R485_TX
      000000D8H.4 SFRSYM    DATA     BIT       CCF4
      00000098H.7 SFRSYM    DATA     BIT       SM00
      000000B1H   SFRSYM    DATA     BYTE      P3M0
      00000096H   SFRSYM    DATA     BYTE      P2M1
      00000090H   SFRSYM    DATA     BYTE      P1
      000000D8H.5 SFRSYM    DATA     BIT       CCF5
      00000098H.7 SFRSYM    DATA     BIT       SM01
      00000098H.6 SFRSYM    DATA     BIT       SM10
      000000B3H   SFRSYM    DATA     BYTE      P4M0
      000000B2H   SFRSYM    DATA     BYTE      P3M1
      000000A0H   SFRSYM    DATA     BYTE      P2
      00000098H.6 SFRSYM    DATA     BIT       SM11
      00000098H.5 SFRSYM    DATA     BIT       SM20
      000000E7H   SFRSYM    DATA     BYTE      ISPCR
      000000B5H   SFRSYM    DATA     BYTE      P5M0
      000000B4H   SFRSYM    DATA     BYTE      P4M1
      000000B0H   SFRSYM    DATA     BYTE      P3
      000000C0H   SFRSYM    DATA     BYTE      XICON
      000000A0H.2 SFRSYM    DATA     BIT       EEPROM_SDA
      00000080H.7 SFRSYM    DATA     BIT       DOWN_KEY
      000000B0H.4 SFRSYM    DATA     BIT       T0
      00000098H.5 SFRSYM    DATA     BIT       SM21
      000000D0H.6 SFRSYM    DATA     BIT       AC
      00000097H   SFRSYM    DATA     BYTE      EVRCR
      000000B6H   SFRSYM    DATA     BYTE      P5M1
LX51 LINKER/LOCATER V4.47a                                                            02/02/2015  10:52:25  PAGE 79


      000000E8H   SFRSYM    DATA     BYTE      P4
      000000B0H.5 SFRSYM    DATA     BIT       T1
      00000085H   SFRSYM    DATA     BYTE      SPCON
      000000F8H   SFRSYM    DATA     BYTE      P5
      000000ADH   SFRSYM    DATA     BYTE      EIE1
      00000090H   SFRSYM    DATA     BIT       T2
      000000A8H.7 SFRSYM    DATA     BIT       EA
      000000ACH   SFRSYM    DATA     BYTE      SFRPI
      000000E1H   SFRSYM    DATA     BYTE      WDTCR
      000000C8H   SFRSYM    DATA     BYTE      P6
      000000A0H.4 SFRSYM    DATA     BIT       mV_SCL
      000000A0H   SFRSYM    DATA     BIT       KBI0
      00000090H.5 SFRSYM    DATA     BIT       SPI_MOSI
      00000090H.6 SFRSYM    DATA     BIT       SPI_MISO
      00000080H.5 SFRSYM    DATA     BIT       mA_OUT
      000000A0H.1 SFRSYM    DATA     BIT       KBI1
      00000085H   SFRSYM    DATA     BYTE      SPCTL
      000000A0H.2 SFRSYM    DATA     BIT       KBI2
      00000090H   SFRSYM    DATA     BIT       AIN0
      000000D8H.7 SFRSYM    DATA     BIT       CF
      000000AEH   SFRSYM    DATA     BYTE      AUXIP
      000000A0H.3 SFRSYM    DATA     BIT       KBI3
      00000090H.1 SFRSYM    DATA     BIT       AIN1
      000000A0H.4 SFRSYM    DATA     BIT       KBI4
      00000090H.2 SFRSYM    DATA     BIT       AIN2
      00000098H.7 SFRSYM    DATA     BIT       FE
      000000F9H   SFRSYM    DATA     BYTE      CH
      000000A0H.5 SFRSYM    DATA     BIT       KBI5
      00000090H.3 SFRSYM    DATA     BIT       AIN3
      000000A0H.6 SFRSYM    DATA     BIT       KBI6
      00000090H.4 SFRSYM    DATA     BIT       AIN4
      000000A0H.3 SFRSYM    DATA     BIT       EEPROM_SCL
      00000080H.1 SFRSYM    DATA     BIT       RTD_C
      000000A0H.7 SFRSYM    DATA     BIT       KBI7
      00000090H.5 SFRSYM    DATA     BIT       AIN5
      000000A8H   SFRSYM    DATA     BYTE      IE
      00000090H.6 SFRSYM    DATA     BIT       AIN6
      000000E9H   SFRSYM    DATA     BYTE      CL
      00000090H.7 SFRSYM    DATA     BIT       AIN7
      00000090H.2 SFRSYM    DATA     BIT       CEX0
      000000FAH   SFRSYM    DATA     BYTE      CCAP0H
      000000C6H   SFRSYM    DATA     BYTE      ADCH
      00000090H.3 SFRSYM    DATA     BIT       CEX1
      000000FBH   SFRSYM    DATA     BYTE      CCAP1H
      000000B7H   SFRSYM    DATA     BYTE      IP0H
      000000A0H.2 SFRSYM    DATA     BIT       ALL_SDA
      00000090H.4 SFRSYM    DATA     BIT       CEX2
      000000FCH   SFRSYM    DATA     BYTE      CCAP2H
      000000B0H.3 SFRSYM    DATA     BIT       OFFSET_KEY
      00000090H.5 SFRSYM    DATA     BIT       CEX3
      000000FDH   SFRSYM    DATA     BYTE      CCAP3H
      00000090H.6 SFRSYM    DATA     BIT       CEX4
      000000D8H.6 SFRSYM    DATA     BIT       CR
      000000FEH   SFRSYM    DATA     BYTE      CCAP4H
      000000EAH   SFRSYM    DATA     BYTE      CCAP0L
      000000BEH   SFRSYM    DATA     BYTE      ADCL
      000000B0H.7 SFRSYM    DATA     BIT       RD
      00000090H.7 SFRSYM    DATA     BIT       CEX5
      000000C8H.6 SFRSYM    DATA     BIT       EXF2
      00000098H.4 SFRSYM    DATA     BIT       REN0
      000000FFH   SFRSYM    DATA     BYTE      CCAP5H
      000000EBH   SFRSYM    DATA     BYTE      CCAP1L
      000000DAH   SFRSYM    DATA     BYTE      CCAPM0
      000000B8H   SFRSYM    DATA     BYTE      IP0L
      00000098H.4 SFRSYM    DATA     BIT       REN1
LX51 LINKER/LOCATER V4.47a                                                            02/02/2015  10:52:25  PAGE 80


      000000ECH   SFRSYM    DATA     BYTE      CCAP2L
      000000DBH   SFRSYM    DATA     BYTE      CCAPM1
      000000C0H.3 SFRSYM    DATA     BIT       IT2H
      000000A8H.4 SFRSYM    DATA     BIT       ES
      00000097H   SFRSYM    DATA     BYTE      TSTWD
      000000EDH   SFRSYM    DATA     BYTE      CCAP3L
      000000DCH   SFRSYM    DATA     BYTE      CCAPM2
      000000C0H.7 SFRSYM    DATA     BIT       IT3H
      000000EEH   SFRSYM    DATA     BYTE      CCAP4L
      000000DDH   SFRSYM    DATA     BYTE      CCAPM3
      000000B8H   SFRSYM    DATA     BYTE      IP
      000000EFH   SFRSYM    DATA     BYTE      CCAP5L
      000000DEH   SFRSYM    DATA     BYTE      CCAPM4
      00000098H   SFRSYM    DATA     BIT       RI
      000000DFH   SFRSYM    DATA     BYTE      CCAPM5
      000000B0H.2 SFRSYM    DATA     BIT       INT0
      000000D0H.7 SFRSYM    DATA     BIT       CY
      000000B0H.4 SFRSYM    DATA     BIT       BEEP
      00000080H.4 SFRSYM    DATA     BIT       mV_OUT
      000000B0H.3 SFRSYM    DATA     BIT       INT1
      00000098H.1 SFRSYM    DATA     BIT       TI
      000000A0H.3 SFRSYM    DATA     BIT       EEP_SCL
      000000E8H.3 SFRSYM    DATA     BIT       INT2
      000000E8H.2 SFRSYM    DATA     BIT       INT3
      000000C6H   SFRSYM    DATA     BYTE      ADCV
      0000008FH   SFRSYM    DATA     BYTE      STRETCH
      000000B8H.1 SFRSYM    DATA     BIT       PT0L
      000000B8H.3 SFRSYM    DATA     BIT       PT1L
      000000CBH   SFRSYM    DATA     BYTE      RCAP2H
      000000A0H.2 SFRSYM    DATA     BIT       RTC_SDA
      000000B8H.4 SFRSYM    DATA     BIT       PS
      000000B8H.5 SFRSYM    DATA     BIT       PT2L
      00000081H   SFRSYM    DATA     BYTE      SP
      00000090H.1 SFRSYM    DATA     BIT       T2EX
      000000D9H   SFRSYM    DATA     BYTE      CMOD
      000000D8H   SFRSYM    DATA     BYTE      CCON
      0000009AH   SFRSYM    DATA     BYTE      SCFG
      000000B8H   SFRSYM    DATA     BIT       PX0L
      000000D0H.2 SFRSYM    DATA     BIT       OV
      000000B8H.2 SFRSYM    DATA     BIT       PX1L
      000000CAH   SFRSYM    DATA     BYTE      RCAP2L
      000000B8H.6 SFRSYM    DATA     BIT       PX2L
      00000090H.7 SFRSYM    DATA     BIT       SPI_CLK
      000000B8H.7 SFRSYM    DATA     BIT       PX3L
      000000E6H   SFRSYM    DATA     BYTE      SCMD
      000000B0H.6 SFRSYM    DATA     BIT       WR
      000000C8H.1 SFRSYM    DATA     BIT       C_T2
      00000084H   SFRSYM    DATA     BYTE      SPISTAT
      00000090H.6 SFRSYM    DATA     BIT       RTC_SCL
      000000C8H.5 SFRSYM    DATA     BIT       RCLK
      000000C8H.4 SFRSYM    DATA     BIT       TCLK
      00000080H   SFRSYM    DATA     BIT       P00
      000000E3H   SFRSYM    DATA     BYTE      IFADRH
      00000090H   SFRSYM    DATA     BIT       P10
      00000080H.1 SFRSYM    DATA     BIT       P01
      000000E5H   SFRSYM    DATA     BYTE      IFMT
      00000087H   SFRSYM    DATA     BYTE      PCON
      00000099H   SFRSYM    DATA     BYTE      SBUF
      000000A0H   SFRSYM    DATA     BIT       P20
      00000090H.1 SFRSYM    DATA     BIT       P11
      00000080H.2 SFRSYM    DATA     BIT       P02
      000000B0H   SFRSYM    DATA     BIT       P30
      000000A0H.1 SFRSYM    DATA     BIT       P21
      00000090H.2 SFRSYM    DATA     BIT       P12
      00000080H.3 SFRSYM    DATA     BIT       P03
LX51 LINKER/LOCATER V4.47a                                                            02/02/2015  10:52:25  PAGE 81


      000000B0H.2 SFRSYM    DATA     BIT       FUNCTION_KEY
      000000E8H   SFRSYM    DATA     BIT       P40
      000000B0H.1 SFRSYM    DATA     BIT       P31
      000000A0H.2 SFRSYM    DATA     BIT       P22
      00000090H.3 SFRSYM    DATA     BIT       P13
      00000080H.4 SFRSYM    DATA     BIT       P04
      000000E4H   SFRSYM    DATA     BYTE      IFADRL
      00000098H   SFRSYM    DATA     BYTE      SCON
      000000F8H   SFRSYM    DATA     BIT       P50
      000000E8H.1 SFRSYM    DATA     BIT       P41
      000000B0H.2 SFRSYM    DATA     BIT       P32
      000000A0H.3 SFRSYM    DATA     BIT       P23
      00000090H.4 SFRSYM    DATA     BIT       P14
      00000080H.5 SFRSYM    DATA     BIT       P05
      00000089H   SFRSYM    DATA     BYTE      TMOD
      00000088H   SFRSYM    DATA     BYTE      TCON
      000000C8H   SFRSYM    DATA     BIT       P60
      000000F8H.1 SFRSYM    DATA     BIT       P51
      000000E8H.2 SFRSYM    DATA     BIT       P42
      000000B0H.3 SFRSYM    DATA     BIT       P33
      000000A0H.4 SFRSYM    DATA     BIT       P24
      00000090H.5 SFRSYM    DATA     BIT       P15
      00000080H.6 SFRSYM    DATA     BIT       P06
      000000A0H.5 SFRSYM    DATA     BIT       TEMP
      000000C8H.1 SFRSYM    DATA     BIT       P61
      000000F8H.2 SFRSYM    DATA     BIT       P52
      000000E8H.3 SFRSYM    DATA     BIT       P43
      000000B0H.4 SFRSYM    DATA     BIT       P34
      000000A0H.5 SFRSYM    DATA     BIT       P25
      00000090H.6 SFRSYM    DATA     BIT       P16
      00000080H.7 SFRSYM    DATA     BIT       P07
      000000F8H.3 SFRSYM    DATA     BIT       P53
      000000E8H.4 SFRSYM    DATA     BIT       P44
      000000B0H.5 SFRSYM    DATA     BIT       P35
      000000A0H.6 SFRSYM    DATA     BIT       P26
      00000090H.7 SFRSYM    DATA     BIT       P17
      000000A0H   SFRSYM    DATA     BIT       Value_SDA
      000000E8H.5 SFRSYM    DATA     BIT       P45
      000000B0H.6 SFRSYM    DATA     BIT       P36
      000000A0H.7 SFRSYM    DATA     BIT       P27
      00000080H   SFRSYM    DATA     BIT       TC_C
      000000E8H.6 SFRSYM    DATA     BIT       P46
      000000B0H.7 SFRSYM    DATA     BIT       P37
      000000E8H.7 SFRSYM    DATA     BIT       P47
      000000D7H   SFRSYM    DATA     BYTE      KBMASK
      000000A0H.4 SFRSYM    DATA     BIT       OUT_SCL
      000000A0H   SFRSYM    DATA     BIT       AD_SDA
      00000088H.1 SFRSYM    DATA     BIT       IE0
      00000088H.3 SFRSYM    DATA     BIT       IE1
      00000090H   SFRSYM    DATA     BIT       LED1_SDA
      000000C0H.1 SFRSYM    DATA     BIT       IE2
      00000090H.3 SFRSYM    DATA     BIT       LED2_SDA
      000000C0H.5 SFRSYM    DATA     BIT       IE3
      000000A8H.6 SFRSYM    DATA     BIT       GF4
      0000008EH   SFRSYM    DATA     BYTE      AUXR
      000000F0H   SFRSYM    DATA     BYTE      B
      000000D5H   SFRSYM    DATA     BYTE      KBPATN
      000000A0H.1 SFRSYM    DATA     BIT       Value_SCL
      000000C8H   SFRSYM    DATA     BIT       CP_RL2
      000000A0H.6 SFRSYM    DATA     BIT       NONE_4
      000000A0H.7 SFRSYM    DATA     BIT       NONE_5
      000000B0H.6 SFRSYM    DATA     BIT       NONE_6
      00000086H   SFRSYM    DATA     BYTE      SPIDAT
      000000E0H   SFRSYM    DATA     BYTE      ACC
      000000B0H.7 SFRSYM    DATA     BIT       NONE_7
LX51 LINKER/LOCATER V4.47a                                                            02/02/2015  10:52:25  PAGE 82


      000000A0H.1 SFRSYM    DATA     BIT       AD_SCL
      000000A8H.4 SFRSYM    DATA     BIT       ES0
      000000A8H.1 SFRSYM    DATA     BIT       ET0
      00000090H.2 SFRSYM    DATA     BIT       LED1_SCL
      00000088H.5 SFRSYM    DATA     BIT       TF0
      000000A8H.3 SFRSYM    DATA     BIT       ET1
      00000090H.4 SFRSYM    DATA     BIT       LED2_SCL
      00000088H.7 SFRSYM    DATA     BIT       TF1
      00000098H   SFRSYM    DATA     BIT       RI0
      000000A8H.5 SFRSYM    DATA     BIT       ET2
      000000C8H.7 SFRSYM    DATA     BIT       TF2
      00000098H   SFRSYM    DATA     BIT       RI1
      00000098H.2 SFRSYM    DATA     BIT       RB8
      0000008CH   SFRSYM    DATA     BYTE      TH0
      00000088H   SFRSYM    DATA     BIT       IT0
      00000098H.1 SFRSYM    DATA     BIT       TI0
      000000A8H   SFRSYM    DATA     BIT       EX0
      0000008DH   SFRSYM    DATA     BYTE      TH1
      00000088H.2 SFRSYM    DATA     BIT       IT1
      00000098H.1 SFRSYM    DATA     BIT       TI1
      00000098H.3 SFRSYM    DATA     BIT       TB8
      000000A8H.2 SFRSYM    DATA     BIT       EX1
      00000085H   SFRSYM    DATA     BYTE      SPICON
      000000CDH   SFRSYM    DATA     BYTE      TH2
      000000C0H   SFRSYM    DATA     BIT       IT2
      000000C0H.2 SFRSYM    DATA     BIT       EX2
      000000D0H   SFRSYM    DATA     BIT       P
      000000C0H.4 SFRSYM    DATA     BIT       IT3
      000000C0H.6 SFRSYM    DATA     BIT       EX3
      00000098H.7 SFRSYM    DATA     BIT       SM0
      0000008AH   SFRSYM    DATA     BYTE      TL0
      00000080H.3 SFRSYM    DATA     BIT       mA_C
      000000C8H   SFRSYM    DATA     BIT       XOUT
      00000090H.1 SFRSYM    DATA     BIT       ECI
      00000098H.6 SFRSYM    DATA     BIT       SM1
      00000085H   SFRSYM    DATA     BYTE      SPICTL
      0000008BH   SFRSYM    DATA     BYTE      TL1
      000000AFH   SFRSYM    DATA     BYTE      AUXIPH
      000000E8H.6 SFRSYM    DATA     BIT       ALE
      00000098H.5 SFRSYM    DATA     BIT       SM2
      000000CCH   SFRSYM    DATA     BYTE      TL2
      000000E2H   SFRSYM    DATA     BYTE      IFD
      000000B8H.1 SFRSYM    DATA     BIT       PT0
      000000B0H.5 SFRSYM    DATA     BIT       R485_DE_RE
      000000B8H.3 SFRSYM    DATA     BIT       PT1
      000000D0H.3 SFRSYM    DATA     BIT       RS0
      00000088H.4 SFRSYM    DATA     BIT       TR0
      000000B8H.5 SFRSYM    DATA     BIT       PT2
      000000D0H.4 SFRSYM    DATA     BIT       RS1
      00000088H.6 SFRSYM    DATA     BIT       TR1
      000000C8H.2 SFRSYM    DATA     BIT       TR2
      000000B8H   SFRSYM    DATA     BIT       PX0
      000000AFH   SFRSYM    DATA     BYTE      EIP1H
      000000B8H.2 SFRSYM    DATA     BIT       PX1
      000000C0H.3 SFRSYM    DATA     BIT       PX2
      000000C0H.7 SFRSYM    DATA     BIT       PX3
      000000AEH   SFRSYM    DATA     BYTE      EIP1L
      00000083H   SFRSYM    DATA     BYTE      DPH
      000000C8H   SFRSYM    DATA     BIT       CKO
      00000082H   SFRSYM    DATA     BYTE      DPL
      00000087H   SFRSYM    DATA     BYTE      PCON0
      00000084H   SFRSYM    DATA     BYTE      SPSTAT
      00000099H   SFRSYM    DATA     BYTE      SBUF0
      000000B7H   SFRSYM    DATA     BYTE      IPH
      000000B0H.4 SFRSYM    DATA     BIT       T0CKO
LX51 LINKER/LOCATER V4.47a                                                            02/02/2015  10:52:25  PAGE 83


      00000097H   SFRSYM    DATA     BYTE      PCON1
      00000099H   SFRSYM    DATA     BYTE      SBUF1
      000000B0H.5 SFRSYM    DATA     BIT       T1CKO
      000000C8H.3 SFRSYM    DATA     BIT       EXEN2
      000000C7H   SFRSYM    DATA     BYTE      PCON2
      0000009AH   SFRSYM    DATA     BYTE      S2BUF
      00000098H   SFRSYM    DATA     BYTE      SCON0
      00000098H.4 SFRSYM    DATA     BIT       REN
      00000098H   SFRSYM    DATA     BYTE      SCON1
      00000080H.2 SFRSYM    DATA     BIT       mV_C
      000000C5H   SFRSYM    DATA     BYTE      ADCON
      000000A0H.2 SFRSYM    DATA     BIT       mA_SDA
      000000C9H   SFRSYM    DATA     BYTE      T2MOD
      000000C8H   SFRSYM    DATA     BYTE      T2CON
      000000C5H   SFRSYM    DATA     BYTE      ADCTL
      000000BEH   SFRSYM    DATA     BYTE      ADCVL
      000000B9H   SFRSYM    DATA     BYTE      SADEN
      0000009AH   SFRSYM    DATA     BYTE      S1BRT
      000000B0H   SFRSYM    DATA     BIT       RXD
      000000D6H   SFRSYM    DATA     BYTE      KBCON
      00000080H.6 SFRSYM    DATA     BIT       UP_KEY
      000000C8H.1 SFRSYM    DATA     BIT       XIN
      000000B8H.4 SFRSYM    DATA     BIT       PSL
      000000A9H   SFRSYM    DATA     BYTE      SADDR
      000000B0H.1 SFRSYM    DATA     BIT       TXD
      000000A0H.4 SFRSYM    DATA     BIT       mA_SCL
      0000008EH   SFRSYM    DATA     BYTE      AUXR0
      000000A2H   SFRSYM    DATA     BYTE      AUXR1
      00000090H.4 SFRSYM    DATA     BIT       SPI_SS
      000000A6H   SFRSYM    DATA     BYTE      AUXR2
      00000090H.2 SFRSYM    DATA     BIT       S2RXD
      000000D0H.5 SFRSYM    DATA     BIT       F0
      000000B0H.4 SFRSYM    DATA     BIT       BEEP_OUT
      00000090H.3 SFRSYM    DATA     BIT       S2TXD
      000000D0H.1 SFRSYM    DATA     BIT       F1
      00000090H.1 SFRSYM    DATA     BIT       LED1_LE
      00000090H.5 SFRSYM    DATA     BIT       LED2_LE
      000000F2H   SFRSYM    DATA     BYTE      PCAPWM0
      000000D0H   SFRSYM    DATA     BYTE      PSW
      000000F3H   SFRSYM    DATA     BYTE      PCAPWM1
      000000A0H.2 SFRSYM    DATA     BIT       mV_SDA
      000000D8H   SFRSYM    DATA     BIT       CCF0
      00000098H.2 SFRSYM    DATA     BIT       RB80
      000000F4H   SFRSYM    DATA     BYTE      PCAPWM2
      000000D8H.1 SFRSYM    DATA     BIT       CCF1
      00000098H.2 SFRSYM    DATA     BIT       RB81
      000000F5H   SFRSYM    DATA     BYTE      PCAPWM3
      00000086H   SFRSYM    DATA     BYTE      SPDAT
      00000093H   SFRSYM    DATA     BYTE      P0M0
      000000ADH   SFRSYM    DATA     BYTE      AUXIE

      010061E0H   BLOCK     CODE     ---       LVL=0
      010061E0H   BLOCK     CODE     NEAR LAB  LVL=1
      00000007H   SYMBOL    DATA     BYTE      i
      ---         BLOCKEND  ---      ---       LVL=1
      010061E0H   LINE      CODE     ---       #27
      010061E0H   LINE      CODE     ---       #28
      010061E0H   LINE      CODE     ---       #31
      010061E6H   LINE      CODE     ---       #32
      ---         BLOCKEND  ---      ---       LVL=0
      00000006H   SYMBOL    DATA     WORD      i

      010060E7H   BLOCK     CODE     ---       LVL=0
      010060E7H   LINE      CODE     ---       #49
      010060E7H   LINE      CODE     ---       #50
LX51 LINKER/LOCATER V4.47a                                                            02/02/2015  10:52:25  PAGE 84


      010060E7H   LINE      CODE     ---       #51
      010060E9H   LINE      CODE     ---       #52
      010060ECH   LINE      CODE     ---       #53
      010060EEH   LINE      CODE     ---       #54
      010060F1H   LINE      CODE     ---       #55
      010060F3H   LINE      CODE     ---       #56
      010060F6H   LINE      CODE     ---       #57
      010060F8H   LINE      CODE     ---       #58
      ---         BLOCKEND  ---      ---       LVL=0

      010061ADH   BLOCK     CODE     ---       LVL=0
      010061ADH   LINE      CODE     ---       #60
      010061ADH   LINE      CODE     ---       #61
      010061ADH   LINE      CODE     ---       #62
      010061AFH   LINE      CODE     ---       #63
      010061B2H   LINE      CODE     ---       #64
      010061B4H   LINE      CODE     ---       #65
      ---         BLOCKEND  ---      ---       LVL=0

      01005D77H   BLOCK     CODE     ---       LVL=0
      00000006H   SYMBOL    DATA     BYTE      bt
      01005D79H   BLOCK     CODE     NEAR LAB  LVL=1
      00000010H   SYMBOL    IDATA    BYTE      i
      ---         BLOCKEND  ---      ---       LVL=1
      01005D77H   LINE      CODE     ---       #68
      01005D79H   LINE      CODE     ---       #69
      01005D79H   LINE      CODE     ---       #72
      01005D7CH   LINE      CODE     ---       #74
      01005D80H   LINE      CODE     ---       #75
      01005D80H   LINE      CODE     ---       #76
      01005D84H   LINE      CODE     ---       #77
      01005D88H   LINE      CODE     ---       #79
      01005D8AH   LINE      CODE     ---       #80
      01005D8CH   LINE      CODE     ---       #81
      01005D8FH   LINE      CODE     ---       #82
      01005D91H   LINE      CODE     ---       #83
      01005D94H   LINE      CODE     ---       #84
      01005D98H   LINE      CODE     ---       #85
      01005DA1H   LINE      CODE     ---       #87
      01005DA3H   LINE      CODE     ---       #88
      01005DA5H   LINE      CODE     ---       #89
      01005DA8H   LINE      CODE     ---       #90
      01005DABH   LINE      CODE     ---       #91
      01005DAEH   LINE      CODE     ---       #92
      01005DB0H   LINE      CODE     ---       #93
      ---         BLOCKEND  ---      ---       LVL=0

      01005F10H   BLOCK     CODE     ---       LVL=0
      00000006H   SYMBOL    DATA     WORD      mV_V
      01005F10H   BLOCK     CODE     NEAR LAB  LVL=1
      00000003H   SYMBOL    DATA     BYTE      HI_CODE
      00000002H   SYMBOL    DATA     BYTE      LO_CODE
      ---         BLOCKEND  ---      ---       LVL=1
      01005F10H   LINE      CODE     ---       #96
      01005F10H   LINE      CODE     ---       #97
      01005F10H   LINE      CODE     ---       #101
      01005F10H   LINE      CODE     ---       #103
      01005F14H   LINE      CODE     ---       #104
      01005F1AH   LINE      CODE     ---       #105
      01005F1CH   LINE      CODE     ---       #106
      01005F1EH   LINE      CODE     ---       #107
      01005F23H   LINE      CODE     ---       #109
      01005F26H   LINE      CODE     ---       #110
      01005F2BH   LINE      CODE     ---       #111
      01005F30H   LINE      CODE     ---       #112
LX51 LINKER/LOCATER V4.47a                                                            02/02/2015  10:52:25  PAGE 85


      01005F35H   LINE      CODE     ---       #113
      ---         BLOCKEND  ---      ---       LVL=0
      00000006H   SYMBOL    DATA     WORD      n

      ---         MODULE    ---      ---       DAC6571_MA
      0000000EH   PUBLIC    DATA     BYTE      _mA_ack
      01005E61H   PUBLIC    CODE     ---       _Set_mA
      01005DB3H   PUBLIC    CODE     ---       _DAC6571mA_write_byte
      010061B7H   PUBLIC    CODE     ---       DAC6571mA_stop
      010060F9H   PUBLIC    CODE     ---       DAC6571mA_start
      010061E7H   PUBLIC    CODE     ---       _mABitDly
      000000B0H   SFRSYM    DATA     BIT       R485_RX
      000000D8H.2 SFRSYM    DATA     BIT       CCF2
      00000098H.3 SFRSYM    DATA     BIT       TB80
      000000F6H   SFRSYM    DATA     BYTE      PCAPWM4
      00000091H   SFRSYM    DATA     BYTE      P1M0
      00000094H   SFRSYM    DATA     BYTE      P0M1
      00000090H.7 SFRSYM    DATA     BIT       non3
      000000D8H.3 SFRSYM    DATA     BIT       CCF3
      00000098H.3 SFRSYM    DATA     BIT       TB81
      000000F7H   SFRSYM    DATA     BYTE      PCAPWM5
      00000095H   SFRSYM    DATA     BYTE      P2M0
      00000092H   SFRSYM    DATA     BYTE      P1M1
      00000080H   SFRSYM    DATA     BYTE      P0
      000000B0H.1 SFRSYM    DATA     BIT       R485_TX
      000000D8H.4 SFRSYM    DATA     BIT       CCF4
      00000098H.7 SFRSYM    DATA     BIT       SM00
      000000B1H   SFRSYM    DATA     BYTE      P3M0
      00000096H   SFRSYM    DATA     BYTE      P2M1
      00000090H   SFRSYM    DATA     BYTE      P1
      000000D8H.5 SFRSYM    DATA     BIT       CCF5
      00000098H.7 SFRSYM    DATA     BIT       SM01
      00000098H.6 SFRSYM    DATA     BIT       SM10
      000000B3H   SFRSYM    DATA     BYTE      P4M0
      000000B2H   SFRSYM    DATA     BYTE      P3M1
      000000A0H   SFRSYM    DATA     BYTE      P2
      00000098H.6 SFRSYM    DATA     BIT       SM11
      00000098H.5 SFRSYM    DATA     BIT       SM20
      000000E7H   SFRSYM    DATA     BYTE      ISPCR
      000000B5H   SFRSYM    DATA     BYTE      P5M0
      000000B4H   SFRSYM    DATA     BYTE      P4M1
      000000B0H   SFRSYM    DATA     BYTE      P3
      000000C0H   SFRSYM    DATA     BYTE      XICON
      000000A0H.2 SFRSYM    DATA     BIT       EEPROM_SDA
      00000080H.7 SFRSYM    DATA     BIT       DOWN_KEY
      000000B0H.4 SFRSYM    DATA     BIT       T0
      00000098H.5 SFRSYM    DATA     BIT       SM21
      000000D0H.6 SFRSYM    DATA     BIT       AC
      00000097H   SFRSYM    DATA     BYTE      EVRCR
      000000B6H   SFRSYM    DATA     BYTE      P5M1
      000000E8H   SFRSYM    DATA     BYTE      P4
      000000B0H.5 SFRSYM    DATA     BIT       T1
      00000085H   SFRSYM    DATA     BYTE      SPCON
      000000F8H   SFRSYM    DATA     BYTE      P5
      000000ADH   SFRSYM    DATA     BYTE      EIE1
      00000090H   SFRSYM    DATA     BIT       T2
      000000A8H.7 SFRSYM    DATA     BIT       EA
      000000ACH   SFRSYM    DATA     BYTE      SFRPI
      000000E1H   SFRSYM    DATA     BYTE      WDTCR
      000000C8H   SFRSYM    DATA     BYTE      P6
      000000A0H.4 SFRSYM    DATA     BIT       mV_SCL
      000000A0H   SFRSYM    DATA     BIT       KBI0
      00000090H.5 SFRSYM    DATA     BIT       SPI_MOSI
      00000090H.6 SFRSYM    DATA     BIT       SPI_MISO
      00000080H.5 SFRSYM    DATA     BIT       mA_OUT
LX51 LINKER/LOCATER V4.47a                                                            02/02/2015  10:52:25  PAGE 86


      000000A0H.1 SFRSYM    DATA     BIT       KBI1
      00000085H   SFRSYM    DATA     BYTE      SPCTL
      000000A0H.2 SFRSYM    DATA     BIT       KBI2
      00000090H   SFRSYM    DATA     BIT       AIN0
      000000D8H.7 SFRSYM    DATA     BIT       CF
      000000AEH   SFRSYM    DATA     BYTE      AUXIP
      000000A0H.3 SFRSYM    DATA     BIT       KBI3
      00000090H.1 SFRSYM    DATA     BIT       AIN1
      000000A0H.4 SFRSYM    DATA     BIT       KBI4
      00000090H.2 SFRSYM    DATA     BIT       AIN2
      00000098H.7 SFRSYM    DATA     BIT       FE
      000000F9H   SFRSYM    DATA     BYTE      CH
      000000A0H.5 SFRSYM    DATA     BIT       KBI5
      00000090H.3 SFRSYM    DATA     BIT       AIN3
      000000A0H.6 SFRSYM    DATA     BIT       KBI6
      00000090H.4 SFRSYM    DATA     BIT       AIN4
      000000A0H.3 SFRSYM    DATA     BIT       EEPROM_SCL
      00000080H.1 SFRSYM    DATA     BIT       RTD_C
      000000A0H.7 SFRSYM    DATA     BIT       KBI7
      00000090H.5 SFRSYM    DATA     BIT       AIN5
      000000A8H   SFRSYM    DATA     BYTE      IE
      00000090H.6 SFRSYM    DATA     BIT       AIN6
      000000E9H   SFRSYM    DATA     BYTE      CL
      00000090H.7 SFRSYM    DATA     BIT       AIN7
      00000090H.2 SFRSYM    DATA     BIT       CEX0
      000000FAH   SFRSYM    DATA     BYTE      CCAP0H
      000000C6H   SFRSYM    DATA     BYTE      ADCH
      00000090H.3 SFRSYM    DATA     BIT       CEX1
      000000FBH   SFRSYM    DATA     BYTE      CCAP1H
      000000B7H   SFRSYM    DATA     BYTE      IP0H
      000000A0H.2 SFRSYM    DATA     BIT       ALL_SDA
      00000090H.4 SFRSYM    DATA     BIT       CEX2
      000000FCH   SFRSYM    DATA     BYTE      CCAP2H
      000000B0H.3 SFRSYM    DATA     BIT       OFFSET_KEY
      00000090H.5 SFRSYM    DATA     BIT       CEX3
      000000FDH   SFRSYM    DATA     BYTE      CCAP3H
      00000090H.6 SFRSYM    DATA     BIT       CEX4
      000000D8H.6 SFRSYM    DATA     BIT       CR
      000000FEH   SFRSYM    DATA     BYTE      CCAP4H
      000000EAH   SFRSYM    DATA     BYTE      CCAP0L
      000000BEH   SFRSYM    DATA     BYTE      ADCL
      000000B0H.7 SFRSYM    DATA     BIT       RD
      00000090H.7 SFRSYM    DATA     BIT       CEX5
      000000C8H.6 SFRSYM    DATA     BIT       EXF2
      00000098H.4 SFRSYM    DATA     BIT       REN0
      000000FFH   SFRSYM    DATA     BYTE      CCAP5H
      000000EBH   SFRSYM    DATA     BYTE      CCAP1L
      000000DAH   SFRSYM    DATA     BYTE      CCAPM0
      000000B8H   SFRSYM    DATA     BYTE      IP0L
      00000098H.4 SFRSYM    DATA     BIT       REN1
      000000ECH   SFRSYM    DATA     BYTE      CCAP2L
      000000DBH   SFRSYM    DATA     BYTE      CCAPM1
      000000C0H.3 SFRSYM    DATA     BIT       IT2H
      000000A8H.4 SFRSYM    DATA     BIT       ES
      00000097H   SFRSYM    DATA     BYTE      TSTWD
      000000EDH   SFRSYM    DATA     BYTE      CCAP3L
      000000DCH   SFRSYM    DATA     BYTE      CCAPM2
      000000C0H.7 SFRSYM    DATA     BIT       IT3H
      000000EEH   SFRSYM    DATA     BYTE      CCAP4L
      000000DDH   SFRSYM    DATA     BYTE      CCAPM3
      000000B8H   SFRSYM    DATA     BYTE      IP
      000000EFH   SFRSYM    DATA     BYTE      CCAP5L
      000000DEH   SFRSYM    DATA     BYTE      CCAPM4
      00000098H   SFRSYM    DATA     BIT       RI
      000000DFH   SFRSYM    DATA     BYTE      CCAPM5
LX51 LINKER/LOCATER V4.47a                                                            02/02/2015  10:52:25  PAGE 87


      000000B0H.2 SFRSYM    DATA     BIT       INT0
      000000D0H.7 SFRSYM    DATA     BIT       CY
      000000B0H.4 SFRSYM    DATA     BIT       BEEP
      00000080H.4 SFRSYM    DATA     BIT       mV_OUT
      000000B0H.3 SFRSYM    DATA     BIT       INT1
      00000098H.1 SFRSYM    DATA     BIT       TI
      000000A0H.3 SFRSYM    DATA     BIT       EEP_SCL
      000000E8H.3 SFRSYM    DATA     BIT       INT2
      000000E8H.2 SFRSYM    DATA     BIT       INT3
      000000C6H   SFRSYM    DATA     BYTE      ADCV
      0000008FH   SFRSYM    DATA     BYTE      STRETCH
      000000B8H.1 SFRSYM    DATA     BIT       PT0L
      000000B8H.3 SFRSYM    DATA     BIT       PT1L
      000000CBH   SFRSYM    DATA     BYTE      RCAP2H
      000000A0H.2 SFRSYM    DATA     BIT       RTC_SDA
      000000B8H.4 SFRSYM    DATA     BIT       PS
      000000B8H.5 SFRSYM    DATA     BIT       PT2L
      00000081H   SFRSYM    DATA     BYTE      SP
      00000090H.1 SFRSYM    DATA     BIT       T2EX
      000000D9H   SFRSYM    DATA     BYTE      CMOD
      000000D8H   SFRSYM    DATA     BYTE      CCON
      0000009AH   SFRSYM    DATA     BYTE      SCFG
      000000B8H   SFRSYM    DATA     BIT       PX0L
      000000D0H.2 SFRSYM    DATA     BIT       OV
      000000B8H.2 SFRSYM    DATA     BIT       PX1L
      000000CAH   SFRSYM    DATA     BYTE      RCAP2L
      000000B8H.6 SFRSYM    DATA     BIT       PX2L
      00000090H.7 SFRSYM    DATA     BIT       SPI_CLK
      000000B8H.7 SFRSYM    DATA     BIT       PX3L
      000000E6H   SFRSYM    DATA     BYTE      SCMD
      000000B0H.6 SFRSYM    DATA     BIT       WR
      000000C8H.1 SFRSYM    DATA     BIT       C_T2
      00000084H   SFRSYM    DATA     BYTE      SPISTAT
      00000090H.6 SFRSYM    DATA     BIT       RTC_SCL
      000000C8H.5 SFRSYM    DATA     BIT       RCLK
      000000C8H.4 SFRSYM    DATA     BIT       TCLK
      00000080H   SFRSYM    DATA     BIT       P00
      000000E3H   SFRSYM    DATA     BYTE      IFADRH
      00000090H   SFRSYM    DATA     BIT       P10
      00000080H.1 SFRSYM    DATA     BIT       P01
      000000E5H   SFRSYM    DATA     BYTE      IFMT
      00000087H   SFRSYM    DATA     BYTE      PCON
      00000099H   SFRSYM    DATA     BYTE      SBUF
      000000A0H   SFRSYM    DATA     BIT       P20
      00000090H.1 SFRSYM    DATA     BIT       P11
      00000080H.2 SFRSYM    DATA     BIT       P02
      000000B0H   SFRSYM    DATA     BIT       P30
      000000A0H.1 SFRSYM    DATA     BIT       P21
      00000090H.2 SFRSYM    DATA     BIT       P12
      00000080H.3 SFRSYM    DATA     BIT       P03
      000000B0H.2 SFRSYM    DATA     BIT       FUNCTION_KEY
      000000E8H   SFRSYM    DATA     BIT       P40
      000000B0H.1 SFRSYM    DATA     BIT       P31
      000000A0H.2 SFRSYM    DATA     BIT       P22
      00000090H.3 SFRSYM    DATA     BIT       P13
      00000080H.4 SFRSYM    DATA     BIT       P04
      000000E4H   SFRSYM    DATA     BYTE      IFADRL
      00000098H   SFRSYM    DATA     BYTE      SCON
      000000F8H   SFRSYM    DATA     BIT       P50
      000000E8H.1 SFRSYM    DATA     BIT       P41
      000000B0H.2 SFRSYM    DATA     BIT       P32
      000000A0H.3 SFRSYM    DATA     BIT       P23
      00000090H.4 SFRSYM    DATA     BIT       P14
      00000080H.5 SFRSYM    DATA     BIT       P05
      00000089H   SFRSYM    DATA     BYTE      TMOD
LX51 LINKER/LOCATER V4.47a                                                            02/02/2015  10:52:25  PAGE 88


      00000088H   SFRSYM    DATA     BYTE      TCON
      000000C8H   SFRSYM    DATA     BIT       P60
      000000F8H.1 SFRSYM    DATA     BIT       P51
      000000E8H.2 SFRSYM    DATA     BIT       P42
      000000B0H.3 SFRSYM    DATA     BIT       P33
      000000A0H.4 SFRSYM    DATA     BIT       P24
      00000090H.5 SFRSYM    DATA     BIT       P15
      00000080H.6 SFRSYM    DATA     BIT       P06
      000000A0H.5 SFRSYM    DATA     BIT       TEMP
      000000C8H.1 SFRSYM    DATA     BIT       P61
      000000F8H.2 SFRSYM    DATA     BIT       P52
      000000E8H.3 SFRSYM    DATA     BIT       P43
      000000B0H.4 SFRSYM    DATA     BIT       P34
      000000A0H.5 SFRSYM    DATA     BIT       P25
      00000090H.6 SFRSYM    DATA     BIT       P16
      00000080H.7 SFRSYM    DATA     BIT       P07
      000000F8H.3 SFRSYM    DATA     BIT       P53
      000000E8H.4 SFRSYM    DATA     BIT       P44
      000000B0H.5 SFRSYM    DATA     BIT       P35
      000000A0H.6 SFRSYM    DATA     BIT       P26
      00000090H.7 SFRSYM    DATA     BIT       P17
      000000A0H   SFRSYM    DATA     BIT       Value_SDA
      000000E8H.5 SFRSYM    DATA     BIT       P45
      000000B0H.6 SFRSYM    DATA     BIT       P36
      000000A0H.7 SFRSYM    DATA     BIT       P27
      00000080H   SFRSYM    DATA     BIT       TC_C
      000000E8H.6 SFRSYM    DATA     BIT       P46
      000000B0H.7 SFRSYM    DATA     BIT       P37
      000000E8H.7 SFRSYM    DATA     BIT       P47
      000000D7H   SFRSYM    DATA     BYTE      KBMASK
      000000A0H.4 SFRSYM    DATA     BIT       OUT_SCL
      000000A0H   SFRSYM    DATA     BIT       AD_SDA
      00000088H.1 SFRSYM    DATA     BIT       IE0
      00000088H.3 SFRSYM    DATA     BIT       IE1
      00000090H   SFRSYM    DATA     BIT       LED1_SDA
      000000C0H.1 SFRSYM    DATA     BIT       IE2
      00000090H.3 SFRSYM    DATA     BIT       LED2_SDA
      000000C0H.5 SFRSYM    DATA     BIT       IE3
      000000A8H.6 SFRSYM    DATA     BIT       GF4
      0000008EH   SFRSYM    DATA     BYTE      AUXR
      000000F0H   SFRSYM    DATA     BYTE      B
      000000D5H   SFRSYM    DATA     BYTE      KBPATN
      000000A0H.1 SFRSYM    DATA     BIT       Value_SCL
      000000C8H   SFRSYM    DATA     BIT       CP_RL2
      000000A0H.6 SFRSYM    DATA     BIT       NONE_4
      000000A0H.7 SFRSYM    DATA     BIT       NONE_5
      000000B0H.6 SFRSYM    DATA     BIT       NONE_6
      00000086H   SFRSYM    DATA     BYTE      SPIDAT
      000000E0H   SFRSYM    DATA     BYTE      ACC
      000000B0H.7 SFRSYM    DATA     BIT       NONE_7
      000000A0H.1 SFRSYM    DATA     BIT       AD_SCL
      000000A8H.4 SFRSYM    DATA     BIT       ES0
      000000A8H.1 SFRSYM    DATA     BIT       ET0
      00000090H.2 SFRSYM    DATA     BIT       LED1_SCL
      00000088H.5 SFRSYM    DATA     BIT       TF0
      000000A8H.3 SFRSYM    DATA     BIT       ET1
      00000090H.4 SFRSYM    DATA     BIT       LED2_SCL
      00000088H.7 SFRSYM    DATA     BIT       TF1
      00000098H   SFRSYM    DATA     BIT       RI0
      000000A8H.5 SFRSYM    DATA     BIT       ET2
      000000C8H.7 SFRSYM    DATA     BIT       TF2
      00000098H   SFRSYM    DATA     BIT       RI1
      00000098H.2 SFRSYM    DATA     BIT       RB8
      0000008CH   SFRSYM    DATA     BYTE      TH0
      00000088H   SFRSYM    DATA     BIT       IT0
LX51 LINKER/LOCATER V4.47a                                                            02/02/2015  10:52:25  PAGE 89


      00000098H.1 SFRSYM    DATA     BIT       TI0
      000000A8H   SFRSYM    DATA     BIT       EX0
      0000008DH   SFRSYM    DATA     BYTE      TH1
      00000088H.2 SFRSYM    DATA     BIT       IT1
      00000098H.1 SFRSYM    DATA     BIT       TI1
      00000098H.3 SFRSYM    DATA     BIT       TB8
      000000A8H.2 SFRSYM    DATA     BIT       EX1
      00000085H   SFRSYM    DATA     BYTE      SPICON
      000000CDH   SFRSYM    DATA     BYTE      TH2
      000000C0H   SFRSYM    DATA     BIT       IT2
      000000C0H.2 SFRSYM    DATA     BIT       EX2
      000000D0H   SFRSYM    DATA     BIT       P
      000000C0H.4 SFRSYM    DATA     BIT       IT3
      000000C0H.6 SFRSYM    DATA     BIT       EX3
      00000098H.7 SFRSYM    DATA     BIT       SM0
      0000008AH   SFRSYM    DATA     BYTE      TL0
      00000080H.3 SFRSYM    DATA     BIT       mA_C
      000000C8H   SFRSYM    DATA     BIT       XOUT
      00000090H.1 SFRSYM    DATA     BIT       ECI
      00000098H.6 SFRSYM    DATA     BIT       SM1
      00000085H   SFRSYM    DATA     BYTE      SPICTL
      0000008BH   SFRSYM    DATA     BYTE      TL1
      000000AFH   SFRSYM    DATA     BYTE      AUXIPH
      000000E8H.6 SFRSYM    DATA     BIT       ALE
      00000098H.5 SFRSYM    DATA     BIT       SM2
      000000CCH   SFRSYM    DATA     BYTE      TL2
      000000E2H   SFRSYM    DATA     BYTE      IFD
      000000B8H.1 SFRSYM    DATA     BIT       PT0
      000000B0H.5 SFRSYM    DATA     BIT       R485_DE_RE
      000000B8H.3 SFRSYM    DATA     BIT       PT1
      000000D0H.3 SFRSYM    DATA     BIT       RS0
      00000088H.4 SFRSYM    DATA     BIT       TR0
      000000B8H.5 SFRSYM    DATA     BIT       PT2
      000000D0H.4 SFRSYM    DATA     BIT       RS1
      00000088H.6 SFRSYM    DATA     BIT       TR1
      000000C8H.2 SFRSYM    DATA     BIT       TR2
      000000B8H   SFRSYM    DATA     BIT       PX0
      000000AFH   SFRSYM    DATA     BYTE      EIP1H
      000000B8H.2 SFRSYM    DATA     BIT       PX1
      000000C0H.3 SFRSYM    DATA     BIT       PX2
      000000C0H.7 SFRSYM    DATA     BIT       PX3
      000000AEH   SFRSYM    DATA     BYTE      EIP1L
      00000083H   SFRSYM    DATA     BYTE      DPH
      000000C8H   SFRSYM    DATA     BIT       CKO
      00000082H   SFRSYM    DATA     BYTE      DPL
      00000087H   SFRSYM    DATA     BYTE      PCON0
      00000084H   SFRSYM    DATA     BYTE      SPSTAT
      00000099H   SFRSYM    DATA     BYTE      SBUF0
      000000B7H   SFRSYM    DATA     BYTE      IPH
      000000B0H.4 SFRSYM    DATA     BIT       T0CKO
      00000097H   SFRSYM    DATA     BYTE      PCON1
      00000099H   SFRSYM    DATA     BYTE      SBUF1
      000000B0H.5 SFRSYM    DATA     BIT       T1CKO
      000000C8H.3 SFRSYM    DATA     BIT       EXEN2
      000000C7H   SFRSYM    DATA     BYTE      PCON2
      0000009AH   SFRSYM    DATA     BYTE      S2BUF
      00000098H   SFRSYM    DATA     BYTE      SCON0
      00000098H.4 SFRSYM    DATA     BIT       REN
      00000098H   SFRSYM    DATA     BYTE      SCON1
      00000080H.2 SFRSYM    DATA     BIT       mV_C
      000000C5H   SFRSYM    DATA     BYTE      ADCON
      000000A0H.2 SFRSYM    DATA     BIT       mA_SDA
      000000C9H   SFRSYM    DATA     BYTE      T2MOD
      000000C8H   SFRSYM    DATA     BYTE      T2CON
      000000C5H   SFRSYM    DATA     BYTE      ADCTL
LX51 LINKER/LOCATER V4.47a                                                            02/02/2015  10:52:25  PAGE 90


      000000BEH   SFRSYM    DATA     BYTE      ADCVL
      000000B9H   SFRSYM    DATA     BYTE      SADEN
      0000009AH   SFRSYM    DATA     BYTE      S1BRT
      000000B0H   SFRSYM    DATA     BIT       RXD
      000000D6H   SFRSYM    DATA     BYTE      KBCON
      00000080H.6 SFRSYM    DATA     BIT       UP_KEY
      000000C8H.1 SFRSYM    DATA     BIT       XIN
      000000B8H.4 SFRSYM    DATA     BIT       PSL
      000000A9H   SFRSYM    DATA     BYTE      SADDR
      000000B0H.1 SFRSYM    DATA     BIT       TXD
      000000A0H.4 SFRSYM    DATA     BIT       mA_SCL
      0000008EH   SFRSYM    DATA     BYTE      AUXR0
      000000A2H   SFRSYM    DATA     BYTE      AUXR1
      00000090H.4 SFRSYM    DATA     BIT       SPI_SS
      000000A6H   SFRSYM    DATA     BYTE      AUXR2
      00000090H.2 SFRSYM    DATA     BIT       S2RXD
      000000D0H.5 SFRSYM    DATA     BIT       F0
      000000B0H.4 SFRSYM    DATA     BIT       BEEP_OUT
      00000090H.3 SFRSYM    DATA     BIT       S2TXD
      000000D0H.1 SFRSYM    DATA     BIT       F1
      00000090H.1 SFRSYM    DATA     BIT       LED1_LE
      00000090H.5 SFRSYM    DATA     BIT       LED2_LE
      000000F2H   SFRSYM    DATA     BYTE      PCAPWM0
      000000D0H   SFRSYM    DATA     BYTE      PSW
      000000F3H   SFRSYM    DATA     BYTE      PCAPWM1
      000000A0H.2 SFRSYM    DATA     BIT       mV_SDA
      000000D8H   SFRSYM    DATA     BIT       CCF0
      00000098H.2 SFRSYM    DATA     BIT       RB80
      000000F4H   SFRSYM    DATA     BYTE      PCAPWM2
      000000D8H.1 SFRSYM    DATA     BIT       CCF1
      00000098H.2 SFRSYM    DATA     BIT       RB81
      000000F5H   SFRSYM    DATA     BYTE      PCAPWM3
      00000086H   SFRSYM    DATA     BYTE      SPDAT
      00000093H   SFRSYM    DATA     BYTE      P0M0
      000000ADH   SFRSYM    DATA     BYTE      AUXIE

      010061E7H   BLOCK     CODE     ---       LVL=0
      010061E7H   BLOCK     CODE     NEAR LAB  LVL=1
      00000007H   SYMBOL    DATA     BYTE      k
      ---         BLOCKEND  ---      ---       LVL=1
      010061E7H   LINE      CODE     ---       #28
      010061E7H   LINE      CODE     ---       #29
      010061E7H   LINE      CODE     ---       #32
      010061EDH   LINE      CODE     ---       #33
      ---         BLOCKEND  ---      ---       LVL=0
      00000006H   SYMBOL    DATA     WORD      i

      010060F9H   BLOCK     CODE     ---       LVL=0
      010060F9H   LINE      CODE     ---       #50
      010060F9H   LINE      CODE     ---       #51
      010060F9H   LINE      CODE     ---       #52
      010060FBH   LINE      CODE     ---       #53
      010060FEH   LINE      CODE     ---       #54
      01006100H   LINE      CODE     ---       #55
      01006103H   LINE      CODE     ---       #56
      01006105H   LINE      CODE     ---       #57
      01006108H   LINE      CODE     ---       #58
      0100610AH   LINE      CODE     ---       #59
      ---         BLOCKEND  ---      ---       LVL=0

      010061B7H   BLOCK     CODE     ---       LVL=0
      010061B7H   LINE      CODE     ---       #61
      010061B7H   LINE      CODE     ---       #62
      010061B7H   LINE      CODE     ---       #63
      010061B9H   LINE      CODE     ---       #64
LX51 LINKER/LOCATER V4.47a                                                            02/02/2015  10:52:25  PAGE 91


      010061BCH   LINE      CODE     ---       #65
      010061BEH   LINE      CODE     ---       #66
      ---         BLOCKEND  ---      ---       LVL=0

      01005DB3H   BLOCK     CODE     ---       LVL=0
      00000006H   SYMBOL    DATA     BYTE      bt
      01005DB5H   BLOCK     CODE     NEAR LAB  LVL=1
      00000010H   SYMBOL    IDATA    BYTE      i
      ---         BLOCKEND  ---      ---       LVL=1
      01005DB3H   LINE      CODE     ---       #69
      01005DB5H   LINE      CODE     ---       #70
      01005DB5H   LINE      CODE     ---       #73
      01005DB8H   LINE      CODE     ---       #75
      01005DBCH   LINE      CODE     ---       #76
      01005DBCH   LINE      CODE     ---       #77
      01005DC0H   LINE      CODE     ---       #78
      01005DC4H   LINE      CODE     ---       #80
      01005DC6H   LINE      CODE     ---       #81
      01005DC8H   LINE      CODE     ---       #82
      01005DCBH   LINE      CODE     ---       #83
      01005DCDH   LINE      CODE     ---       #84
      01005DD0H   LINE      CODE     ---       #85
      01005DD4H   LINE      CODE     ---       #86
      01005DDDH   LINE      CODE     ---       #88
      01005DDFH   LINE      CODE     ---       #89
      01005DE1H   LINE      CODE     ---       #90
      01005DE4H   LINE      CODE     ---       #91
      01005DE7H   LINE      CODE     ---       #92
      01005DEAH   LINE      CODE     ---       #93
      01005DECH   LINE      CODE     ---       #94
      ---         BLOCKEND  ---      ---       LVL=0

      01005E61H   BLOCK     CODE     ---       LVL=0
      00000002H   SYMBOL    DATA     WORD      mA_Value
      01005E65H   BLOCK     CODE     NEAR LAB  LVL=1
      00000004H   SYMBOL    DATA     BYTE      HI_CODE
      00000005H   SYMBOL    DATA     BYTE      LO_CODE
      ---         BLOCKEND  ---      ---       LVL=1
      01005E61H   LINE      CODE     ---       #97
      01005E65H   LINE      CODE     ---       #98
      01005E65H   LINE      CODE     ---       #101
      01005E69H   LINE      CODE     ---       #102
      01005E73H   LINE      CODE     ---       #104
      01005E77H   LINE      CODE     ---       #105
      01005E7BH   LINE      CODE     ---       #106
      01005E7EH   LINE      CODE     ---       #107
      01005E81H   LINE      CODE     ---       #108
      01005E86H   LINE      CODE     ---       #109
      01005E8BH   LINE      CODE     ---       #110
      01005E90H   LINE      CODE     ---       #111
      ---         BLOCKEND  ---      ---       LVL=0
      00000006H   SYMBOL    DATA     WORD      n

      ---         MODULE    ---      ---       TYPE_SLOPE
      0000000AH   PUBLIC    DATA     BYTE      ng_flog
      00000009H   PUBLIC    DATA     BYTE      NP_COD
      0200004AH   PUBLIC    XDATA    ---       RTD_Slope
      00000008H   PUBLIC    DATA     BYTE      AV_COD
      02000040H   PUBLIC    XDATA    ---       T_Slope
      02000030H   PUBLIC    XDATA    ---       S_Slope
      02000020H   PUBLIC    XDATA    ---       R_Slope
      02000015H   PUBLIC    XDATA    ---       K_Slope
      0200000CH   PUBLIC    XDATA    ---       J_Slope
      02000000H   PUBLIC    XDATA    ---       E_Slope
      0100396BH   PUBLIC    CODE     ---       _Get_RTD_Slope
LX51 LINKER/LOCATER V4.47a                                                            02/02/2015  10:52:25  PAGE 92


      010042A3H   PUBLIC    CODE     ---       _Get_S_Slope
      010045F2H   PUBLIC    CODE     ---       _Get_R_Slope
      01000FFDH   PUBLIC    CODE     ---       _Get_E_Slope
      01002ECCH   PUBLIC    CODE     ---       _Get_T_Slope
      01003E08H   PUBLIC    CODE     ---       _Get_J_Slope
      0100185FH   PUBLIC    CODE     ---       _Get_K_Slope
      000000D8H.2 SFRSYM    DATA     BIT       CCF2
      00000098H.3 SFRSYM    DATA     BIT       TB80
      000000F6H   SFRSYM    DATA     BYTE      PCAPWM4
      00000091H   SFRSYM    DATA     BYTE      P1M0
      00000094H   SFRSYM    DATA     BYTE      P0M1
      000000D8H.3 SFRSYM    DATA     BIT       CCF3
      00000098H.3 SFRSYM    DATA     BIT       TB81
      000000F7H   SFRSYM    DATA     BYTE      PCAPWM5
      00000095H   SFRSYM    DATA     BYTE      P2M0
      00000092H   SFRSYM    DATA     BYTE      P1M1
      00000080H   SFRSYM    DATA     BYTE      P0
      000000D8H.4 SFRSYM    DATA     BIT       CCF4
      00000098H.7 SFRSYM    DATA     BIT       SM00
      000000B1H   SFRSYM    DATA     BYTE      P3M0
      00000096H   SFRSYM    DATA     BYTE      P2M1
      00000090H   SFRSYM    DATA     BYTE      P1
      000000D8H.5 SFRSYM    DATA     BIT       CCF5
      00000098H.7 SFRSYM    DATA     BIT       SM01
      00000098H.6 SFRSYM    DATA     BIT       SM10
      000000B3H   SFRSYM    DATA     BYTE      P4M0
      000000B2H   SFRSYM    DATA     BYTE      P3M1
      000000A0H   SFRSYM    DATA     BYTE      P2
      00000098H.6 SFRSYM    DATA     BIT       SM11
      00000098H.5 SFRSYM    DATA     BIT       SM20
      000000E7H   SFRSYM    DATA     BYTE      ISPCR
      000000B5H   SFRSYM    DATA     BYTE      P5M0
      000000B4H   SFRSYM    DATA     BYTE      P4M1
      000000B0H   SFRSYM    DATA     BYTE      P3
      000000C0H   SFRSYM    DATA     BYTE      XICON
      000000B0H.4 SFRSYM    DATA     BIT       T0
      00000098H.5 SFRSYM    DATA     BIT       SM21
      000000D0H.6 SFRSYM    DATA     BIT       AC
      00000097H   SFRSYM    DATA     BYTE      EVRCR
      000000B6H   SFRSYM    DATA     BYTE      P5M1
      000000E8H   SFRSYM    DATA     BYTE      P4
      000000B0H.5 SFRSYM    DATA     BIT       T1
      00000085H   SFRSYM    DATA     BYTE      SPCON
      000000F8H   SFRSYM    DATA     BYTE      P5
      000000ADH   SFRSYM    DATA     BYTE      EIE1
      00000090H   SFRSYM    DATA     BIT       T2
      000000A8H.7 SFRSYM    DATA     BIT       EA
      000000ACH   SFRSYM    DATA     BYTE      SFRPI
      000000E1H   SFRSYM    DATA     BYTE      WDTCR
      000000C8H   SFRSYM    DATA     BYTE      P6
      000000A0H   SFRSYM    DATA     BIT       KBI0
      00000090H.5 SFRSYM    DATA     BIT       SPI_MOSI
      00000090H.6 SFRSYM    DATA     BIT       SPI_MISO
      000000A0H.1 SFRSYM    DATA     BIT       KBI1
      00000085H   SFRSYM    DATA     BYTE      SPCTL
      000000A0H.2 SFRSYM    DATA     BIT       KBI2
      00000090H   SFRSYM    DATA     BIT       AIN0
      000000D8H.7 SFRSYM    DATA     BIT       CF
      000000AEH   SFRSYM    DATA     BYTE      AUXIP
      000000A0H.3 SFRSYM    DATA     BIT       KBI3
      00000090H.1 SFRSYM    DATA     BIT       AIN1
      000000A0H.4 SFRSYM    DATA     BIT       KBI4
      00000090H.2 SFRSYM    DATA     BIT       AIN2
      00000098H.7 SFRSYM    DATA     BIT       FE
      000000F9H   SFRSYM    DATA     BYTE      CH
LX51 LINKER/LOCATER V4.47a                                                            02/02/2015  10:52:25  PAGE 93


      000000A0H.5 SFRSYM    DATA     BIT       KBI5
      00000090H.3 SFRSYM    DATA     BIT       AIN3
      000000A0H.6 SFRSYM    DATA     BIT       KBI6
      00000090H.4 SFRSYM    DATA     BIT       AIN4
      000000A0H.7 SFRSYM    DATA     BIT       KBI7
      00000090H.5 SFRSYM    DATA     BIT       AIN5
      000000A8H   SFRSYM    DATA     BYTE      IE
      00000090H.6 SFRSYM    DATA     BIT       AIN6
      000000E9H   SFRSYM    DATA     BYTE      CL
      00000090H.7 SFRSYM    DATA     BIT       AIN7
      00000090H.2 SFRSYM    DATA     BIT       CEX0
      000000FAH   SFRSYM    DATA     BYTE      CCAP0H
      000000C6H   SFRSYM    DATA     BYTE      ADCH
      00000090H.3 SFRSYM    DATA     BIT       CEX1
      000000FBH   SFRSYM    DATA     BYTE      CCAP1H
      000000B7H   SFRSYM    DATA     BYTE      IP0H
      00000090H.4 SFRSYM    DATA     BIT       CEX2
      000000FCH   SFRSYM    DATA     BYTE      CCAP2H
      00000090H.5 SFRSYM    DATA     BIT       CEX3
      000000FDH   SFRSYM    DATA     BYTE      CCAP3H
      00000090H.6 SFRSYM    DATA     BIT       CEX4
      000000D8H.6 SFRSYM    DATA     BIT       CR
      000000FEH   SFRSYM    DATA     BYTE      CCAP4H
      000000EAH   SFRSYM    DATA     BYTE      CCAP0L
      000000BEH   SFRSYM    DATA     BYTE      ADCL
      000000B0H.7 SFRSYM    DATA     BIT       RD
      00000090H.7 SFRSYM    DATA     BIT       CEX5
      000000C8H.6 SFRSYM    DATA     BIT       EXF2
      00000098H.4 SFRSYM    DATA     BIT       REN0
      000000FFH   SFRSYM    DATA     BYTE      CCAP5H
      000000EBH   SFRSYM    DATA     BYTE      CCAP1L
      000000DAH   SFRSYM    DATA     BYTE      CCAPM0
      000000B8H   SFRSYM    DATA     BYTE      IP0L
      00000098H.4 SFRSYM    DATA     BIT       REN1
      000000ECH   SFRSYM    DATA     BYTE      CCAP2L
      000000DBH   SFRSYM    DATA     BYTE      CCAPM1
      000000C0H.3 SFRSYM    DATA     BIT       IT2H
      000000A8H.4 SFRSYM    DATA     BIT       ES
      00000097H   SFRSYM    DATA     BYTE      TSTWD
      000000EDH   SFRSYM    DATA     BYTE      CCAP3L
      000000DCH   SFRSYM    DATA     BYTE      CCAPM2
      000000C0H.7 SFRSYM    DATA     BIT       IT3H
      000000EEH   SFRSYM    DATA     BYTE      CCAP4L
      000000DDH   SFRSYM    DATA     BYTE      CCAPM3
      000000B8H   SFRSYM    DATA     BYTE      IP
      000000EFH   SFRSYM    DATA     BYTE      CCAP5L
      000000DEH   SFRSYM    DATA     BYTE      CCAPM4
      00000098H   SFRSYM    DATA     BIT       RI
      000000DFH   SFRSYM    DATA     BYTE      CCAPM5
      000000B0H.2 SFRSYM    DATA     BIT       INT0
      000000D0H.7 SFRSYM    DATA     BIT       CY
      000000B0H.3 SFRSYM    DATA     BIT       INT1
      00000098H.1 SFRSYM    DATA     BIT       TI
      000000E8H.3 SFRSYM    DATA     BIT       INT2
      000000E8H.2 SFRSYM    DATA     BIT       INT3
      000000C6H   SFRSYM    DATA     BYTE      ADCV
      0000008FH   SFRSYM    DATA     BYTE      STRETCH
      000000B8H.1 SFRSYM    DATA     BIT       PT0L
      000000B8H.3 SFRSYM    DATA     BIT       PT1L
      000000CBH   SFRSYM    DATA     BYTE      RCAP2H
      000000B8H.4 SFRSYM    DATA     BIT       PS
      000000B8H.5 SFRSYM    DATA     BIT       PT2L
      00000081H   SFRSYM    DATA     BYTE      SP
      00000090H.1 SFRSYM    DATA     BIT       T2EX
      000000D9H   SFRSYM    DATA     BYTE      CMOD
LX51 LINKER/LOCATER V4.47a                                                            02/02/2015  10:52:25  PAGE 94


      000000D8H   SFRSYM    DATA     BYTE      CCON
      0000009AH   SFRSYM    DATA     BYTE      SCFG
      000000B8H   SFRSYM    DATA     BIT       PX0L
      000000D0H.2 SFRSYM    DATA     BIT       OV
      000000B8H.2 SFRSYM    DATA     BIT       PX1L
      000000CAH   SFRSYM    DATA     BYTE      RCAP2L
      000000B8H.6 SFRSYM    DATA     BIT       PX2L
      00000090H.7 SFRSYM    DATA     BIT       SPI_CLK
      000000B8H.7 SFRSYM    DATA     BIT       PX3L
      000000E6H   SFRSYM    DATA     BYTE      SCMD
      000000B0H.6 SFRSYM    DATA     BIT       WR
      000000C8H.1 SFRSYM    DATA     BIT       C_T2
      00000084H   SFRSYM    DATA     BYTE      SPISTAT
      000000C8H.5 SFRSYM    DATA     BIT       RCLK
      000000C8H.4 SFRSYM    DATA     BIT       TCLK
      00000080H   SFRSYM    DATA     BIT       P00
      000000E3H   SFRSYM    DATA     BYTE      IFADRH
      00000090H   SFRSYM    DATA     BIT       P10
      00000080H.1 SFRSYM    DATA     BIT       P01
      000000E5H   SFRSYM    DATA     BYTE      IFMT
      00000087H   SFRSYM    DATA     BYTE      PCON
      00000099H   SFRSYM    DATA     BYTE      SBUF
      000000A0H   SFRSYM    DATA     BIT       P20
      00000090H.1 SFRSYM    DATA     BIT       P11
      00000080H.2 SFRSYM    DATA     BIT       P02
      000000B0H   SFRSYM    DATA     BIT       P30
      000000A0H.1 SFRSYM    DATA     BIT       P21
      00000090H.2 SFRSYM    DATA     BIT       P12
      00000080H.3 SFRSYM    DATA     BIT       P03
      000000E8H   SFRSYM    DATA     BIT       P40
      000000B0H.1 SFRSYM    DATA     BIT       P31
      000000A0H.2 SFRSYM    DATA     BIT       P22
      00000090H.3 SFRSYM    DATA     BIT       P13
      00000080H.4 SFRSYM    DATA     BIT       P04
      000000E4H   SFRSYM    DATA     BYTE      IFADRL
      00000098H   SFRSYM    DATA     BYTE      SCON
      000000F8H   SFRSYM    DATA     BIT       P50
      000000E8H.1 SFRSYM    DATA     BIT       P41
      000000B0H.2 SFRSYM    DATA     BIT       P32
      000000A0H.3 SFRSYM    DATA     BIT       P23
      00000090H.4 SFRSYM    DATA     BIT       P14
      00000080H.5 SFRSYM    DATA     BIT       P05
      00000089H   SFRSYM    DATA     BYTE      TMOD
      00000088H   SFRSYM    DATA     BYTE      TCON
      000000C8H   SFRSYM    DATA     BIT       P60
      000000F8H.1 SFRSYM    DATA     BIT       P51
      000000E8H.2 SFRSYM    DATA     BIT       P42
      000000B0H.3 SFRSYM    DATA     BIT       P33
      000000A0H.4 SFRSYM    DATA     BIT       P24
      00000090H.5 SFRSYM    DATA     BIT       P15
      00000080H.6 SFRSYM    DATA     BIT       P06
      000000C8H.1 SFRSYM    DATA     BIT       P61
      000000F8H.2 SFRSYM    DATA     BIT       P52
      000000E8H.3 SFRSYM    DATA     BIT       P43
      000000B0H.4 SFRSYM    DATA     BIT       P34
      000000A0H.5 SFRSYM    DATA     BIT       P25
      00000090H.6 SFRSYM    DATA     BIT       P16
      00000080H.7 SFRSYM    DATA     BIT       P07
      000000F8H.3 SFRSYM    DATA     BIT       P53
      000000E8H.4 SFRSYM    DATA     BIT       P44
      000000B0H.5 SFRSYM    DATA     BIT       P35
      000000A0H.6 SFRSYM    DATA     BIT       P26
      00000090H.7 SFRSYM    DATA     BIT       P17
      000000E8H.5 SFRSYM    DATA     BIT       P45
      000000B0H.6 SFRSYM    DATA     BIT       P36
LX51 LINKER/LOCATER V4.47a                                                            02/02/2015  10:52:25  PAGE 95


      000000A0H.7 SFRSYM    DATA     BIT       P27
      000000E8H.6 SFRSYM    DATA     BIT       P46
      000000B0H.7 SFRSYM    DATA     BIT       P37
      000000E8H.7 SFRSYM    DATA     BIT       P47
      000000D7H   SFRSYM    DATA     BYTE      KBMASK
      00000088H.1 SFRSYM    DATA     BIT       IE0
      00000088H.3 SFRSYM    DATA     BIT       IE1
      000000C0H.1 SFRSYM    DATA     BIT       IE2
      000000C0H.5 SFRSYM    DATA     BIT       IE3
      000000A8H.6 SFRSYM    DATA     BIT       GF4
      0000008EH   SFRSYM    DATA     BYTE      AUXR
      000000F0H   SFRSYM    DATA     BYTE      B
      000000D5H   SFRSYM    DATA     BYTE      KBPATN
      000000C8H   SFRSYM    DATA     BIT       CP_RL2
      00000086H   SFRSYM    DATA     BYTE      SPIDAT
      000000E0H   SFRSYM    DATA     BYTE      ACC
      000000A8H.4 SFRSYM    DATA     BIT       ES0
      000000A8H.1 SFRSYM    DATA     BIT       ET0
      00000088H.5 SFRSYM    DATA     BIT       TF0
      000000A8H.3 SFRSYM    DATA     BIT       ET1
      00000088H.7 SFRSYM    DATA     BIT       TF1
      00000098H   SFRSYM    DATA     BIT       RI0
      000000A8H.5 SFRSYM    DATA     BIT       ET2
      000000C8H.7 SFRSYM    DATA     BIT       TF2
      00000098H   SFRSYM    DATA     BIT       RI1
      00000098H.2 SFRSYM    DATA     BIT       RB8
      0000008CH   SFRSYM    DATA     BYTE      TH0
      00000088H   SFRSYM    DATA     BIT       IT0
      00000098H.1 SFRSYM    DATA     BIT       TI0
      000000A8H   SFRSYM    DATA     BIT       EX0
      0000008DH   SFRSYM    DATA     BYTE      TH1
      00000088H.2 SFRSYM    DATA     BIT       IT1
      00000098H.1 SFRSYM    DATA     BIT       TI1
      00000098H.3 SFRSYM    DATA     BIT       TB8
      000000A8H.2 SFRSYM    DATA     BIT       EX1
      00000085H   SFRSYM    DATA     BYTE      SPICON
      000000CDH   SFRSYM    DATA     BYTE      TH2
      000000C0H   SFRSYM    DATA     BIT       IT2
      000000C0H.2 SFRSYM    DATA     BIT       EX2
      000000D0H   SFRSYM    DATA     BIT       P
      000000C0H.4 SFRSYM    DATA     BIT       IT3
      000000C0H.6 SFRSYM    DATA     BIT       EX3
      00000098H.7 SFRSYM    DATA     BIT       SM0
      0000008AH   SFRSYM    DATA     BYTE      TL0
      000000C8H   SFRSYM    DATA     BIT       XOUT
      00000090H.1 SFRSYM    DATA     BIT       ECI
      00000098H.6 SFRSYM    DATA     BIT       SM1
      00000085H   SFRSYM    DATA     BYTE      SPICTL
      0000008BH   SFRSYM    DATA     BYTE      TL1
      000000AFH   SFRSYM    DATA     BYTE      AUXIPH
      000000E8H.6 SFRSYM    DATA     BIT       ALE
      00000098H.5 SFRSYM    DATA     BIT       SM2
      000000CCH   SFRSYM    DATA     BYTE      TL2
      000000E2H   SFRSYM    DATA     BYTE      IFD
      000000B8H.1 SFRSYM    DATA     BIT       PT0
      000000B8H.3 SFRSYM    DATA     BIT       PT1
      000000D0H.3 SFRSYM    DATA     BIT       RS0
      00000088H.4 SFRSYM    DATA     BIT       TR0
      000000B8H.5 SFRSYM    DATA     BIT       PT2
      000000D0H.4 SFRSYM    DATA     BIT       RS1
      00000088H.6 SFRSYM    DATA     BIT       TR1
      000000C8H.2 SFRSYM    DATA     BIT       TR2
      000000B8H   SFRSYM    DATA     BIT       PX0
      000000AFH   SFRSYM    DATA     BYTE      EIP1H
      000000B8H.2 SFRSYM    DATA     BIT       PX1
LX51 LINKER/LOCATER V4.47a                                                            02/02/2015  10:52:25  PAGE 96


      000000C0H.3 SFRSYM    DATA     BIT       PX2
      000000C0H.7 SFRSYM    DATA     BIT       PX3
      000000AEH   SFRSYM    DATA     BYTE      EIP1L
      00000083H   SFRSYM    DATA     BYTE      DPH
      000000C8H   SFRSYM    DATA     BIT       CKO
      00000082H   SFRSYM    DATA     BYTE      DPL
      00000087H   SFRSYM    DATA     BYTE      PCON0
      00000084H   SFRSYM    DATA     BYTE      SPSTAT
      00000099H   SFRSYM    DATA     BYTE      SBUF0
      000000B7H   SFRSYM    DATA     BYTE      IPH
      000000B0H.4 SFRSYM    DATA     BIT       T0CKO
      00000097H   SFRSYM    DATA     BYTE      PCON1
      00000099H   SFRSYM    DATA     BYTE      SBUF1
      000000B0H.5 SFRSYM    DATA     BIT       T1CKO
      000000C8H.3 SFRSYM    DATA     BIT       EXEN2
      000000C7H   SFRSYM    DATA     BYTE      PCON2
      0000009AH   SFRSYM    DATA     BYTE      S2BUF
      00000098H   SFRSYM    DATA     BYTE      SCON0
      00000098H.4 SFRSYM    DATA     BIT       REN
      00000098H   SFRSYM    DATA     BYTE      SCON1
      000000C5H   SFRSYM    DATA     BYTE      ADCON
      000000C9H   SFRSYM    DATA     BYTE      T2MOD
      000000C8H   SFRSYM    DATA     BYTE      T2CON
      000000C5H   SFRSYM    DATA     BYTE      ADCTL
      000000BEH   SFRSYM    DATA     BYTE      ADCVL
      000000B9H   SFRSYM    DATA     BYTE      SADEN
      0000009AH   SFRSYM    DATA     BYTE      S1BRT
      000000B0H   SFRSYM    DATA     BIT       RXD
      000000D6H   SFRSYM    DATA     BYTE      KBCON
      000000C8H.1 SFRSYM    DATA     BIT       XIN
      000000B8H.4 SFRSYM    DATA     BIT       PSL
      000000A9H   SFRSYM    DATA     BYTE      SADDR
      000000B0H.1 SFRSYM    DATA     BIT       TXD
      0000008EH   SFRSYM    DATA     BYTE      AUXR0
      000000A2H   SFRSYM    DATA     BYTE      AUXR1
      00000090H.4 SFRSYM    DATA     BIT       SPI_SS
      000000A6H   SFRSYM    DATA     BYTE      AUXR2
      00000090H.2 SFRSYM    DATA     BIT       S2RXD
      000000D0H.5 SFRSYM    DATA     BIT       F0
      00000090H.3 SFRSYM    DATA     BIT       S2TXD
      000000D0H.1 SFRSYM    DATA     BIT       F1
      000000F2H   SFRSYM    DATA     BYTE      PCAPWM0
      000000D0H   SFRSYM    DATA     BYTE      PSW
      000000F3H   SFRSYM    DATA     BYTE      PCAPWM1
      000000D8H   SFRSYM    DATA     BIT       CCF0
      00000098H.2 SFRSYM    DATA     BIT       RB80
      000000F4H   SFRSYM    DATA     BYTE      PCAPWM2
      000000D8H.1 SFRSYM    DATA     BIT       CCF1
      00000098H.2 SFRSYM    DATA     BIT       RB81
      000000F5H   SFRSYM    DATA     BYTE      PCAPWM3
      00000086H   SFRSYM    DATA     BYTE      SPDAT
      00000093H   SFRSYM    DATA     BYTE      P0M0
      000000ADH   SFRSYM    DATA     BYTE      AUXIE

      0100185FH   BLOCK     CODE     ---       LVL=0
      00000067H   SYMBOL    DATA     WORD      Code_Value
      01001863H   BLOCK     CODE     NEAR LAB  LVL=1
      00000069H   SYMBOL    DATA     WORD      out_Value
      ---         BLOCKEND  ---      ---       LVL=1
      0100185FH   LINE      CODE     ---       #50
      01001863H   LINE      CODE     ---       #51
      01001863H   LINE      CODE     ---       #54
      01001866H   LINE      CODE     ---       #55
      0100186FH   LINE      CODE     ---       #56
      0100186FH   LINE      CODE     ---       #57
LX51 LINKER/LOCATER V4.47a                                                            02/02/2015  10:52:25  PAGE 97


      0100187EH   LINE      CODE     ---       #58
      0100187EH   LINE      CODE     ---       #59
      010018A6H   LINE      CODE     ---       #60
      010018A9H   LINE      CODE     ---       #61
      010018ACH   LINE      CODE     ---       #62
      010018AEH   LINE      CODE     ---       #64
      010018AEH   LINE      CODE     ---       #65
      010018CEH   LINE      CODE     ---       #66
      010018D1H   LINE      CODE     ---       #67
      010018D1H   LINE      CODE     ---       #68
      010018E0H   LINE      CODE     ---       #69
      010018E0H   LINE      CODE     ---       #70
      010018FEH   LINE      CODE     ---       #71
      010018FEH   LINE      CODE     ---       #72
      01001913H   LINE      CODE     ---       #73
      01001913H   LINE      CODE     ---       #74
      01001931H   LINE      CODE     ---       #75
      01001931H   LINE      CODE     ---       #76
      01001934H   LINE      CODE     ---       #78
      01001934H   LINE      CODE     ---       #79
      01001958H   LINE      CODE     ---       #81
      01001963H   LINE      CODE     ---       #82
      01001963H   LINE      CODE     ---       #83
      01001982H   LINE      CODE     ---       #84
      01001982H   LINE      CODE     ---       #85
      0100198DH   LINE      CODE     ---       #86
      0100198DH   LINE      CODE     ---       #87
      010019ACH   LINE      CODE     ---       #88
      010019ACH   LINE      CODE     ---       #89
      010019B7H   LINE      CODE     ---       #90
      010019B7H   LINE      CODE     ---       #91
      010019D5H   LINE      CODE     ---       #92
      010019D5H   LINE      CODE     ---       #93
      010019E0H   LINE      CODE     ---       #94
      010019E0H   LINE      CODE     ---       #95
      010019FFH   LINE      CODE     ---       #96
      010019FFH   LINE      CODE     ---       #97
      01001A0AH   LINE      CODE     ---       #98
      01001A0AH   LINE      CODE     ---       #99
      01001A28H   LINE      CODE     ---       #100
      01001A28H   LINE      CODE     ---       #101
      01001A33H   LINE      CODE     ---       #102
      01001A33H   LINE      CODE     ---       #103
      01001A51H   LINE      CODE     ---       #104
      01001A51H   LINE      CODE     ---       #105
      01001A5CH   LINE      CODE     ---       #106
      01001A5CH   LINE      CODE     ---       #107
      01001A7BH   LINE      CODE     ---       #108
      01001A7BH   LINE      CODE     ---       #109
      01001A86H   LINE      CODE     ---       #110
      01001A86H   LINE      CODE     ---       #111
      01001AA5H   LINE      CODE     ---       #112
      01001AA5H   LINE      CODE     ---       #113
      01001AB0H   LINE      CODE     ---       #114
      01001AB0H   LINE      CODE     ---       #115
      01001ACFH   LINE      CODE     ---       #116
      01001ACFH   LINE      CODE     ---       #117
      01001ADAH   LINE      CODE     ---       #118
      01001ADAH   LINE      CODE     ---       #119
      01001AF9H   LINE      CODE     ---       #120
      01001AF9H   LINE      CODE     ---       #122
      01001B04H   LINE      CODE     ---       #123
      01001B04H   LINE      CODE     ---       #124
      01001B23H   LINE      CODE     ---       #125
      01001B23H   LINE      CODE     ---       #126
LX51 LINKER/LOCATER V4.47a                                                            02/02/2015  10:52:25  PAGE 98


      01001B2EH   LINE      CODE     ---       #127
      01001B2EH   LINE      CODE     ---       #128
      01001B4CH   LINE      CODE     ---       #129
      01001B4CH   LINE      CODE     ---       #130
      01001B57H   LINE      CODE     ---       #131
      01001B57H   LINE      CODE     ---       #132
      01001B76H   LINE      CODE     ---       #133
      01001B76H   LINE      CODE     ---       #134
      01001B81H   LINE      CODE     ---       #135
      01001B81H   LINE      CODE     ---       #136
      01001BA0H   LINE      CODE     ---       #137
      01001BA0H   LINE      CODE     ---       #138
      01001BABH   LINE      CODE     ---       #139
      01001BABH   LINE      CODE     ---       #140
      01001BC9H   LINE      CODE     ---       #141
      01001BC9H   LINE      CODE     ---       #142
      01001BD4H   LINE      CODE     ---       #143
      01001BD4H   LINE      CODE     ---       #144
      01001BF3H   LINE      CODE     ---       #145
      01001BF3H   LINE      CODE     ---       #146
      01001BFEH   LINE      CODE     ---       #147
      01001BFEH   LINE      CODE     ---       #148
      01001C1CH   LINE      CODE     ---       #149
      01001C1CH   LINE      CODE     ---       #150
      01001C27H   LINE      CODE     ---       #151
      01001C27H   LINE      CODE     ---       #152
      01001C45H   LINE      CODE     ---       #153
      01001C45H   LINE      CODE     ---       #154
      01001C50H   LINE      CODE     ---       #155
      01001C50H   LINE      CODE     ---       #156
      01001C6FH   LINE      CODE     ---       #157
      01001C6FH   LINE      CODE     ---       #158
      01001C7AH   LINE      CODE     ---       #159
      01001C7AH   LINE      CODE     ---       #160
      01001C98H   LINE      CODE     ---       #161
      01001C98H   LINE      CODE     ---       #162
      01001CABH   LINE      CODE     ---       #163
      01001CABH   LINE      CODE     ---       #164
      01001CD6H   LINE      CODE     ---       #165
      01001CD6H   LINE      CODE     ---       #166
      01001CE9H   LINE      CODE     ---       #167
      01001CE9H   LINE      CODE     ---       #168
      01001D14H   LINE      CODE     ---       #169
      01001D14H   LINE      CODE     ---       #170
      01001D27H   LINE      CODE     ---       #171
      01001D27H   LINE      CODE     ---       #172
      01001D52H   LINE      CODE     ---       #173
      01001D52H   LINE      CODE     ---       #174
      01001D65H   LINE      CODE     ---       #175
      01001D65H   LINE      CODE     ---       #176
      01001D90H   LINE      CODE     ---       #177
      01001D90H   LINE      CODE     ---       #178
      01001DA3H   LINE      CODE     ---       #179
      01001DA3H   LINE      CODE     ---       #180
      01001DCEH   LINE      CODE     ---       #181
      01001DCEH   LINE      CODE     ---       #182
      01001DE1H   LINE      CODE     ---       #183
      01001DE1H   LINE      CODE     ---       #184
      01001E0CH   LINE      CODE     ---       #185
      01001E0CH   LINE      CODE     ---       #186
      01001E1FH   LINE      CODE     ---       #187
      01001E1FH   LINE      CODE     ---       #188
      01001E4AH   LINE      CODE     ---       #189
      01001E4AH   LINE      CODE     ---       #190
      01001E5DH   LINE      CODE     ---       #191
LX51 LINKER/LOCATER V4.47a                                                            02/02/2015  10:52:25  PAGE 99


      01001E5DH   LINE      CODE     ---       #192
      01001E87H   LINE      CODE     ---       #193
      01001E87H   LINE      CODE     ---       #194
      01001E9AH   LINE      CODE     ---       #195
      01001E9AH   LINE      CODE     ---       #196
      01001EC5H   LINE      CODE     ---       #197
      01001EC5H   LINE      CODE     ---       #198
      01001ED8H   LINE      CODE     ---       #199
      01001ED8H   LINE      CODE     ---       #200
      01001F03H   LINE      CODE     ---       #201
      01001F03H   LINE      CODE     ---       #202
      01001F16H   LINE      CODE     ---       #203
      01001F16H   LINE      CODE     ---       #204
      01001F41H   LINE      CODE     ---       #205
      01001F41H   LINE      CODE     ---       #206
      01001F54H   LINE      CODE     ---       #207
      01001F54H   LINE      CODE     ---       #208
      01001F7FH   LINE      CODE     ---       #209
      01001F7FH   LINE      CODE     ---       #210
      01001F92H   LINE      CODE     ---       #211
      01001F92H   LINE      CODE     ---       #212
      01001FBDH   LINE      CODE     ---       #213
      01001FBDH   LINE      CODE     ---       #214
      01001FD0H   LINE      CODE     ---       #215
      01001FD0H   LINE      CODE     ---       #216
      01001FFBH   LINE      CODE     ---       #217
      01001FFBH   LINE      CODE     ---       #218
      0100200EH   LINE      CODE     ---       #219
      0100200EH   LINE      CODE     ---       #220
      01002039H   LINE      CODE     ---       #221
      01002039H   LINE      CODE     ---       #222
      0100204CH   LINE      CODE     ---       #223
      0100204CH   LINE      CODE     ---       #224
      01002052H   LINE      CODE     ---       #225
      01002052H   LINE      CODE     ---       #226
      01002052H   LINE      CODE     ---       #228
      01002056H   LINE      CODE     ---       #229
      ---         BLOCKEND  ---      ---       LVL=0

      01003E08H   BLOCK     CODE     ---       LVL=0
      00000067H   SYMBOL    DATA     WORD      Code_Value
      01003E0CH   BLOCK     CODE     NEAR LAB  LVL=1
      00000069H   SYMBOL    DATA     WORD      out_Value
      ---         BLOCKEND  ---      ---       LVL=1
      01003E08H   LINE      CODE     ---       #233
      01003E0CH   LINE      CODE     ---       #234
      01003E0CH   LINE      CODE     ---       #237
      01003E0FH   LINE      CODE     ---       #238
      01003E15H   LINE      CODE     ---       #239
      01003E15H   LINE      CODE     ---       #240
      01003E24H   LINE      CODE     ---       #241
      01003E24H   LINE      CODE     ---       #242
      01003E4CH   LINE      CODE     ---       #243
      01003E4FH   LINE      CODE     ---       #244
      01003E52H   LINE      CODE     ---       #245
      01003E55H   LINE      CODE     ---       #247
      01003E55H   LINE      CODE     ---       #248
      01003E75H   LINE      CODE     ---       #249
      01003E78H   LINE      CODE     ---       #251
      01003E78H   LINE      CODE     ---       #252
      01003E7BH   LINE      CODE     ---       #254
      01003E7BH   LINE      CODE     ---       #255
      01003E9FH   LINE      CODE     ---       #257
      01003EAAH   LINE      CODE     ---       #258
      01003EAAH   LINE      CODE     ---       #259
LX51 LINKER/LOCATER V4.47a                                                            02/02/2015  10:52:25  PAGE 100


      01003EC9H   LINE      CODE     ---       #260
      01003EC9H   LINE      CODE     ---       #261
      01003ED4H   LINE      CODE     ---       #262
      01003ED4H   LINE      CODE     ---       #263
      01003EF3H   LINE      CODE     ---       #264
      01003EF3H   LINE      CODE     ---       #265
      01003EFEH   LINE      CODE     ---       #266
      01003EFEH   LINE      CODE     ---       #267
      01003F1DH   LINE      CODE     ---       #268
      01003F1DH   LINE      CODE     ---       #269
      01003F28H   LINE      CODE     ---       #270
      01003F28H   LINE      CODE     ---       #271
      01003F46H   LINE      CODE     ---       #272
      01003F46H   LINE      CODE     ---       #273
      01003F51H   LINE      CODE     ---       #274
      01003F51H   LINE      CODE     ---       #275
      01003F70H   LINE      CODE     ---       #276
      01003F70H   LINE      CODE     ---       #277
      01003F7BH   LINE      CODE     ---       #278
      01003F7BH   LINE      CODE     ---       #279
      01003F99H   LINE      CODE     ---       #280
      01003F99H   LINE      CODE     ---       #281
      01003FA4H   LINE      CODE     ---       #282
      01003FA4H   LINE      CODE     ---       #283
      01003FC3H   LINE      CODE     ---       #284
      01003FC3H   LINE      CODE     ---       #285
      01003FCEH   LINE      CODE     ---       #286
      01003FCEH   LINE      CODE     ---       #287
      01003FECH   LINE      CODE     ---       #288
      01003FECH   LINE      CODE     ---       #289
      01003FF7H   LINE      CODE     ---       #290
      01003FF7H   LINE      CODE     ---       #291
      01004016H   LINE      CODE     ---       #292
      01004016H   LINE      CODE     ---       #293
      01004021H   LINE      CODE     ---       #294
      01004021H   LINE      CODE     ---       #295
      0100403FH   LINE      CODE     ---       #296
      0100403FH   LINE      CODE     ---       #297
      0100404AH   LINE      CODE     ---       #298
      0100404AH   LINE      CODE     ---       #299
      01004069H   LINE      CODE     ---       #300
      01004069H   LINE      CODE     ---       #301
      01004074H   LINE      CODE     ---       #302
      01004074H   LINE      CODE     ---       #303
      01004092H   LINE      CODE     ---       #304
      01004092H   LINE      CODE     ---       #305
      0100409DH   LINE      CODE     ---       #306
      0100409DH   LINE      CODE     ---       #307
      010040BCH   LINE      CODE     ---       #308
      010040BCH   LINE      CODE     ---       #309
      010040C7H   LINE      CODE     ---       #310
      010040C7H   LINE      CODE     ---       #311
      010040E5H   LINE      CODE     ---       #312
      010040E5H   LINE      CODE     ---       #313
      010040F0H   LINE      CODE     ---       #314
      010040F0H   LINE      CODE     ---       #315
      0100410FH   LINE      CODE     ---       #316
      0100410FH   LINE      CODE     ---       #317
      0100411AH   LINE      CODE     ---       #318
      0100411AH   LINE      CODE     ---       #319
      01004139H   LINE      CODE     ---       #320
      01004139H   LINE      CODE     ---       #321
      01004144H   LINE      CODE     ---       #322
      01004144H   LINE      CODE     ---       #323
      01004163H   LINE      CODE     ---       #324
LX51 LINKER/LOCATER V4.47a                                                            02/02/2015  10:52:25  PAGE 101


      01004163H   LINE      CODE     ---       #325
      01004176H   LINE      CODE     ---       #326
      01004176H   LINE      CODE     ---       #327
      010041A2H   LINE      CODE     ---       #328
      010041A2H   LINE      CODE     ---       #329
      010041B5H   LINE      CODE     ---       #330
      010041B5H   LINE      CODE     ---       #331
      010041E1H   LINE      CODE     ---       #332
      010041E1H   LINE      CODE     ---       #333
      010041F4H   LINE      CODE     ---       #334
      010041F4H   LINE      CODE     ---       #335
      01004220H   LINE      CODE     ---       #336
      01004220H   LINE      CODE     ---       #337
      01004233H   LINE      CODE     ---       #338
      01004233H   LINE      CODE     ---       #339
      0100425FH   LINE      CODE     ---       #340
      0100425FH   LINE      CODE     ---       #341
      01004272H   LINE      CODE     ---       #342
      01004272H   LINE      CODE     ---       #343
      0100429EH   LINE      CODE     ---       #344
      0100429EH   LINE      CODE     ---       #345
      0100429EH   LINE      CODE     ---       #347
      010042A2H   LINE      CODE     ---       #349
      ---         BLOCKEND  ---      ---       LVL=0

      01002ECCH   BLOCK     CODE     ---       LVL=0
      00000067H   SYMBOL    DATA     WORD      Code_Value
      01002ED0H   BLOCK     CODE     NEAR LAB  LVL=1
      00000069H   SYMBOL    DATA     WORD      outlo_Value
      0000006BH   SYMBOL    DATA     WORD      out_Value
      ---         BLOCKEND  ---      ---       LVL=1
      01002ECCH   LINE      CODE     ---       #353
      01002ED0H   LINE      CODE     ---       #354
      01002ED0H   LINE      CODE     ---       #358
      01002ED6H   LINE      CODE     ---       #359
      01002ED9H   LINE      CODE     ---       #361
      01002EE2H   LINE      CODE     ---       #362
      01002EE2H   LINE      CODE     ---       #363
      01002EF1H   LINE      CODE     ---       #364
      01002EF1H   LINE      CODE     ---       #365
      01002F19H   LINE      CODE     ---       #366
      01002F1CH   LINE      CODE     ---       #367
      01002F1FH   LINE      CODE     ---       #368
      01002F21H   LINE      CODE     ---       #370
      01002F21H   LINE      CODE     ---       #371
      01002F41H   LINE      CODE     ---       #372
      01002F44H   LINE      CODE     ---       #373
      01002F47H   LINE      CODE     ---       #374
      01002F47H   LINE      CODE     ---       #376
      01002F56H   LINE      CODE     ---       #377
      01002F56H   LINE      CODE     ---       #378
      01002F74H   LINE      CODE     ---       #379
      01002F74H   LINE      CODE     ---       #380
      01002F83H   LINE      CODE     ---       #381
      01002F83H   LINE      CODE     ---       #382
      01002FA1H   LINE      CODE     ---       #383
      01002FA1H   LINE      CODE     ---       #384
      01002FB0H   LINE      CODE     ---       #385
      01002FB0H   LINE      CODE     ---       #386
      01002FCEH   LINE      CODE     ---       #387
      01002FCEH   LINE      CODE     ---       #388
      01002FDDH   LINE      CODE     ---       #389
      01002FDDH   LINE      CODE     ---       #390
      01002FFBH   LINE      CODE     ---       #391
      01002FFBH   LINE      CODE     ---       #392
LX51 LINKER/LOCATER V4.47a                                                            02/02/2015  10:52:25  PAGE 102


      0100300AH   LINE      CODE     ---       #393
      0100300AH   LINE      CODE     ---       #394
      01003028H   LINE      CODE     ---       #395
      01003028H   LINE      CODE     ---       #396
      01003037H   LINE      CODE     ---       #397
      01003037H   LINE      CODE     ---       #398
      01003055H   LINE      CODE     ---       #399
      01003055H   LINE      CODE     ---       #400
      01003064H   LINE      CODE     ---       #401
      01003064H   LINE      CODE     ---       #402
      01003082H   LINE      CODE     ---       #403
      01003082H   LINE      CODE     ---       #404
      01003091H   LINE      CODE     ---       #405
      01003091H   LINE      CODE     ---       #406
      010030AFH   LINE      CODE     ---       #407
      010030AFH   LINE      CODE     ---       #408
      010030BEH   LINE      CODE     ---       #409
      010030BEH   LINE      CODE     ---       #410
      010030DCH   LINE      CODE     ---       #411
      010030DCH   LINE      CODE     ---       #412
      010030EBH   LINE      CODE     ---       #413
      010030EBH   LINE      CODE     ---       #414
      01003109H   LINE      CODE     ---       #415
      01003109H   LINE      CODE     ---       #416
      01003118H   LINE      CODE     ---       #417
      01003118H   LINE      CODE     ---       #418
      01003136H   LINE      CODE     ---       #419
      01003136H   LINE      CODE     ---       #420
      01003145H   LINE      CODE     ---       #421
      01003145H   LINE      CODE     ---       #422
      01003163H   LINE      CODE     ---       #423
      01003163H   LINE      CODE     ---       #424
      01003172H   LINE      CODE     ---       #425
      01003172H   LINE      CODE     ---       #426
      01003190H   LINE      CODE     ---       #427
      01003190H   LINE      CODE     ---       #428
      0100319FH   LINE      CODE     ---       #429
      0100319FH   LINE      CODE     ---       #430
      010031BDH   LINE      CODE     ---       #431
      010031BDH   LINE      CODE     ---       #432
      010031CCH   LINE      CODE     ---       #433
      010031CCH   LINE      CODE     ---       #434
      010031EAH   LINE      CODE     ---       #435
      010031EAH   LINE      CODE     ---       #436
      010031F9H   LINE      CODE     ---       #437
      010031F9H   LINE      CODE     ---       #438
      01003217H   LINE      CODE     ---       #439
      01003217H   LINE      CODE     ---       #440
      01003226H   LINE      CODE     ---       #441
      01003226H   LINE      CODE     ---       #442
      01003244H   LINE      CODE     ---       #443
      01003244H   LINE      CODE     ---       #444
      01003258H   LINE      CODE     ---       #445
      0100325BH   LINE      CODE     ---       #447
      0100325BH   LINE      CODE     ---       #448
      01003261H   LINE      CODE     ---       #450
      01003285H   LINE      CODE     ---       #452
      01003290H   LINE      CODE     ---       #453
      01003290H   LINE      CODE     ---       #454
      010032AFH   LINE      CODE     ---       #455
      010032AFH   LINE      CODE     ---       #456
      010032BAH   LINE      CODE     ---       #457
      010032BAH   LINE      CODE     ---       #458
      010032D9H   LINE      CODE     ---       #459
      010032D9H   LINE      CODE     ---       #460
LX51 LINKER/LOCATER V4.47a                                                            02/02/2015  10:52:25  PAGE 103


      010032E4H   LINE      CODE     ---       #461
      010032E4H   LINE      CODE     ---       #462
      01003303H   LINE      CODE     ---       #463
      01003303H   LINE      CODE     ---       #464
      0100330EH   LINE      CODE     ---       #465
      0100330EH   LINE      CODE     ---       #466
      0100332DH   LINE      CODE     ---       #467
      0100332DH   LINE      CODE     ---       #468
      01003338H   LINE      CODE     ---       #469
      01003338H   LINE      CODE     ---       #470
      01003357H   LINE      CODE     ---       #471
      01003357H   LINE      CODE     ---       #472
      01003362H   LINE      CODE     ---       #473
      01003362H   LINE      CODE     ---       #474
      0100337EH   LINE      CODE     ---       #475
      0100337EH   LINE      CODE     ---       #476
      01003389H   LINE      CODE     ---       #477
      01003389H   LINE      CODE     ---       #478
      010033A8H   LINE      CODE     ---       #479
      010033A8H   LINE      CODE     ---       #480
      010033B3H   LINE      CODE     ---       #481
      010033B3H   LINE      CODE     ---       #482
      010033D2H   LINE      CODE     ---       #483
      010033D2H   LINE      CODE     ---       #484
      010033DDH   LINE      CODE     ---       #485
      010033DDH   LINE      CODE     ---       #486
      010033FCH   LINE      CODE     ---       #487
      010033FCH   LINE      CODE     ---       #488
      01003407H   LINE      CODE     ---       #489
      01003407H   LINE      CODE     ---       #490
      01003426H   LINE      CODE     ---       #491
      01003426H   LINE      CODE     ---       #492
      01003437H   LINE      CODE     ---       #493
      01003437H   LINE      CODE     ---       #494
      0100343BH   LINE      CODE     ---       #495
      ---         BLOCKEND  ---      ---       LVL=0

      01000FFDH   BLOCK     CODE     ---       LVL=0
      00000067H   SYMBOL    DATA     WORD      Code_Value
      01001001H   BLOCK     CODE     NEAR LAB  LVL=1
      00000069H   SYMBOL    DATA     WORD      out_Value
      ---         BLOCKEND  ---      ---       LVL=1
      01000FFDH   LINE      CODE     ---       #499
      01001001H   LINE      CODE     ---       #500
      01001001H   LINE      CODE     ---       #503
      01001007H   LINE      CODE     ---       #504
      0100100AH   LINE      CODE     ---       #505
      01001010H   LINE      CODE     ---       #506
      01001010H   LINE      CODE     ---       #507
      0100101FH   LINE      CODE     ---       #508
      0100101FH   LINE      CODE     ---       #509
      01001047H   LINE      CODE     ---       #510
      0100104AH   LINE      CODE     ---       #511
      0100104DH   LINE      CODE     ---       #512
      01001050H   LINE      CODE     ---       #514
      01001050H   LINE      CODE     ---       #515
      01001070H   LINE      CODE     ---       #516
      01001073H   LINE      CODE     ---       #517
      01001073H   LINE      CODE     ---       #518
      01001076H   LINE      CODE     ---       #520
      01001076H   LINE      CODE     ---       #521
      0100109AH   LINE      CODE     ---       #523
      010010A5H   LINE      CODE     ---       #524
      010010A5H   LINE      CODE     ---       #525
      010010C4H   LINE      CODE     ---       #526
LX51 LINKER/LOCATER V4.47a                                                            02/02/2015  10:52:25  PAGE 104


      010010C4H   LINE      CODE     ---       #527
      010010CFH   LINE      CODE     ---       #528
      010010CFH   LINE      CODE     ---       #529
      010010EEH   LINE      CODE     ---       #530
      010010EEH   LINE      CODE     ---       #531
      010010F9H   LINE      CODE     ---       #532
      010010F9H   LINE      CODE     ---       #533
      01001118H   LINE      CODE     ---       #534
      01001118H   LINE      CODE     ---       #535
      01001123H   LINE      CODE     ---       #536
      01001123H   LINE      CODE     ---       #537
      01001142H   LINE      CODE     ---       #538
      01001142H   LINE      CODE     ---       #539
      0100114DH   LINE      CODE     ---       #540
      0100114DH   LINE      CODE     ---       #541
      0100116CH   LINE      CODE     ---       #542
      0100116CH   LINE      CODE     ---       #543
      01001177H   LINE      CODE     ---       #544
      01001177H   LINE      CODE     ---       #545
      01001196H   LINE      CODE     ---       #546
      01001196H   LINE      CODE     ---       #547
      010011A1H   LINE      CODE     ---       #548
      010011A1H   LINE      CODE     ---       #549
      010011C0H   LINE      CODE     ---       #550
      010011C0H   LINE      CODE     ---       #551
      010011CBH   LINE      CODE     ---       #552
      010011CBH   LINE      CODE     ---       #553
      010011EAH   LINE      CODE     ---       #554
      010011EAH   LINE      CODE     ---       #555
      010011F5H   LINE      CODE     ---       #556
      010011F5H   LINE      CODE     ---       #557
      01001213H   LINE      CODE     ---       #558
      01001213H   LINE      CODE     ---       #559
      0100121EH   LINE      CODE     ---       #560
      0100121EH   LINE      CODE     ---       #561
      0100123DH   LINE      CODE     ---       #562
      0100123DH   LINE      CODE     ---       #563
      01001248H   LINE      CODE     ---       #564
      01001248H   LINE      CODE     ---       #565
      01001266H   LINE      CODE     ---       #566
      01001266H   LINE      CODE     ---       #567
      01001271H   LINE      CODE     ---       #568
      01001271H   LINE      CODE     ---       #569
      01001290H   LINE      CODE     ---       #570
      01001290H   LINE      CODE     ---       #571
      0100129BH   LINE      CODE     ---       #572
      0100129BH   LINE      CODE     ---       #573
      010012BAH   LINE      CODE     ---       #574
      010012BAH   LINE      CODE     ---       #575
      010012C5H   LINE      CODE     ---       #576
      010012C5H   LINE      CODE     ---       #577
      010012E3H   LINE      CODE     ---       #578
      010012E3H   LINE      CODE     ---       #579
      010012EEH   LINE      CODE     ---       #580
      010012EEH   LINE      CODE     ---       #581
      0100130DH   LINE      CODE     ---       #582
      0100130DH   LINE      CODE     ---       #583
      01001318H   LINE      CODE     ---       #584
      01001318H   LINE      CODE     ---       #585
      01001336H   LINE      CODE     ---       #586
      01001336H   LINE      CODE     ---       #587
      01001341H   LINE      CODE     ---       #588
      01001341H   LINE      CODE     ---       #589
      01001360H   LINE      CODE     ---       #590
      01001360H   LINE      CODE     ---       #591
LX51 LINKER/LOCATER V4.47a                                                            02/02/2015  10:52:25  PAGE 105


      01001373H   LINE      CODE     ---       #592
      01001373H   LINE      CODE     ---       #593
      0100139EH   LINE      CODE     ---       #594
      0100139EH   LINE      CODE     ---       #595
      010013B1H   LINE      CODE     ---       #596
      010013B1H   LINE      CODE     ---       #597
      010013DDH   LINE      CODE     ---       #598
      010013DDH   LINE      CODE     ---       #599
      010013F0H   LINE      CODE     ---       #600
      010013F0H   LINE      CODE     ---       #601
      0100141BH   LINE      CODE     ---       #602
      0100141BH   LINE      CODE     ---       #603
      0100142EH   LINE      CODE     ---       #604
      0100142EH   LINE      CODE     ---       #605
      0100145AH   LINE      CODE     ---       #606
      0100145AH   LINE      CODE     ---       #607
      0100146DH   LINE      CODE     ---       #608
      0100146DH   LINE      CODE     ---       #609
      01001498H   LINE      CODE     ---       #610
      01001498H   LINE      CODE     ---       #611
      010014ABH   LINE      CODE     ---       #612
      010014ABH   LINE      CODE     ---       #613
      010014D7H   LINE      CODE     ---       #614
      010014D7H   LINE      CODE     ---       #615
      010014EAH   LINE      CODE     ---       #616
      010014EAH   LINE      CODE     ---       #617
      01001515H   LINE      CODE     ---       #618
      01001515H   LINE      CODE     ---       #619
      01001528H   LINE      CODE     ---       #620
      01001528H   LINE      CODE     ---       #621
      01001554H   LINE      CODE     ---       #622
      01001554H   LINE      CODE     ---       #623
      01001567H   LINE      CODE     ---       #624
      01001567H   LINE      CODE     ---       #625
      01001592H   LINE      CODE     ---       #626
      01001592H   LINE      CODE     ---       #627
      010015A5H   LINE      CODE     ---       #628
      010015A5H   LINE      CODE     ---       #629
      010015D1H   LINE      CODE     ---       #630
      010015D1H   LINE      CODE     ---       #631
      010015E4H   LINE      CODE     ---       #632
      010015E4H   LINE      CODE     ---       #633
      0100160FH   LINE      CODE     ---       #634
      0100160FH   LINE      CODE     ---       #635
      01001622H   LINE      CODE     ---       #636
      01001622H   LINE      CODE     ---       #637
      0100164EH   LINE      CODE     ---       #638
      0100164EH   LINE      CODE     ---       #639
      01001661H   LINE      CODE     ---       #640
      01001661H   LINE      CODE     ---       #641
      0100168CH   LINE      CODE     ---       #642
      0100168CH   LINE      CODE     ---       #643
      0100169FH   LINE      CODE     ---       #644
      0100169FH   LINE      CODE     ---       #645
      010016CBH   LINE      CODE     ---       #646
      010016CBH   LINE      CODE     ---       #647
      010016DEH   LINE      CODE     ---       #648
      010016DEH   LINE      CODE     ---       #649
      01001709H   LINE      CODE     ---       #650
      01001709H   LINE      CODE     ---       #651
      0100171CH   LINE      CODE     ---       #652
      0100171CH   LINE      CODE     ---       #653
      01001747H   LINE      CODE     ---       #654
      01001747H   LINE      CODE     ---       #655
      0100175AH   LINE      CODE     ---       #656
LX51 LINKER/LOCATER V4.47a                                                            02/02/2015  10:52:25  PAGE 106


      0100175AH   LINE      CODE     ---       #657
      01001786H   LINE      CODE     ---       #658
      01001786H   LINE      CODE     ---       #659
      01001799H   LINE      CODE     ---       #660
      01001799H   LINE      CODE     ---       #661
      010017C4H   LINE      CODE     ---       #662
      010017C4H   LINE      CODE     ---       #663
      010017D7H   LINE      CODE     ---       #664
      010017D7H   LINE      CODE     ---       #665
      01001803H   LINE      CODE     ---       #666
      01001803H   LINE      CODE     ---       #667
      01001816H   LINE      CODE     ---       #668
      01001816H   LINE      CODE     ---       #669
      01001841H   LINE      CODE     ---       #670
      01001841H   LINE      CODE     ---       #672
      01001855H   LINE      CODE     ---       #673
      01001855H   LINE      CODE     ---       #674
      0100185AH   LINE      CODE     ---       #675
      0100185AH   LINE      CODE     ---       #676
      0100185AH   LINE      CODE     ---       #677
      0100185EH   LINE      CODE     ---       #679
      ---         BLOCKEND  ---      ---       LVL=0

      010045F2H   BLOCK     CODE     ---       LVL=0
      00000067H   SYMBOL    DATA     WORD      Code_Value
      010045F6H   BLOCK     CODE     NEAR LAB  LVL=1
      00000069H   SYMBOL    DATA     WORD      out_Value
      00000002H   SYMBOL    DATA     WORD      B_code
      ---         BLOCKEND  ---      ---       LVL=1
      010045F2H   LINE      CODE     ---       #683
      010045F6H   LINE      CODE     ---       #684
      010045F6H   LINE      CODE     ---       #687
      010045FCH   LINE      CODE     ---       #688
      010045FCH   LINE      CODE     ---       #689
      01004607H   LINE      CODE     ---       #690
      01004607H   LINE      CODE     ---       #691
      01004632H   LINE      CODE     ---       #692
      01004635H   LINE      CODE     ---       #693
      01004638H   LINE      CODE     ---       #694
      0100463BH   LINE      CODE     ---       #696
      0100463BH   LINE      CODE     ---       #697
      0100463EH   LINE      CODE     ---       #698
      01004642H   LINE      CODE     ---       #699
      01004642H   LINE      CODE     ---       #700
      01004645H   LINE      CODE     ---       #702
      01004645H   LINE      CODE     ---       #703
      01004668H   LINE      CODE     ---       #704
      0100466CH   LINE      CODE     ---       #706
      01004675H   LINE      CODE     ---       #707
      01004675H   LINE      CODE     ---       #708
      01004692H   LINE      CODE     ---       #709
      01004692H   LINE      CODE     ---       #710
      0100469BH   LINE      CODE     ---       #711
      0100469BH   LINE      CODE     ---       #712
      010046B8H   LINE      CODE     ---       #713
      010046B8H   LINE      CODE     ---       #714
      010046C1H   LINE      CODE     ---       #715
      010046C1H   LINE      CODE     ---       #716
      010046DEH   LINE      CODE     ---       #717
      010046DEH   LINE      CODE     ---       #718
      010046E7H   LINE      CODE     ---       #719
      010046E7H   LINE      CODE     ---       #720
      01004704H   LINE      CODE     ---       #721
      01004704H   LINE      CODE     ---       #722
      0100470DH   LINE      CODE     ---       #723
LX51 LINKER/LOCATER V4.47a                                                            02/02/2015  10:52:25  PAGE 107


      0100470DH   LINE      CODE     ---       #724
      0100472AH   LINE      CODE     ---       #725
      0100472AH   LINE      CODE     ---       #726
      01004733H   LINE      CODE     ---       #727
      01004733H   LINE      CODE     ---       #728
      01004750H   LINE      CODE     ---       #729
      01004750H   LINE      CODE     ---       #730
      01004756H   LINE      CODE     ---       #731
      01004756H   LINE      CODE     ---       #732
      01004773H   LINE      CODE     ---       #733
      01004773H   LINE      CODE     ---       #734
      0100477CH   LINE      CODE     ---       #735
      0100477CH   LINE      CODE     ---       #736
      01004799H   LINE      CODE     ---       #737
      01004799H   LINE      CODE     ---       #738
      010047A2H   LINE      CODE     ---       #739
      010047A2H   LINE      CODE     ---       #740
      010047BFH   LINE      CODE     ---       #741
      010047BFH   LINE      CODE     ---       #742
      010047C8H   LINE      CODE     ---       #743
      010047C8H   LINE      CODE     ---       #744
      010047E5H   LINE      CODE     ---       #745
      010047E5H   LINE      CODE     ---       #746
      010047EEH   LINE      CODE     ---       #747
      010047EEH   LINE      CODE     ---       #748
      0100480BH   LINE      CODE     ---       #749
      0100480BH   LINE      CODE     ---       #750
      01004814H   LINE      CODE     ---       #751
      01004814H   LINE      CODE     ---       #752
      01004831H   LINE      CODE     ---       #753
      01004831H   LINE      CODE     ---       #754
      0100483AH   LINE      CODE     ---       #755
      0100483AH   LINE      CODE     ---       #756
      01004857H   LINE      CODE     ---       #757
      01004857H   LINE      CODE     ---       #758
      01004860H   LINE      CODE     ---       #759
      01004860H   LINE      CODE     ---       #760
      0100487DH   LINE      CODE     ---       #761
      0100487DH   LINE      CODE     ---       #762
      01004886H   LINE      CODE     ---       #763
      01004886H   LINE      CODE     ---       #764
      010048A3H   LINE      CODE     ---       #765
      010048A3H   LINE      CODE     ---       #766
      010048ACH   LINE      CODE     ---       #767
      010048ACH   LINE      CODE     ---       #768
      010048C9H   LINE      CODE     ---       #769
      010048C9H   LINE      CODE     ---       #770
      010048D2H   LINE      CODE     ---       #771
      010048D2H   LINE      CODE     ---       #772
      010048EFH   LINE      CODE     ---       #773
      010048EFH   LINE      CODE     ---       #774
      010048F8H   LINE      CODE     ---       #775
      010048F8H   LINE      CODE     ---       #776
      01004915H   LINE      CODE     ---       #777
      01004915H   LINE      CODE     ---       #778
      0100491EH   LINE      CODE     ---       #779
      0100491EH   LINE      CODE     ---       #780
      0100493BH   LINE      CODE     ---       #781
      0100493BH   LINE      CODE     ---       #782
      0100493BH   LINE      CODE     ---       #783
      0100493FH   LINE      CODE     ---       #785
      ---         BLOCKEND  ---      ---       LVL=0

      010042A3H   BLOCK     CODE     ---       LVL=0
      00000067H   SYMBOL    DATA     WORD      Code_Value
LX51 LINKER/LOCATER V4.47a                                                            02/02/2015  10:52:25  PAGE 108


      010042A7H   BLOCK     CODE     NEAR LAB  LVL=1
      00000069H   SYMBOL    DATA     WORD      out_Value
      00000002H   SYMBOL    DATA     WORD      B_code
      ---         BLOCKEND  ---      ---       LVL=1
      010042A3H   LINE      CODE     ---       #789
      010042A7H   LINE      CODE     ---       #790
      010042A7H   LINE      CODE     ---       #793
      010042ADH   LINE      CODE     ---       #794
      010042ADH   LINE      CODE     ---       #795
      010042B8H   LINE      CODE     ---       #796
      010042B8H   LINE      CODE     ---       #797
      010042E3H   LINE      CODE     ---       #798
      010042E6H   LINE      CODE     ---       #799
      010042E9H   LINE      CODE     ---       #800
      010042ECH   LINE      CODE     ---       #802
      010042ECH   LINE      CODE     ---       #803
      010042EFH   LINE      CODE     ---       #804
      010042F3H   LINE      CODE     ---       #805
      010042F3H   LINE      CODE     ---       #806
      010042F6H   LINE      CODE     ---       #808
      010042F6H   LINE      CODE     ---       #809
      01004319H   LINE      CODE     ---       #811
      0100431DH   LINE      CODE     ---       #813
      01004326H   LINE      CODE     ---       #814
      01004326H   LINE      CODE     ---       #815
      01004343H   LINE      CODE     ---       #816
      01004343H   LINE      CODE     ---       #817
      0100434CH   LINE      CODE     ---       #818
      0100434CH   LINE      CODE     ---       #819
      01004369H   LINE      CODE     ---       #820
      01004369H   LINE      CODE     ---       #821
      01004372H   LINE      CODE     ---       #822
      01004372H   LINE      CODE     ---       #823
      0100438FH   LINE      CODE     ---       #824
      0100438FH   LINE      CODE     ---       #825
      01004398H   LINE      CODE     ---       #826
      01004398H   LINE      CODE     ---       #827
      010043B5H   LINE      CODE     ---       #828
      010043B5H   LINE      CODE     ---       #829
      010043BEH   LINE      CODE     ---       #830
      010043BEH   LINE      CODE     ---       #831
      010043DBH   LINE      CODE     ---       #832
      010043DBH   LINE      CODE     ---       #833
      010043E4H   LINE      CODE     ---       #834
      010043E4H   LINE      CODE     ---       #835
      01004401H   LINE      CODE     ---       #836
      01004401H   LINE      CODE     ---       #837
      0100440AH   LINE      CODE     ---       #838
      0100440AH   LINE      CODE     ---       #839
      01004427H   LINE      CODE     ---       #840
      01004427H   LINE      CODE     ---       #841
      01004430H   LINE      CODE     ---       #842
      01004430H   LINE      CODE     ---       #843
      0100444DH   LINE      CODE     ---       #844
      0100444DH   LINE      CODE     ---       #845
      01004456H   LINE      CODE     ---       #846
      01004456H   LINE      CODE     ---       #847
      01004473H   LINE      CODE     ---       #848
      01004473H   LINE      CODE     ---       #849
      0100447CH   LINE      CODE     ---       #850
      0100447CH   LINE      CODE     ---       #851
      01004499H   LINE      CODE     ---       #852
      01004499H   LINE      CODE     ---       #853
      010044A2H   LINE      CODE     ---       #854
      010044A2H   LINE      CODE     ---       #855
LX51 LINKER/LOCATER V4.47a                                                            02/02/2015  10:52:25  PAGE 109


      010044BFH   LINE      CODE     ---       #856
      010044BFH   LINE      CODE     ---       #857
      010044C8H   LINE      CODE     ---       #858
      010044C8H   LINE      CODE     ---       #859
      010044E5H   LINE      CODE     ---       #860
      010044E5H   LINE      CODE     ---       #861
      010044EEH   LINE      CODE     ---       #862
      010044EEH   LINE      CODE     ---       #863
      0100450BH   LINE      CODE     ---       #864
      0100450BH   LINE      CODE     ---       #865
      01004514H   LINE      CODE     ---       #866
      01004514H   LINE      CODE     ---       #867
      01004531H   LINE      CODE     ---       #868
      01004531H   LINE      CODE     ---       #869
      0100453AH   LINE      CODE     ---       #870
      0100453AH   LINE      CODE     ---       #871
      01004557H   LINE      CODE     ---       #872
      01004557H   LINE      CODE     ---       #873
      01004560H   LINE      CODE     ---       #874
      01004560H   LINE      CODE     ---       #875
      0100457DH   LINE      CODE     ---       #876
      0100457DH   LINE      CODE     ---       #877
      01004586H   LINE      CODE     ---       #878
      01004586H   LINE      CODE     ---       #879
      010045A3H   LINE      CODE     ---       #880
      010045A3H   LINE      CODE     ---       #881
      010045ACH   LINE      CODE     ---       #882
      010045ACH   LINE      CODE     ---       #883
      010045C8H   LINE      CODE     ---       #884
      010045C8H   LINE      CODE     ---       #885
      010045D1H   LINE      CODE     ---       #886
      010045D1H   LINE      CODE     ---       #887
      010045EDH   LINE      CODE     ---       #888
      010045EDH   LINE      CODE     ---       #889
      010045EDH   LINE      CODE     ---       #890
      010045F1H   LINE      CODE     ---       #892
      ---         BLOCKEND  ---      ---       LVL=0

      0100396BH   BLOCK     CODE     ---       LVL=0
      00000063H   SYMBOL    DATA     WORD      Code_Value
      0100396FH   BLOCK     CODE     NEAR LAB  LVL=1
      00000065H   SYMBOL    DATA     WORD      RTD_Value
      00000067H   SYMBOL    DATA     WORD      out_Value
      ---         BLOCKEND  ---      ---       LVL=1
      0100396BH   LINE      CODE     ---       #1009
      0100396FH   LINE      CODE     ---       #1010
      0100396FH   LINE      CODE     ---       #1014
      01003972H   LINE      CODE     ---       #1016
      0100397BH   LINE      CODE     ---       #1017
      0100397BH   LINE      CODE     ---       #1018
      0100398AH   LINE      CODE     ---       #1019
      0100398AH   LINE      CODE     ---       #1020
      010039B2H   LINE      CODE     ---       #1021
      010039B5H   LINE      CODE     ---       #1022
      010039B8H   LINE      CODE     ---       #1023
      010039BAH   LINE      CODE     ---       #1025
      010039BAH   LINE      CODE     ---       #1026
      010039DAH   LINE      CODE     ---       #1027
      010039DDH   LINE      CODE     ---       #1028
      010039E0H   LINE      CODE     ---       #1029
      010039E0H   LINE      CODE     ---       #1031
      010039E6H   LINE      CODE     ---       #1033
      010039F5H   LINE      CODE     ---       #1034
      010039F5H   LINE      CODE     ---       #1035
      01003A13H   LINE      CODE     ---       #1036
LX51 LINKER/LOCATER V4.47a                                                            02/02/2015  10:52:25  PAGE 110


      01003A13H   LINE      CODE     ---       #1037
      01003A22H   LINE      CODE     ---       #1038
      01003A22H   LINE      CODE     ---       #1039
      01003A41H   LINE      CODE     ---       #1040
      01003A41H   LINE      CODE     ---       #1041
      01003A50H   LINE      CODE     ---       #1042
      01003A50H   LINE      CODE     ---       #1043
      01003A6FH   LINE      CODE     ---       #1044
      01003A6FH   LINE      CODE     ---       #1045
      01003A7EH   LINE      CODE     ---       #1046
      01003A7EH   LINE      CODE     ---       #1047
      01003A9DH   LINE      CODE     ---       #1048
      01003A9DH   LINE      CODE     ---       #1049
      01003AB2H   LINE      CODE     ---       #1050
      01003AB2H   LINE      CODE     ---       #1051
      01003AD1H   LINE      CODE     ---       #1052
      01003AD1H   LINE      CODE     ---       #1053
      01003AD4H   LINE      CODE     ---       #1055
      01003AD4H   LINE      CODE     ---       #1056
      01003AF8H   LINE      CODE     ---       #1058
      01003AFEH   LINE      CODE     ---       #1060
      01003B09H   LINE      CODE     ---       #1061
      01003B09H   LINE      CODE     ---       #1062
      01003B26H   LINE      CODE     ---       #1063
      01003B26H   LINE      CODE     ---       #1064
      01003B31H   LINE      CODE     ---       #1065
      01003B31H   LINE      CODE     ---       #1066
      01003B4FH   LINE      CODE     ---       #1067
      01003B4FH   LINE      CODE     ---       #1068
      01003B5AH   LINE      CODE     ---       #1069
      01003B5AH   LINE      CODE     ---       #1070
      01003B78H   LINE      CODE     ---       #1071
      01003B78H   LINE      CODE     ---       #1072
      01003B83H   LINE      CODE     ---       #1073
      01003B83H   LINE      CODE     ---       #1074
      01003BA1H   LINE      CODE     ---       #1075
      01003BA1H   LINE      CODE     ---       #1076
      01003BACH   LINE      CODE     ---       #1077
      01003BACH   LINE      CODE     ---       #1078
      01003BCAH   LINE      CODE     ---       #1079
      01003BCAH   LINE      CODE     ---       #1080
      01003BD5H   LINE      CODE     ---       #1081
      01003BD5H   LINE      CODE     ---       #1082
      01003BF3H   LINE      CODE     ---       #1083
      01003BF3H   LINE      CODE     ---       #1084
      01003BFAH   LINE      CODE     ---       #1085
      01003BFAH   LINE      CODE     ---       #1086
      01003C17H   LINE      CODE     ---       #1087
      01003C17H   LINE      CODE     ---       #1088
      01003C22H   LINE      CODE     ---       #1089
      01003C22H   LINE      CODE     ---       #1090
      01003C40H   LINE      CODE     ---       #1091
      01003C40H   LINE      CODE     ---       #1092
      01003C4BH   LINE      CODE     ---       #1093
      01003C4BH   LINE      CODE     ---       #1094
      01003C69H   LINE      CODE     ---       #1095
      01003C69H   LINE      CODE     ---       #1096
      01003C74H   LINE      CODE     ---       #1097
      01003C74H   LINE      CODE     ---       #1098
      01003C92H   LINE      CODE     ---       #1099
      01003C92H   LINE      CODE     ---       #1100
      01003C9DH   LINE      CODE     ---       #1101
      01003C9DH   LINE      CODE     ---       #1102
      01003CBBH   LINE      CODE     ---       #1103
      01003CBBH   LINE      CODE     ---       #1104
LX51 LINKER/LOCATER V4.47a                                                            02/02/2015  10:52:25  PAGE 111


      01003CC6H   LINE      CODE     ---       #1105
      01003CC6H   LINE      CODE     ---       #1106
      01003CE4H   LINE      CODE     ---       #1107
      01003CE4H   LINE      CODE     ---       #1108
      01003CEFH   LINE      CODE     ---       #1109
      01003CEFH   LINE      CODE     ---       #1110
      01003D0DH   LINE      CODE     ---       #1111
      01003D0DH   LINE      CODE     ---       #1112
      01003D18H   LINE      CODE     ---       #1113
      01003D18H   LINE      CODE     ---       #1114
      01003D36H   LINE      CODE     ---       #1115
      01003D36H   LINE      CODE     ---       #1116
      01003D41H   LINE      CODE     ---       #1117
      01003D41H   LINE      CODE     ---       #1118
      01003D5FH   LINE      CODE     ---       #1119
      01003D5FH   LINE      CODE     ---       #1120
      01003D6AH   LINE      CODE     ---       #1121
      01003D6AH   LINE      CODE     ---       #1122
      01003D88H   LINE      CODE     ---       #1123
      01003D88H   LINE      CODE     ---       #1124
      01003D93H   LINE      CODE     ---       #1125
      01003D93H   LINE      CODE     ---       #1126
      01003DB1H   LINE      CODE     ---       #1127
      01003DB1H   LINE      CODE     ---       #1128
      01003DBCH   LINE      CODE     ---       #1129
      01003DBCH   LINE      CODE     ---       #1130
      01003DDAH   LINE      CODE     ---       #1131
      01003DDAH   LINE      CODE     ---       #1132
      01003DE5H   LINE      CODE     ---       #1133
      01003DE5H   LINE      CODE     ---       #1134
      01003E03H   LINE      CODE     ---       #1135
      01003E03H   LINE      CODE     ---       #1136
      01003E03H   LINE      CODE     ---       #1137
      01003E07H   LINE      CODE     ---       #1138
      ---         BLOCKEND  ---      ---       LVL=0

      ---         MODULE    ---      ---       MCP79411
      0000000FH   PUBLIC    DATA     BYTE      RTC_ack
      01005F7DH   PUBLIC    CODE     ---       _RTC_read_byte
      01005FDBH   PUBLIC    CODE     ---       _RTC_write_byte
      01005DEFH   PUBLIC    CODE     ---       RTC_read_byte0
      01005E2BH   PUBLIC    CODE     ---       _RTC_write_byte0
      0100000EH   PUBLIC    CODE     ---       RTC_restart0
      010061C1H   PUBLIC    CODE     ---       RTC_stop0
      0100617BH   PUBLIC    CODE     ---       RTC_start0
      01006191H   PUBLIC    CODE     ---       RTC_BitDly
      0100611CH   PUBLIC    CODE     ---       _RTC_Delay
      000000B0H   SFRSYM    DATA     BIT       R485_RX
      000000D8H.2 SFRSYM    DATA     BIT       CCF2
      00000098H.3 SFRSYM    DATA     BIT       TB80
      000000F6H   SFRSYM    DATA     BYTE      PCAPWM4
      00000091H   SFRSYM    DATA     BYTE      P1M0
      00000094H   SFRSYM    DATA     BYTE      P0M1
      00000090H.7 SFRSYM    DATA     BIT       non3
      000000D8H.3 SFRSYM    DATA     BIT       CCF3
      00000098H.3 SFRSYM    DATA     BIT       TB81
      000000F7H   SFRSYM    DATA     BYTE      PCAPWM5
      00000095H   SFRSYM    DATA     BYTE      P2M0
      00000092H   SFRSYM    DATA     BYTE      P1M1
      00000080H   SFRSYM    DATA     BYTE      P0
      000000B0H.1 SFRSYM    DATA     BIT       R485_TX
      000000D8H.4 SFRSYM    DATA     BIT       CCF4
      00000098H.7 SFRSYM    DATA     BIT       SM00
      000000B1H   SFRSYM    DATA     BYTE      P3M0
      00000096H   SFRSYM    DATA     BYTE      P2M1
LX51 LINKER/LOCATER V4.47a                                                            02/02/2015  10:52:25  PAGE 112


      00000090H   SFRSYM    DATA     BYTE      P1
      000000D8H.5 SFRSYM    DATA     BIT       CCF5
      00000098H.7 SFRSYM    DATA     BIT       SM01
      00000098H.6 SFRSYM    DATA     BIT       SM10
      000000B3H   SFRSYM    DATA     BYTE      P4M0
      000000B2H   SFRSYM    DATA     BYTE      P3M1
      000000A0H   SFRSYM    DATA     BYTE      P2
      00000098H.6 SFRSYM    DATA     BIT       SM11
      00000098H.5 SFRSYM    DATA     BIT       SM20
      000000E7H   SFRSYM    DATA     BYTE      ISPCR
      000000B5H   SFRSYM    DATA     BYTE      P5M0
      000000B4H   SFRSYM    DATA     BYTE      P4M1
      000000B0H   SFRSYM    DATA     BYTE      P3
      000000C0H   SFRSYM    DATA     BYTE      XICON
      000000A0H.2 SFRSYM    DATA     BIT       EEPROM_SDA
      00000080H.7 SFRSYM    DATA     BIT       DOWN_KEY
      000000B0H.4 SFRSYM    DATA     BIT       T0
      00000098H.5 SFRSYM    DATA     BIT       SM21
      000000D0H.6 SFRSYM    DATA     BIT       AC
      00000097H   SFRSYM    DATA     BYTE      EVRCR
      000000B6H   SFRSYM    DATA     BYTE      P5M1
      000000E8H   SFRSYM    DATA     BYTE      P4
      000000B0H.5 SFRSYM    DATA     BIT       T1
      00000085H   SFRSYM    DATA     BYTE      SPCON
      000000F8H   SFRSYM    DATA     BYTE      P5
      000000ADH   SFRSYM    DATA     BYTE      EIE1
      00000090H   SFRSYM    DATA     BIT       T2
      000000A8H.7 SFRSYM    DATA     BIT       EA
      000000ACH   SFRSYM    DATA     BYTE      SFRPI
      000000E1H   SFRSYM    DATA     BYTE      WDTCR
      000000C8H   SFRSYM    DATA     BYTE      P6
      000000A0H.4 SFRSYM    DATA     BIT       mV_SCL
      000000A0H   SFRSYM    DATA     BIT       KBI0
      00000090H.5 SFRSYM    DATA     BIT       SPI_MOSI
      00000090H.6 SFRSYM    DATA     BIT       SPI_MISO
      00000080H.5 SFRSYM    DATA     BIT       mA_OUT
      000000A0H.1 SFRSYM    DATA     BIT       KBI1
      00000085H   SFRSYM    DATA     BYTE      SPCTL
      000000A0H.2 SFRSYM    DATA     BIT       KBI2
      00000090H   SFRSYM    DATA     BIT       AIN0
      000000D8H.7 SFRSYM    DATA     BIT       CF
      000000AEH   SFRSYM    DATA     BYTE      AUXIP
      000000A0H.3 SFRSYM    DATA     BIT       KBI3
      00000090H.1 SFRSYM    DATA     BIT       AIN1
      000000A0H.4 SFRSYM    DATA     BIT       KBI4
      00000090H.2 SFRSYM    DATA     BIT       AIN2
      00000098H.7 SFRSYM    DATA     BIT       FE
      000000F9H   SFRSYM    DATA     BYTE      CH
      000000A0H.5 SFRSYM    DATA     BIT       KBI5
      00000090H.3 SFRSYM    DATA     BIT       AIN3
      000000A0H.6 SFRSYM    DATA     BIT       KBI6
      00000090H.4 SFRSYM    DATA     BIT       AIN4
      000000A0H.3 SFRSYM    DATA     BIT       EEPROM_SCL
      00000080H.1 SFRSYM    DATA     BIT       RTD_C
      000000A0H.7 SFRSYM    DATA     BIT       KBI7
      00000090H.5 SFRSYM    DATA     BIT       AIN5
      000000A8H   SFRSYM    DATA     BYTE      IE
      00000090H.6 SFRSYM    DATA     BIT       AIN6
      000000E9H   SFRSYM    DATA     BYTE      CL
      00000090H.7 SFRSYM    DATA     BIT       AIN7
      00000090H.2 SFRSYM    DATA     BIT       CEX0
      000000FAH   SFRSYM    DATA     BYTE      CCAP0H
      000000C6H   SFRSYM    DATA     BYTE      ADCH
      00000090H.3 SFRSYM    DATA     BIT       CEX1
      000000FBH   SFRSYM    DATA     BYTE      CCAP1H
LX51 LINKER/LOCATER V4.47a                                                            02/02/2015  10:52:25  PAGE 113


      000000B7H   SFRSYM    DATA     BYTE      IP0H
      000000A0H.2 SFRSYM    DATA     BIT       ALL_SDA
      00000090H.4 SFRSYM    DATA     BIT       CEX2
      000000FCH   SFRSYM    DATA     BYTE      CCAP2H
      000000B0H.3 SFRSYM    DATA     BIT       OFFSET_KEY
      00000090H.5 SFRSYM    DATA     BIT       CEX3
      000000FDH   SFRSYM    DATA     BYTE      CCAP3H
      00000090H.6 SFRSYM    DATA     BIT       CEX4
      000000D8H.6 SFRSYM    DATA     BIT       CR
      000000FEH   SFRSYM    DATA     BYTE      CCAP4H
      000000EAH   SFRSYM    DATA     BYTE      CCAP0L
      000000BEH   SFRSYM    DATA     BYTE      ADCL
      000000B0H.7 SFRSYM    DATA     BIT       RD
      00000090H.7 SFRSYM    DATA     BIT       CEX5
      000000C8H.6 SFRSYM    DATA     BIT       EXF2
      00000098H.4 SFRSYM    DATA     BIT       REN0
      000000FFH   SFRSYM    DATA     BYTE      CCAP5H
      000000EBH   SFRSYM    DATA     BYTE      CCAP1L
      000000DAH   SFRSYM    DATA     BYTE      CCAPM0
      000000B8H   SFRSYM    DATA     BYTE      IP0L
      00000098H.4 SFRSYM    DATA     BIT       REN1
      000000ECH   SFRSYM    DATA     BYTE      CCAP2L
      000000DBH   SFRSYM    DATA     BYTE      CCAPM1
      000000C0H.3 SFRSYM    DATA     BIT       IT2H
      000000A8H.4 SFRSYM    DATA     BIT       ES
      00000097H   SFRSYM    DATA     BYTE      TSTWD
      000000EDH   SFRSYM    DATA     BYTE      CCAP3L
      000000DCH   SFRSYM    DATA     BYTE      CCAPM2
      000000C0H.7 SFRSYM    DATA     BIT       IT3H
      000000EEH   SFRSYM    DATA     BYTE      CCAP4L
      000000DDH   SFRSYM    DATA     BYTE      CCAPM3
      000000B8H   SFRSYM    DATA     BYTE      IP
      000000EFH   SFRSYM    DATA     BYTE      CCAP5L
      000000DEH   SFRSYM    DATA     BYTE      CCAPM4
      00000098H   SFRSYM    DATA     BIT       RI
      000000DFH   SFRSYM    DATA     BYTE      CCAPM5
      000000B0H.2 SFRSYM    DATA     BIT       INT0
      000000D0H.7 SFRSYM    DATA     BIT       CY
      000000B0H.4 SFRSYM    DATA     BIT       BEEP
      00000080H.4 SFRSYM    DATA     BIT       mV_OUT
      000000B0H.3 SFRSYM    DATA     BIT       INT1
      00000098H.1 SFRSYM    DATA     BIT       TI
      000000A0H.3 SFRSYM    DATA     BIT       EEP_SCL
      000000E8H.3 SFRSYM    DATA     BIT       INT2
      000000E8H.2 SFRSYM    DATA     BIT       INT3
      000000C6H   SFRSYM    DATA     BYTE      ADCV
      0000008FH   SFRSYM    DATA     BYTE      STRETCH
      000000B8H.1 SFRSYM    DATA     BIT       PT0L
      000000B8H.3 SFRSYM    DATA     BIT       PT1L
      000000CBH   SFRSYM    DATA     BYTE      RCAP2H
      000000A0H.2 SFRSYM    DATA     BIT       RTC_SDA
      000000B8H.4 SFRSYM    DATA     BIT       PS
      000000B8H.5 SFRSYM    DATA     BIT       PT2L
      00000081H   SFRSYM    DATA     BYTE      SP
      00000090H.1 SFRSYM    DATA     BIT       T2EX
      000000D9H   SFRSYM    DATA     BYTE      CMOD
      000000D8H   SFRSYM    DATA     BYTE      CCON
      0000009AH   SFRSYM    DATA     BYTE      SCFG
      000000B8H   SFRSYM    DATA     BIT       PX0L
      000000D0H.2 SFRSYM    DATA     BIT       OV
      000000B8H.2 SFRSYM    DATA     BIT       PX1L
      000000CAH   SFRSYM    DATA     BYTE      RCAP2L
      000000B8H.6 SFRSYM    DATA     BIT       PX2L
      00000090H.7 SFRSYM    DATA     BIT       SPI_CLK
      000000B8H.7 SFRSYM    DATA     BIT       PX3L
LX51 LINKER/LOCATER V4.47a                                                            02/02/2015  10:52:25  PAGE 114


      000000E6H   SFRSYM    DATA     BYTE      SCMD
      000000B0H.6 SFRSYM    DATA     BIT       WR
      000000C8H.1 SFRSYM    DATA     BIT       C_T2
      00000084H   SFRSYM    DATA     BYTE      SPISTAT
      00000090H.6 SFRSYM    DATA     BIT       RTC_SCL
      000000C8H.5 SFRSYM    DATA     BIT       RCLK
      000000C8H.4 SFRSYM    DATA     BIT       TCLK
      00000080H   SFRSYM    DATA     BIT       P00
      000000E3H   SFRSYM    DATA     BYTE      IFADRH
      00000090H   SFRSYM    DATA     BIT       P10
      00000080H.1 SFRSYM    DATA     BIT       P01
      000000E5H   SFRSYM    DATA     BYTE      IFMT
      00000087H   SFRSYM    DATA     BYTE      PCON
      00000099H   SFRSYM    DATA     BYTE      SBUF
      000000A0H   SFRSYM    DATA     BIT       P20
      00000090H.1 SFRSYM    DATA     BIT       P11
      00000080H.2 SFRSYM    DATA     BIT       P02
      000000B0H   SFRSYM    DATA     BIT       P30
      000000A0H.1 SFRSYM    DATA     BIT       P21
      00000090H.2 SFRSYM    DATA     BIT       P12
      00000080H.3 SFRSYM    DATA     BIT       P03
      000000B0H.2 SFRSYM    DATA     BIT       FUNCTION_KEY
      000000E8H   SFRSYM    DATA     BIT       P40
      000000B0H.1 SFRSYM    DATA     BIT       P31
      000000A0H.2 SFRSYM    DATA     BIT       P22
      00000090H.3 SFRSYM    DATA     BIT       P13
      00000080H.4 SFRSYM    DATA     BIT       P04
      000000E4H   SFRSYM    DATA     BYTE      IFADRL
      00000098H   SFRSYM    DATA     BYTE      SCON
      000000F8H   SFRSYM    DATA     BIT       P50
      000000E8H.1 SFRSYM    DATA     BIT       P41
      000000B0H.2 SFRSYM    DATA     BIT       P32
      000000A0H.3 SFRSYM    DATA     BIT       P23
      00000090H.4 SFRSYM    DATA     BIT       P14
      00000080H.5 SFRSYM    DATA     BIT       P05
      00000089H   SFRSYM    DATA     BYTE      TMOD
      00000088H   SFRSYM    DATA     BYTE      TCON
      000000C8H   SFRSYM    DATA     BIT       P60
      000000F8H.1 SFRSYM    DATA     BIT       P51
      000000E8H.2 SFRSYM    DATA     BIT       P42
      000000B0H.3 SFRSYM    DATA     BIT       P33
      000000A0H.4 SFRSYM    DATA     BIT       P24
      00000090H.5 SFRSYM    DATA     BIT       P15
      00000080H.6 SFRSYM    DATA     BIT       P06
      000000A0H.5 SFRSYM    DATA     BIT       TEMP
      000000C8H.1 SFRSYM    DATA     BIT       P61
      000000F8H.2 SFRSYM    DATA     BIT       P52
      000000E8H.3 SFRSYM    DATA     BIT       P43
      000000B0H.4 SFRSYM    DATA     BIT       P34
      000000A0H.5 SFRSYM    DATA     BIT       P25
      00000090H.6 SFRSYM    DATA     BIT       P16
      00000080H.7 SFRSYM    DATA     BIT       P07
      000000F8H.3 SFRSYM    DATA     BIT       P53
      000000E8H.4 SFRSYM    DATA     BIT       P44
      000000B0H.5 SFRSYM    DATA     BIT       P35
      000000A0H.6 SFRSYM    DATA     BIT       P26
      00000090H.7 SFRSYM    DATA     BIT       P17
      000000A0H   SFRSYM    DATA     BIT       Value_SDA
      000000E8H.5 SFRSYM    DATA     BIT       P45
      000000B0H.6 SFRSYM    DATA     BIT       P36
      000000A0H.7 SFRSYM    DATA     BIT       P27
      00000080H   SFRSYM    DATA     BIT       TC_C
      000000E8H.6 SFRSYM    DATA     BIT       P46
      000000B0H.7 SFRSYM    DATA     BIT       P37
      000000E8H.7 SFRSYM    DATA     BIT       P47
LX51 LINKER/LOCATER V4.47a                                                            02/02/2015  10:52:25  PAGE 115


      000000D7H   SFRSYM    DATA     BYTE      KBMASK
      000000A0H.4 SFRSYM    DATA     BIT       OUT_SCL
      000000A0H   SFRSYM    DATA     BIT       AD_SDA
      00000088H.1 SFRSYM    DATA     BIT       IE0
      00000088H.3 SFRSYM    DATA     BIT       IE1
      00000090H   SFRSYM    DATA     BIT       LED1_SDA
      000000C0H.1 SFRSYM    DATA     BIT       IE2
      00000090H.3 SFRSYM    DATA     BIT       LED2_SDA
      000000C0H.5 SFRSYM    DATA     BIT       IE3
      000000A8H.6 SFRSYM    DATA     BIT       GF4
      0000008EH   SFRSYM    DATA     BYTE      AUXR
      000000F0H   SFRSYM    DATA     BYTE      B
      000000D5H   SFRSYM    DATA     BYTE      KBPATN
      000000A0H.1 SFRSYM    DATA     BIT       Value_SCL
      000000C8H   SFRSYM    DATA     BIT       CP_RL2
      000000A0H.6 SFRSYM    DATA     BIT       NONE_4
      000000A0H.7 SFRSYM    DATA     BIT       NONE_5
      000000B0H.6 SFRSYM    DATA     BIT       NONE_6
      00000086H   SFRSYM    DATA     BYTE      SPIDAT
      000000E0H   SFRSYM    DATA     BYTE      ACC
      000000B0H.7 SFRSYM    DATA     BIT       NONE_7
      000000A0H.1 SFRSYM    DATA     BIT       AD_SCL
      000000A8H.4 SFRSYM    DATA     BIT       ES0
      000000A8H.1 SFRSYM    DATA     BIT       ET0
      00000090H.2 SFRSYM    DATA     BIT       LED1_SCL
      00000088H.5 SFRSYM    DATA     BIT       TF0
      000000A8H.3 SFRSYM    DATA     BIT       ET1
      00000090H.4 SFRSYM    DATA     BIT       LED2_SCL
      00000088H.7 SFRSYM    DATA     BIT       TF1
      00000098H   SFRSYM    DATA     BIT       RI0
      000000A8H.5 SFRSYM    DATA     BIT       ET2
      000000C8H.7 SFRSYM    DATA     BIT       TF2
      00000098H   SFRSYM    DATA     BIT       RI1
      00000098H.2 SFRSYM    DATA     BIT       RB8
      0000008CH   SFRSYM    DATA     BYTE      TH0
      00000088H   SFRSYM    DATA     BIT       IT0
      00000098H.1 SFRSYM    DATA     BIT       TI0
      000000A8H   SFRSYM    DATA     BIT       EX0
      0000008DH   SFRSYM    DATA     BYTE      TH1
      00000088H.2 SFRSYM    DATA     BIT       IT1
      00000098H.1 SFRSYM    DATA     BIT       TI1
      00000098H.3 SFRSYM    DATA     BIT       TB8
      000000A8H.2 SFRSYM    DATA     BIT       EX1
      00000085H   SFRSYM    DATA     BYTE      SPICON
      000000CDH   SFRSYM    DATA     BYTE      TH2
      000000C0H   SFRSYM    DATA     BIT       IT2
      000000C0H.2 SFRSYM    DATA     BIT       EX2
      000000D0H   SFRSYM    DATA     BIT       P
      000000C0H.4 SFRSYM    DATA     BIT       IT3
      000000C0H.6 SFRSYM    DATA     BIT       EX3
      00000098H.7 SFRSYM    DATA     BIT       SM0
      0000008AH   SFRSYM    DATA     BYTE      TL0
      00000080H.3 SFRSYM    DATA     BIT       mA_C
      000000C8H   SFRSYM    DATA     BIT       XOUT
      00000090H.1 SFRSYM    DATA     BIT       ECI
      00000098H.6 SFRSYM    DATA     BIT       SM1
      00000085H   SFRSYM    DATA     BYTE      SPICTL
      0000008BH   SFRSYM    DATA     BYTE      TL1
      000000AFH   SFRSYM    DATA     BYTE      AUXIPH
      000000E8H.6 SFRSYM    DATA     BIT       ALE
      00000098H.5 SFRSYM    DATA     BIT       SM2
      000000CCH   SFRSYM    DATA     BYTE      TL2
      000000E2H   SFRSYM    DATA     BYTE      IFD
      000000B8H.1 SFRSYM    DATA     BIT       PT0
      000000B0H.5 SFRSYM    DATA     BIT       R485_DE_RE
LX51 LINKER/LOCATER V4.47a                                                            02/02/2015  10:52:25  PAGE 116


      000000B8H.3 SFRSYM    DATA     BIT       PT1
      000000D0H.3 SFRSYM    DATA     BIT       RS0
      00000088H.4 SFRSYM    DATA     BIT       TR0
      000000B8H.5 SFRSYM    DATA     BIT       PT2
      000000D0H.4 SFRSYM    DATA     BIT       RS1
      00000088H.6 SFRSYM    DATA     BIT       TR1
      000000C8H.2 SFRSYM    DATA     BIT       TR2
      000000B8H   SFRSYM    DATA     BIT       PX0
      000000AFH   SFRSYM    DATA     BYTE      EIP1H
      000000B8H.2 SFRSYM    DATA     BIT       PX1
      000000C0H.3 SFRSYM    DATA     BIT       PX2
      000000C0H.7 SFRSYM    DATA     BIT       PX3
      000000AEH   SFRSYM    DATA     BYTE      EIP1L
      00000083H   SFRSYM    DATA     BYTE      DPH
      000000C8H   SFRSYM    DATA     BIT       CKO
      00000082H   SFRSYM    DATA     BYTE      DPL
      00000087H   SFRSYM    DATA     BYTE      PCON0
      00000084H   SFRSYM    DATA     BYTE      SPSTAT
      00000099H   SFRSYM    DATA     BYTE      SBUF0
      000000B7H   SFRSYM    DATA     BYTE      IPH
      000000B0H.4 SFRSYM    DATA     BIT       T0CKO
      00000097H   SFRSYM    DATA     BYTE      PCON1
      00000099H   SFRSYM    DATA     BYTE      SBUF1
      000000B0H.5 SFRSYM    DATA     BIT       T1CKO
      000000C8H.3 SFRSYM    DATA     BIT       EXEN2
      000000C7H   SFRSYM    DATA     BYTE      PCON2
      0000009AH   SFRSYM    DATA     BYTE      S2BUF
      00000098H   SFRSYM    DATA     BYTE      SCON0
      00000098H.4 SFRSYM    DATA     BIT       REN
      00000098H   SFRSYM    DATA     BYTE      SCON1
      00000080H.2 SFRSYM    DATA     BIT       mV_C
      000000C5H   SFRSYM    DATA     BYTE      ADCON
      000000A0H.2 SFRSYM    DATA     BIT       mA_SDA
      000000C9H   SFRSYM    DATA     BYTE      T2MOD
      000000C8H   SFRSYM    DATA     BYTE      T2CON
      000000C5H   SFRSYM    DATA     BYTE      ADCTL
      000000BEH   SFRSYM    DATA     BYTE      ADCVL
      000000B9H   SFRSYM    DATA     BYTE      SADEN
      0000009AH   SFRSYM    DATA     BYTE      S1BRT
      000000B0H   SFRSYM    DATA     BIT       RXD
      000000D6H   SFRSYM    DATA     BYTE      KBCON
      00000080H.6 SFRSYM    DATA     BIT       UP_KEY
      000000C8H.1 SFRSYM    DATA     BIT       XIN
      000000B8H.4 SFRSYM    DATA     BIT       PSL
      000000A9H   SFRSYM    DATA     BYTE      SADDR
      000000B0H.1 SFRSYM    DATA     BIT       TXD
      000000A0H.4 SFRSYM    DATA     BIT       mA_SCL
      0000008EH   SFRSYM    DATA     BYTE      AUXR0
      000000A2H   SFRSYM    DATA     BYTE      AUXR1
      00000090H.4 SFRSYM    DATA     BIT       SPI_SS
      000000A6H   SFRSYM    DATA     BYTE      AUXR2
      00000090H.2 SFRSYM    DATA     BIT       S2RXD
      000000D0H.5 SFRSYM    DATA     BIT       F0
      000000B0H.4 SFRSYM    DATA     BIT       BEEP_OUT
      00000090H.3 SFRSYM    DATA     BIT       S2TXD
      000000D0H.1 SFRSYM    DATA     BIT       F1
      00000090H.1 SFRSYM    DATA     BIT       LED1_LE
      00000090H.5 SFRSYM    DATA     BIT       LED2_LE
      000000F2H   SFRSYM    DATA     BYTE      PCAPWM0
      000000D0H   SFRSYM    DATA     BYTE      PSW
      000000F3H   SFRSYM    DATA     BYTE      PCAPWM1
      000000A0H.2 SFRSYM    DATA     BIT       mV_SDA
      000000D8H   SFRSYM    DATA     BIT       CCF0
      00000098H.2 SFRSYM    DATA     BIT       RB80
      000000F4H   SFRSYM    DATA     BYTE      PCAPWM2
LX51 LINKER/LOCATER V4.47a                                                            02/02/2015  10:52:25  PAGE 117


      000000D8H.1 SFRSYM    DATA     BIT       CCF1
      00000098H.2 SFRSYM    DATA     BIT       RB81
      000000F5H   SFRSYM    DATA     BYTE      PCAPWM3
      00000086H   SFRSYM    DATA     BYTE      SPDAT
      00000093H   SFRSYM    DATA     BYTE      P0M0
      000000ADH   SFRSYM    DATA     BYTE      AUXIE

      0100611CH   BLOCK     CODE     ---       LVL=0
      00000006H   SYMBOL    DATA     WORD      i
      0100611CH   BLOCK     CODE     NEAR LAB  LVL=1
      00000007H   SYMBOL    DATA     BYTE      j
      ---         BLOCKEND  ---      ---       LVL=1
      0100611CH   LINE      CODE     ---       #38
      0100611CH   LINE      CODE     ---       #39
      0100611CH   LINE      CODE     ---       #41
      01006126H   LINE      CODE     ---       #42
      0100612CH   LINE      CODE     ---       #43
      ---         BLOCKEND  ---      ---       LVL=0

      0100618AH   BLOCK     CODE     ---       LVL=0
      ---         BLOCKEND  ---      ---       LVL=0

      01006191H   BLOCK     CODE     ---       LVL=0
      00000007H   SYMBOL    DATA     BYTE      i
      01006191H   BLOCK     CODE     NEAR LAB  LVL=1
      00000007H   SYMBOL    DATA     BYTE      i
      ---         BLOCKEND  ---      ---       LVL=1
      01006191H   LINE      CODE     ---       #45
      01006191H   LINE      CODE     ---       #46
      01006191H   LINE      CODE     ---       #49
      01006197H   LINE      CODE     ---       #50
      ---         BLOCKEND  ---      ---       LVL=0
      00000006H   SYMBOL    DATA     WORD      i

      0100617BH   BLOCK     CODE     ---       LVL=0
      0100617BH   LINE      CODE     ---       #64
      0100617BH   LINE      CODE     ---       #65
      0100617BH   LINE      CODE     ---       #66
      0100617DH   LINE      CODE     ---       #67
      01006180H   LINE      CODE     ---       #68
      01006182H   LINE      CODE     ---       #69
      01006185H   LINE      CODE     ---       #70
      01006187H   LINE      CODE     ---       #71
      ---         BLOCKEND  ---      ---       LVL=0

      010061C1H   BLOCK     CODE     ---       LVL=0
      010061C1H   LINE      CODE     ---       #74
      010061C1H   LINE      CODE     ---       #75
      010061C1H   LINE      CODE     ---       #76
      010061C3H   LINE      CODE     ---       #77
      010061C3H   LINE      CODE     ---       #78
      010061C3H   LINE      CODE     ---       #79
      010061C6H   LINE      CODE     ---       #80
      010061C8H   LINE      CODE     ---       #81
      ---         BLOCKEND  ---      ---       LVL=0

      0100000EH   BLOCK     CODE     ---       LVL=0
      0100000EH   LINE      CODE     ---       #84
      0100000EH   LINE      CODE     ---       #85
      0100000EH   LINE      CODE     ---       #86
      0100000EH   LINE      CODE     ---       #87
      0100000EH   LINE      CODE     ---       #88
      0100000EH   LINE      CODE     ---       #89
      01000011H   LINE      CODE     ---       #90
      01000013H   LINE      CODE     ---       #91
LX51 LINKER/LOCATER V4.47a                                                            02/02/2015  10:52:25  PAGE 118


      01000016H   LINE      CODE     ---       #92
      01000018H   LINE      CODE     ---       #93
      ---         BLOCKEND  ---      ---       LVL=0

      01005E2BH   BLOCK     CODE     ---       LVL=0
      00000006H   SYMBOL    DATA     BYTE      bt
      01005E2DH   BLOCK     CODE     NEAR LAB  LVL=1
      00000010H   SYMBOL    IDATA    BYTE      i
      ---         BLOCKEND  ---      ---       LVL=1
      01005E2BH   LINE      CODE     ---       #96
      01005E2DH   LINE      CODE     ---       #97
      01005E2DH   LINE      CODE     ---       #100
      01005E30H   LINE      CODE     ---       #102
      01005E34H   LINE      CODE     ---       #103
      01005E34H   LINE      CODE     ---       #104
      01005E38H   LINE      CODE     ---       #105
      01005E3CH   LINE      CODE     ---       #107
      01005E3EH   LINE      CODE     ---       #108
      01005E3EH   LINE      CODE     ---       #109
      01005E3EH   LINE      CODE     ---       #110
      01005E41H   LINE      CODE     ---       #111
      01005E43H   LINE      CODE     ---       #112
      01005E46H   LINE      CODE     ---       #113
      01005E4AH   LINE      CODE     ---       #114
      01005E53H   LINE      CODE     ---       #115
      01005E53H   LINE      CODE     ---       #116
      01005E53H   LINE      CODE     ---       #117
      01005E53H   LINE      CODE     ---       #118
      01005E56H   LINE      CODE     ---       #120
      01005E5CH   LINE      CODE     ---       #121
      01005E5EH   LINE      CODE     ---       #122
      ---         BLOCKEND  ---      ---       LVL=0

      01005DEFH   BLOCK     CODE     ---       LVL=0
      01005DEFH   BLOCK     CODE     NEAR LAB  LVL=1
      00000010H   SYMBOL    IDATA    BYTE      i
      00000011H   SYMBOL    IDATA    BYTE      res
      ---         BLOCKEND  ---      ---       LVL=1
      01005DEFH   LINE      CODE     ---       #125
      01005DEFH   LINE      CODE     ---       #126
      01005DEFH   LINE      CODE     ---       #128
      01005DF3H   LINE      CODE     ---       #129
      01005DF5H   LINE      CODE     ---       #131
      01005DF7H   LINE      CODE     ---       #132
      01005DF7H   LINE      CODE     ---       #133
      01005DF9H   LINE      CODE     ---       #134
      01005DFCH   LINE      CODE     ---       #135
      01005E03H   LINE      CODE     ---       #136
      01005E0AH   LINE      CODE     ---       #137
      01005E0CH   LINE      CODE     ---       #138
      01005E0FH   LINE      CODE     ---       #139
      01005E18H   LINE      CODE     ---       #140
      01005E1AH   LINE      CODE     ---       #141
      01005E1CH   LINE      CODE     ---       #142
      01005E1FH   LINE      CODE     ---       #143
      01005E21H   LINE      CODE     ---       #144
      01005E23H   LINE      CODE     ---       #145
      01005E26H   LINE      CODE     ---       #146
      01005E2AH   LINE      CODE     ---       #147
      ---         BLOCKEND  ---      ---       LVL=0

      01005FDBH   BLOCK     CODE     ---       LVL=0
      00000004H   SYMBOL    DATA     BYTE      reg_addr
      00000005H   SYMBOL    DATA     BYTE      reg_data
      01005FDBH   LINE      CODE     ---       #149
LX51 LINKER/LOCATER V4.47a                                                            02/02/2015  10:52:25  PAGE 119


      01005FDDH   LINE      CODE     ---       #150
      01005FDDH   LINE      CODE     ---       #151
      01005FE0H   LINE      CODE     ---       #152
      01005FE5H   LINE      CODE     ---       #153
      01005FEAH   LINE      CODE     ---       #154
      01005FEFH   LINE      CODE     ---       #155
      01005FF2H   LINE      CODE     ---       #156
      ---         BLOCKEND  ---      ---       LVL=0

      01005F7DH   BLOCK     CODE     ---       LVL=0
      00000005H   SYMBOL    DATA     BYTE      reg_addr
      01005F7FH   BLOCK     CODE     NEAR LAB  LVL=1
      00000006H   SYMBOL    DATA     BYTE      retb
      ---         BLOCKEND  ---      ---       LVL=1
      01005F7DH   LINE      CODE     ---       #159
      01005F7FH   LINE      CODE     ---       #160
      01005F7FH   LINE      CODE     ---       #163
      01005F82H   LINE      CODE     ---       #164
      01005F87H   LINE      CODE     ---       #165
      01005F8CH   LINE      CODE     ---       #166
      01005F8FH   LINE      CODE     ---       #167
      01005F94H   LINE      CODE     ---       #168
      01005F99H   LINE      CODE     ---       #169
      01005F9CH   LINE      CODE     ---       #171
      01005F9EH   LINE      CODE     ---       #172
      ---         BLOCKEND  ---      ---       LVL=0

      ---         MODULE    ---      ---       ?C?FPADD
      01003443H   PUBLIC    CODE     ---       ?C?FPADD
      0100343FH   PUBLIC    CODE     ---       ?C?FPSUB

      ---         MODULE    ---      ---       ?C?FPMUL
      01003534H   PUBLIC    CODE     ---       ?C?FPMUL

      ---         MODULE    ---      ---       ?C?FPDIV
      0100363DH   PUBLIC    CODE     ---       ?C?FPDIV

      ---         MODULE    ---      ---       ?C?FPCMP
      010036DCH   PUBLIC    CODE     ---       ?C?FPCMP
      010036DAH   PUBLIC    CODE     ---       ?C?FPCMP3

      ---         MODULE    ---      ---       ?C?FCAST
      0100375DH   PUBLIC    CODE     ---       ?C?FCASTC
      01003758H   PUBLIC    CODE     ---       ?C?FCASTI
      01003753H   PUBLIC    CODE     ---       ?C?FCASTL

      ---         MODULE    ---      ---       ?C?CASTF
      01003791H   PUBLIC    CODE     ---       ?C?CASTF

      ---         MODULE    ---      ---       ?C?FPGETOPN
      010037C8H   PUBLIC    CODE     ---       ?C?FPGETOPN2
      010037FDH   PUBLIC    CODE     ---       ?C?FPNANRESULT
      01003807H   PUBLIC    CODE     ---       ?C?FPOVERFLOW
      010037DFH   PUBLIC    CODE     ---       ?C?FPRESULT
      010037F3H   PUBLIC    CODE     ---       ?C?FPRESULT2
      01003804H   PUBLIC    CODE     ---       ?C?FPUNDERFLOW

      ---         MODULE    ---      ---       ?C_STARTUP
      01000000H   PUBLIC    CODE     ---       ?C_STARTUP

      ---         MODULE    ---      ---       ?C?IMUL
      01003812H   PUBLIC    CODE     ---       ?C?IMUL

      ---         MODULE    ---      ---       ?C?UIDIV
      01003824H   PUBLIC    CODE     ---       ?C?UIDIV
LX51 LINKER/LOCATER V4.47a                                                            02/02/2015  10:52:25  PAGE 120



      ---         MODULE    ---      ---       ?C?SLDIV
      01005C37H   PUBLIC    CODE     ---       ?C?SLDIV

      ---         MODULE    ---      ---       ?C?LNEG
      01003879H   PUBLIC    CODE     ---       ?C?LNEG

      ---         MODULE    ---      ---       ?C?SLCMP
      01003887H   PUBLIC    CODE     ---       ?C?SLCMP

      ---         MODULE    ---      ---       ?C_INIT
      010059DBH   PUBLIC    CODE     ---       ?C_START

      ---         MODULE    ---      ---       ?C?ULDIV
      010038D9H   PUBLIC    CODE     ---       ?C?ULDIV

Program Size: data=146.4 xdata=82 const=51 code=25061
LX51 RUN COMPLETE.  0 WARNING(S),  0 ERROR(S)
